GAS LISTING /tmp/ccPQbcDs.s 			page 1


   1              		.file	"Console.cpp"
   2              		.option nopic
   3              		.option norelax
   4              		.attribute arch, "rv64i2p0_m2p0_a2p0"
   5              		.attribute unaligned_access, 0
   6              		.attribute stack_align, 16
   7              		.text
   8              	.Ltext0:
   9              		.align	2
  10              		.globl	_ZN9myConsole12console_initEv
  12              	_ZN9myConsole12console_initEv:
  13              	.LFB32:
  14              		.file 1 "src/Console.cpp"
   1:src/Console.cpp **** 
   2:src/Console.cpp **** #include "../h/Console.hpp"
   3:src/Console.cpp **** #include "../h/Riscv.hpp"
   4:src/Console.cpp **** 
   5:src/Console.cpp **** mySemaphore* myConsole::semInput = nullptr;
   6:src/Console.cpp **** mySemaphore* myConsole::semOutput = nullptr;
   7:src/Console.cpp **** uint64 myConsole::inputHead = 0;
   8:src/Console.cpp **** uint64 myConsole::inputTail = 0;
   9:src/Console.cpp **** uint64 myConsole::outputHead = 0;
  10:src/Console.cpp **** uint64 myConsole::outputTail = 0;
  11:src/Console.cpp **** char myConsole::inputBuffer[BUFFER_SIZE];
  12:src/Console.cpp **** char myConsole::outputBuffer[BUFFER_SIZE];
  13:src/Console.cpp **** uint64 myConsole::numberOfCharToSend = 0;
  14:src/Console.cpp **** uint64 myConsole::numberOfCharToGet = 0;
  15:src/Console.cpp **** bool myConsole::stopConsole = false;
  16:src/Console.cpp **** 
  17:src/Console.cpp **** 
  18:src/Console.cpp **** void myConsole::console_init() {
  15              		.loc 1 18 32
  16              		.cfi_startproc
  17              		.cfi_personality 0x9b,DW.ref.__gxx_personality_v0
  18              		.cfi_lsda 0x1b,.LLSDA32
  19 0000 130101FE 		addi	sp,sp,-32
  20              		.cfi_def_cfa_offset 32
  21 0004 233C1100 		sd	ra,24(sp)
  22 0008 23388100 		sd	s0,16(sp)
  23 000c 23349100 		sd	s1,8(sp)
  24 0010 23302101 		sd	s2,0(sp)
  25              		.cfi_offset 1, -8
  26              		.cfi_offset 8, -16
  27              		.cfi_offset 9, -24
  28              		.cfi_offset 18, -32
  29 0014 13040102 		addi	s0,sp,32
  30              		.cfi_def_cfa 8, 0
  19:src/Console.cpp ****     semInput = new mySemaphore(0);
  31              		.loc 1 19 5
  32              		.loc 1 19 33 is_stmt 0
  33 0018 13058001 		li	a0,24
  34              	.LEHB0:
  35 001c 97000000 		call	_ZN11mySemaphorenwEm
  35      E7800000 
  36              	.LVL0:
  37              	.LEHE0:
  38 0024 93040500 		mv	s1,a0
GAS LISTING /tmp/ccPQbcDs.s 			page 2


  39 0028 93050000 		li	a1,0
  40              	.LEHB1:
  41 002c 97000000 		call	_ZN11mySemaphoreC1Ei
  41      E7800000 
  42              	.LVL1:
  43              	.LEHE1:
  44              		.loc 1 19 14 discriminator 2
  45 0034 97070000 		sd	s1,_ZN9myConsole8semInputE,a5
  45      23B09700 
  20:src/Console.cpp ****     semOutput = new mySemaphore(0);
  46              		.loc 1 20 5 is_stmt 1 discriminator 2
  47              		.loc 1 20 34 is_stmt 0 discriminator 2
  48 003c 13058001 		li	a0,24
  49              	.LEHB2:
  50 0040 97000000 		call	_ZN11mySemaphorenwEm
  50      E7800000 
  51              	.LVL2:
  52              	.LEHE2:
  53 0048 93040500 		mv	s1,a0
  54 004c 93050000 		li	a1,0
  55              	.LEHB3:
  56 0050 97000000 		call	_ZN11mySemaphoreC1Ei
  56      E7800000 
  57              	.LVL3:
  58              	.LEHE3:
  59              		.loc 1 20 15 discriminator 2
  60 0058 97070000 		sd	s1,_ZN9myConsole9semOutputE,a5
  60      23B09700 
  21:src/Console.cpp **** }
  61              		.loc 1 21 1 discriminator 2
  62 0060 83308101 		ld	ra,24(sp)
  63              		.cfi_remember_state
  64              		.cfi_restore 1
  65 0064 03340101 		ld	s0,16(sp)
  66              		.cfi_restore 8
  67              		.cfi_def_cfa 2, 32
  68 0068 83348100 		ld	s1,8(sp)
  69              		.cfi_restore 9
  70 006c 03390100 		ld	s2,0(sp)
  71              		.cfi_restore 18
  72 0070 13010102 		addi	sp,sp,32
  73              		.cfi_def_cfa_offset 0
  74 0074 67800000 		jr	ra
  75              	.L4:
  76              		.cfi_restore_state
  77 0078 13090500 		mv	s2,a0
  19:src/Console.cpp ****     semInput = new mySemaphore(0);
  78              		.loc 1 19 33
  79 007c 13850400 		mv	a0,s1
  80 0080 97000000 		call	_ZN11mySemaphoredlEPv
  80      E7800000 
  81              	.LVL4:
  82 0088 13050900 		mv	a0,s2
  83              	.LEHB4:
  84 008c 97000000 		call	_Unwind_Resume
  84      E7800000 
  85              	.LVL5:
GAS LISTING /tmp/ccPQbcDs.s 			page 3


  86              	.LEHE4:
  87              	.L5:
  88 0094 13090500 		mv	s2,a0
  20:src/Console.cpp ****     semOutput = new mySemaphore(0);
  89              		.loc 1 20 34
  90 0098 13850400 		mv	a0,s1
  91 009c 97000000 		call	_ZN11mySemaphoredlEPv
  91      E7800000 
  92              	.LVL6:
  93 00a4 13050900 		mv	a0,s2
  94              	.LEHB5:
  95 00a8 97000000 		call	_Unwind_Resume
  95      E7800000 
  96              	.LVL7:
  97              	.LEHE5:
  98              		.cfi_endproc
  99              	.LFE32:
 100              		.globl	__gxx_personality_v0
 101              		.section	.gcc_except_table,"aw",@progbits
 102              	.LLSDA32:
 103 0000 FF       		.byte	0xff
 104 0001 FF       		.byte	0xff
 105 0002 03       		.byte	0x3
 106 0003 4E       		.byte	0x4e
 107 0004 00000000 		.4byte	.LEHB0-.LFB32
 108 0008 00000000 		.4byte	.LEHE0-.LEHB0
 109 000c 00000000 		.4byte	0
 110 0010 00       		.byte	0
 111 0011 00000000 		.4byte	.LEHB1-.LFB32
 112 0015 00000000 		.4byte	.LEHE1-.LEHB1
 113 0019 00000000 		.4byte	.L4-.LFB32
 114 001d 00       		.byte	0
 115 001e 00000000 		.4byte	.LEHB2-.LFB32
 116 0022 00000000 		.4byte	.LEHE2-.LEHB2
 117 0026 00000000 		.4byte	0
 118 002a 00       		.byte	0
 119 002b 00000000 		.4byte	.LEHB3-.LFB32
 120 002f 00000000 		.4byte	.LEHE3-.LEHB3
 121 0033 00000000 		.4byte	.L5-.LFB32
 122 0037 00       		.byte	0
 123 0038 00000000 		.4byte	.LEHB4-.LFB32
 124 003c 00000000 		.4byte	.LEHE4-.LEHB4
 125 0040 00000000 		.4byte	0
 126 0044 00       		.byte	0
 127 0045 00000000 		.4byte	.LEHB5-.LFB32
 128 0049 00000000 		.4byte	.LEHE5-.LEHB5
 129 004d 00000000 		.4byte	0
 130 0051 00       		.byte	0
 131              		.text
 133              		.align	2
 134              		.globl	_ZN9myConsole11putCOutBuffEc
 136              	_ZN9myConsole11putCOutBuffEc:
 137              	.LFB33:
  22:src/Console.cpp **** 
  23:src/Console.cpp **** void myConsole::putCOutBuff(char c) {
 138              		.loc 1 23 37 is_stmt 1
 139              		.cfi_startproc
GAS LISTING /tmp/ccPQbcDs.s 			page 4


 140              	.LVL8:
  24:src/Console.cpp ****     if ((outputTail+1) % BUFFER_SIZE == outputHead) {
 141              		.loc 1 24 5
 142              		.loc 1 24 20 is_stmt 0
 143 00b0 17070000 		ld	a4,_ZN9myConsole10outputTailE
 143      03370700 
 144 00b8 93071700 		addi	a5,a4,1
 145              		.loc 1 24 24
 146 00bc 93F7F73F 		andi	a5,a5,1023
 147              		.loc 1 24 38
 148 00c0 97060000 		ld	a3,_ZN9myConsole10outputHeadE
 148      83B60600 
 149              		.loc 1 24 5
 150 00c8 6380D706 		beq	a5,a3,.L11
  23:src/Console.cpp ****     if ((outputTail+1) % BUFFER_SIZE == outputHead) {
 151              		.loc 1 23 37
 152 00cc 130101FF 		addi	sp,sp,-16
 153              		.cfi_def_cfa_offset 16
 154 00d0 23341100 		sd	ra,8(sp)
 155 00d4 23308100 		sd	s0,0(sp)
 156              		.cfi_offset 1, -8
 157              		.cfi_offset 8, -16
 158 00d8 13040101 		addi	s0,sp,16
 159              		.cfi_def_cfa 8, 0
  25:src/Console.cpp ****         return;                                 //outputBuffer FULL
  26:src/Console.cpp ****     }
  27:src/Console.cpp **** 
  28:src/Console.cpp ****     outputBuffer[outputTail] =  c;
 160              		.loc 1 28 5 is_stmt 1
 161              		.loc 1 28 30 is_stmt 0
 162 00dc 97060000 		lla	a3,.LANCHOR0
 162      93860600 
 163 00e4 3387E600 		add	a4,a3,a4
 164 00e8 2300A700 		sb	a0,0(a4)
  29:src/Console.cpp ****     outputTail = (outputTail+1) % BUFFER_SIZE;
 165              		.loc 1 29 5 is_stmt 1
 166              		.loc 1 29 16 is_stmt 0
 167 00ec 17070000 		sd	a5,_ZN9myConsole10outputTailE,a4
 167      2330F700 
  30:src/Console.cpp ****     numberOfCharToSend++;
 168              		.loc 1 30 5 is_stmt 1
 169              		.loc 1 30 23 is_stmt 0
 170 00f4 17070000 		lla	a4,_ZN9myConsole18numberOfCharToSendE
 170      13070700 
 171 00fc 83370700 		ld	a5,0(a4)
 172 0100 93871700 		addi	a5,a5,1
 173 0104 2330F700 		sd	a5,0(a4)
  31:src/Console.cpp ****     semOutput->signal();
 174              		.loc 1 31 5 is_stmt 1
 175              		.loc 1 31 22 is_stmt 0
 176 0108 17050000 		ld	a0,_ZN9myConsole9semOutputE
 176      03350500 
 177              	.LVL9:
 178 0110 97000000 		call	_ZN11mySemaphore6signalEv
 178      E7800000 
 179              	.LVL10:
  32:src/Console.cpp **** }
GAS LISTING /tmp/ccPQbcDs.s 			page 5


 180              		.loc 1 32 1
 181 0118 83308100 		ld	ra,8(sp)
 182              		.cfi_restore 1
 183 011c 03340100 		ld	s0,0(sp)
 184              		.cfi_restore 8
 185              		.cfi_def_cfa 2, 16
 186 0120 13010101 		addi	sp,sp,16
 187              		.cfi_def_cfa_offset 0
 188 0124 67800000 		jr	ra
 189              	.LVL11:
 190              	.L11:
 191 0128 67800000 		ret
 192              		.cfi_endproc
 193              	.LFE33:
 195              		.align	2
 196              		.globl	_ZN9myConsole10getCInBuffEv
 198              	_ZN9myConsole10getCInBuffEv:
 199              	.LFB34:
  33:src/Console.cpp **** 
  34:src/Console.cpp **** int myConsole::getCInBuff() {
 200              		.loc 1 34 29 is_stmt 1
 201              		.cfi_startproc
 202 012c 130101FF 		addi	sp,sp,-16
 203              		.cfi_def_cfa_offset 16
 204 0130 23341100 		sd	ra,8(sp)
 205 0134 23308100 		sd	s0,0(sp)
 206              		.cfi_offset 1, -8
 207              		.cfi_offset 8, -16
 208 0138 13040101 		addi	s0,sp,16
 209              		.cfi_def_cfa 8, 0
  35:src/Console.cpp ****     semInput->wait();
 210              		.loc 1 35 5
 211              		.loc 1 35 19 is_stmt 0
 212 013c 93050000 		li	a1,0
 213 0140 17050000 		ld	a0,_ZN9myConsole8semInputE
 213      03350500 
 214 0148 97000000 		call	_ZN11mySemaphore4waitEm
 214      E7800000 
 215              	.LVL12:
  36:src/Console.cpp ****     if (inputHead == inputTail) {
 216              		.loc 1 36 5 is_stmt 1
 217              		.loc 1 36 19 is_stmt 0
 218 0150 97070000 		ld	a5,_ZN9myConsole9inputHeadE
 218      83B70700 
 219 0158 17070000 		ld	a4,_ZN9myConsole9inputTailE
 219      03370700 
 220              		.loc 1 36 5
 221 0160 638AE702 		beq	a5,a4,.L16
  37:src/Console.cpp ****         return -1;                  //ERROR code
  38:src/Console.cpp ****     }
  39:src/Console.cpp ****     char res = inputBuffer[inputHead];
 222              		.loc 1 39 5 is_stmt 1
 223              		.loc 1 39 10 is_stmt 0
 224 0164 17070000 		lla	a4,.LANCHOR0
 224      13070700 
 225 016c 3307F700 		add	a4,a4,a5
 226              	.LVL13:
GAS LISTING /tmp/ccPQbcDs.s 			page 6


  40:src/Console.cpp ****     inputHead = (inputHead+1) % BUFFER_SIZE;
 227              		.loc 1 40 5 is_stmt 1
 228              		.loc 1 40 27 is_stmt 0
 229 0170 93871700 		addi	a5,a5,1
 230              		.loc 1 40 31
 231 0174 93F7F73F 		andi	a5,a5,1023
 232              		.loc 1 40 15
 233 0178 97060000 		sd	a5,_ZN9myConsole9inputHeadE,a3
 233      23B0F600 
  41:src/Console.cpp ****     return res;
 234              		.loc 1 41 5 is_stmt 1
 235              		.loc 1 41 12 is_stmt 0
 236 0180 03450740 		lbu	a0,1024(a4)
 237              	.LVL14:
 238              	.L15:
  42:src/Console.cpp **** }
 239              		.loc 1 42 1
 240 0184 83308100 		ld	ra,8(sp)
 241              		.cfi_remember_state
 242              		.cfi_restore 1
 243 0188 03340100 		ld	s0,0(sp)
 244              		.cfi_restore 8
 245              		.cfi_def_cfa 2, 16
 246 018c 13010101 		addi	sp,sp,16
 247              		.cfi_def_cfa_offset 0
 248 0190 67800000 		jr	ra
 249              	.L16:
 250              		.cfi_restore_state
  37:src/Console.cpp ****     }
 251              		.loc 1 37 17
 252 0194 1305F0FF 		li	a0,-1
 253 0198 6FF0DFFE 		j	.L15
 254              		.cfi_endproc
 255              	.LFE34:
 257              		.align	2
 258              		.globl	_ZN9myConsole10putCInBuffEc
 260              	_ZN9myConsole10putCInBuffEc:
 261              	.LFB35:
  43:src/Console.cpp **** 
  44:src/Console.cpp **** void myConsole::putCInBuff(char c) {
 262              		.loc 1 44 36 is_stmt 1
 263              		.cfi_startproc
 264              	.LVL15:
  45:src/Console.cpp ****     if ((inputTail+1) % BUFFER_SIZE == inputHead) {
 265              		.loc 1 45 5
 266              		.loc 1 45 19 is_stmt 0
 267 019c 17070000 		ld	a4,_ZN9myConsole9inputTailE
 267      03370700 
 268 01a4 93071700 		addi	a5,a4,1
 269              		.loc 1 45 23
 270 01a8 93F7F73F 		andi	a5,a5,1023
 271              		.loc 1 45 37
 272 01ac 97060000 		ld	a3,_ZN9myConsole9inputHeadE
 272      83B60600 
 273              		.loc 1 45 5
 274 01b4 6386D704 		beq	a5,a3,.L21
  44:src/Console.cpp ****     if ((inputTail+1) % BUFFER_SIZE == inputHead) {
GAS LISTING /tmp/ccPQbcDs.s 			page 7


 275              		.loc 1 44 36
 276 01b8 130101FF 		addi	sp,sp,-16
 277              		.cfi_def_cfa_offset 16
 278 01bc 23341100 		sd	ra,8(sp)
 279 01c0 23308100 		sd	s0,0(sp)
 280              		.cfi_offset 1, -8
 281              		.cfi_offset 8, -16
 282 01c4 13040101 		addi	s0,sp,16
 283              		.cfi_def_cfa 8, 0
  46:src/Console.cpp ****         return;                                 //outputBuffer FULL
  47:src/Console.cpp ****     }
  48:src/Console.cpp ****     inputBuffer[inputTail] =  c;
 284              		.loc 1 48 5 is_stmt 1
 285              		.loc 1 48 28 is_stmt 0
 286 01c8 97060000 		lla	a3,.LANCHOR0
 286      93860600 
 287 01d0 3387E600 		add	a4,a3,a4
 288 01d4 2300A740 		sb	a0,1024(a4)
  49:src/Console.cpp ****     inputTail = (inputTail+1) % BUFFER_SIZE;
 289              		.loc 1 49 5 is_stmt 1
 290              		.loc 1 49 15 is_stmt 0
 291 01d8 17070000 		sd	a5,_ZN9myConsole9inputTailE,a4
 291      2330F700 
  50:src/Console.cpp ****     semInput->signal();
 292              		.loc 1 50 5 is_stmt 1
 293              		.loc 1 50 21 is_stmt 0
 294 01e0 17050000 		ld	a0,_ZN9myConsole8semInputE
 294      03350500 
 295              	.LVL16:
 296 01e8 97000000 		call	_ZN11mySemaphore6signalEv
 296      E7800000 
 297              	.LVL17:
  51:src/Console.cpp **** }
 298              		.loc 1 51 1
 299 01f0 83308100 		ld	ra,8(sp)
 300              		.cfi_restore 1
 301 01f4 03340100 		ld	s0,0(sp)
 302              		.cfi_restore 8
 303              		.cfi_def_cfa 2, 16
 304 01f8 13010101 		addi	sp,sp,16
 305              		.cfi_def_cfa_offset 0
 306 01fc 67800000 		jr	ra
 307              	.LVL18:
 308              	.L21:
 309 0200 67800000 		ret
 310              		.cfi_endproc
 311              	.LFE35:
 313              		.align	2
 314              		.globl	_ZN9myConsole11getCOutBuffEv
 316              	_ZN9myConsole11getCOutBuffEv:
 317              	.LFB36:
  52:src/Console.cpp **** 
  53:src/Console.cpp **** int myConsole::getCOutBuff() {
 318              		.loc 1 53 30 is_stmt 1
 319              		.cfi_startproc
 320 0204 130101FF 		addi	sp,sp,-16
 321              		.cfi_def_cfa_offset 16
GAS LISTING /tmp/ccPQbcDs.s 			page 8


 322 0208 23341100 		sd	ra,8(sp)
 323 020c 23308100 		sd	s0,0(sp)
 324              		.cfi_offset 1, -8
 325              		.cfi_offset 8, -16
 326 0210 13040101 		addi	s0,sp,16
 327              		.cfi_def_cfa 8, 0
  54:src/Console.cpp ****     semOutput->wait();
 328              		.loc 1 54 5
 329              		.loc 1 54 20 is_stmt 0
 330 0214 93050000 		li	a1,0
 331 0218 17050000 		ld	a0,_ZN9myConsole9semOutputE
 331      03350500 
 332 0220 97000000 		call	_ZN11mySemaphore4waitEm
 332      E7800000 
 333              	.LVL19:
  55:src/Console.cpp ****     if (outputHead == outputTail) {
 334              		.loc 1 55 5 is_stmt 1
 335              		.loc 1 55 20 is_stmt 0
 336 0228 97070000 		ld	a5,_ZN9myConsole10outputHeadE
 336      83B70700 
 337 0230 17070000 		ld	a4,_ZN9myConsole10outputTailE
 337      03370700 
 338              		.loc 1 55 5
 339 0238 638AE702 		beq	a5,a4,.L26
  56:src/Console.cpp ****         return -1;                  //ERROR code
  57:src/Console.cpp ****     }
  58:src/Console.cpp ****     char res = outputBuffer[outputHead];
 340              		.loc 1 58 5 is_stmt 1
 341              		.loc 1 58 10 is_stmt 0
 342 023c 17070000 		lla	a4,.LANCHOR0
 342      13070700 
 343 0244 3307F700 		add	a4,a4,a5
 344              	.LVL20:
  59:src/Console.cpp ****     outputHead = (outputHead+1) % BUFFER_SIZE;
 345              		.loc 1 59 5 is_stmt 1
 346              		.loc 1 59 29 is_stmt 0
 347 0248 93871700 		addi	a5,a5,1
 348              		.loc 1 59 33
 349 024c 93F7F73F 		andi	a5,a5,1023
 350              		.loc 1 59 16
 351 0250 97060000 		sd	a5,_ZN9myConsole10outputHeadE,a3
 351      23B0F600 
  60:src/Console.cpp ****     return res;
 352              		.loc 1 60 5 is_stmt 1
 353              		.loc 1 60 12 is_stmt 0
 354 0258 03450700 		lbu	a0,0(a4)
 355              	.LVL21:
 356              	.L25:
  61:src/Console.cpp **** }
 357              		.loc 1 61 1
 358 025c 83308100 		ld	ra,8(sp)
 359              		.cfi_remember_state
 360              		.cfi_restore 1
 361 0260 03340100 		ld	s0,0(sp)
 362              		.cfi_restore 8
 363              		.cfi_def_cfa 2, 16
 364 0264 13010101 		addi	sp,sp,16
GAS LISTING /tmp/ccPQbcDs.s 			page 9


 365              		.cfi_def_cfa_offset 0
 366 0268 67800000 		jr	ra
 367              	.L26:
 368              		.cfi_restore_state
  56:src/Console.cpp ****     }
 369              		.loc 1 56 17
 370 026c 1305F0FF 		li	a0,-1
 371 0270 6FF0DFFE 		j	.L25
 372              		.cfi_endproc
 373              	.LFE36:
 375              		.align	2
 376              		.globl	_ZN9myConsole16sendCharacterOutEPv
 378              	_ZN9myConsole16sendCharacterOutEPv:
 379              	.LFB37:
  62:src/Console.cpp **** 
  63:src/Console.cpp **** 
  64:src/Console.cpp **** void myConsole::sendCharacterOut(void*) {       //console thread running
 380              		.loc 1 64 41 is_stmt 1
 381              		.cfi_startproc
 382 0274 130101FF 		addi	sp,sp,-16
 383              		.cfi_def_cfa_offset 16
 384 0278 23341100 		sd	ra,8(sp)
 385 027c 23308100 		sd	s0,0(sp)
 386              		.cfi_offset 1, -8
 387              		.cfi_offset 8, -16
 388 0280 13040101 		addi	s0,sp,16
 389              		.cfi_def_cfa 8, 0
 390 0284 6F008001 		j	.L29
 391              	.L34:
 392              	.LBB2:
  65:src/Console.cpp ****     while (1) {
  66:src/Console.cpp ****         if (myConsole::stopConsole && numberOfCharToSend == 0 && numberOfCharToGet == 0) {   //outB
  67:src/Console.cpp ****             thread_exit();
 393              		.loc 1 67 13
 394              		.loc 1 67 24 is_stmt 0
 395 0288 97000000 		call	_Z11thread_exitv
 395      E7800000 
 396              	.LVL22:
 397 0290 6F000003 		j	.L30
 398              	.LVL23:
 399              	.L31:
 400              	.LBB3:
  68:src/Console.cpp ****         }
  69:src/Console.cpp ****         char console_status = *((char*) CONSOLE_STATUS);
  70:src/Console.cpp ****         if (numberOfCharToSend>0 && (console_status & CONSOLE_TX_STATUS_BIT)) {
  71:src/Console.cpp ****             char character = putcHelper();
  72:src/Console.cpp ****             char* tmp = (char*) CONSOLE_TX_DATA;
  73:src/Console.cpp ****             *tmp = character;
  74:src/Console.cpp ****             numberOfCharToSend--;
  75:src/Console.cpp ****         } else {
  76:src/Console.cpp ****             thread_dispatch();
 401              		.loc 1 76 13 is_stmt 1
 402              		.loc 1 76 28 is_stmt 0
 403 0294 97000000 		call	_Z15thread_dispatchv
 403      E7800000 
 404              	.LVL24:
 405              	.L29:
GAS LISTING /tmp/ccPQbcDs.s 			page 10


 406              	.LBE3:
 407              	.LBE2:
  65:src/Console.cpp ****     while (1) {
 408              		.loc 1 65 5 is_stmt 1
 409              	.LBB6:
  66:src/Console.cpp ****             thread_exit();
 410              		.loc 1 66 9
 411 029c 97070000 		lbu	a5,_ZN9myConsole11stopConsoleE
 411      83C70700 
 412 02a4 638E0700 		beqz	a5,.L30
  66:src/Console.cpp ****             thread_exit();
 413              		.loc 1 66 58 is_stmt 0 discriminator 1
 414 02a8 97070000 		ld	a5,_ZN9myConsole18numberOfCharToSendE
 414      83B70700 
  66:src/Console.cpp ****             thread_exit();
 415              		.loc 1 66 36 discriminator 1
 416 02b0 63980700 		bnez	a5,.L30
  66:src/Console.cpp ****             thread_exit();
 417              		.loc 1 66 84 discriminator 2
 418 02b4 97070000 		ld	a5,_ZN9myConsole17numberOfCharToGetE
 418      83B70700 
  66:src/Console.cpp ****             thread_exit();
 419              		.loc 1 66 63 discriminator 2
 420 02bc E38607FC 		beqz	a5,.L34
 421              	.L30:
  69:src/Console.cpp ****         if (numberOfCharToSend>0 && (console_status & CONSOLE_TX_STATUS_BIT)) {
 422              		.loc 1 69 9 is_stmt 1
  69:src/Console.cpp ****         if (numberOfCharToSend>0 && (console_status & CONSOLE_TX_STATUS_BIT)) {
 423              		.loc 1 69 31 is_stmt 0
 424 02c0 97070000 		ld	a5,CONSOLE_STATUS
 424      83B70700 
  69:src/Console.cpp ****         if (numberOfCharToSend>0 && (console_status & CONSOLE_TX_STATUS_BIT)) {
 425              		.loc 1 69 14
 426 02c8 83C70700 		lbu	a5,0(a5)
 427              	.LVL25:
  70:src/Console.cpp ****             char character = putcHelper();
 428              		.loc 1 70 9 is_stmt 1
 429              	.LBB5:
  70:src/Console.cpp ****             char character = putcHelper();
 430              		.loc 1 70 31 is_stmt 0
 431 02cc 17070000 		ld	a4,_ZN9myConsole18numberOfCharToSendE
 431      03370700 
  70:src/Console.cpp ****             char character = putcHelper();
 432              		.loc 1 70 9
 433 02d4 E30007FC 		beqz	a4,.L31
  70:src/Console.cpp ****             char character = putcHelper();
 434              		.loc 1 70 34 discriminator 1
 435 02d8 93F70702 		andi	a5,a5,32
 436              	.LVL26:
 437 02dc E38C07FA 		beqz	a5,.L31
 438              	.LBB4:
  71:src/Console.cpp ****             char* tmp = (char*) CONSOLE_TX_DATA;
 439              		.loc 1 71 13 is_stmt 1
  71:src/Console.cpp ****             char* tmp = (char*) CONSOLE_TX_DATA;
 440              		.loc 1 71 40 is_stmt 0
 441 02e0 97000000 		call	_Z10putcHelperv
 441      E7800000 
GAS LISTING /tmp/ccPQbcDs.s 			page 11


 442              	.LVL27:
  72:src/Console.cpp ****             *tmp = character;
 443              		.loc 1 72 13 is_stmt 1
  72:src/Console.cpp ****             *tmp = character;
 444              		.loc 1 72 19 is_stmt 0
 445 02e8 97070000 		ld	a5,CONSOLE_TX_DATA
 445      83B70700 
 446              	.LVL28:
  73:src/Console.cpp ****             numberOfCharToSend--;
 447              		.loc 1 73 13 is_stmt 1
  73:src/Console.cpp ****             numberOfCharToSend--;
 448              		.loc 1 73 18 is_stmt 0
 449 02f0 2380A700 		sb	a0,0(a5)
  74:src/Console.cpp ****         } else {
 450              		.loc 1 74 13 is_stmt 1
  74:src/Console.cpp ****         } else {
 451              		.loc 1 74 31 is_stmt 0
 452 02f4 17070000 		lla	a4,_ZN9myConsole18numberOfCharToSendE
 452      13070700 
 453 02fc 83370700 		ld	a5,0(a4)
 454              	.LVL29:
 455 0300 9387F7FF 		addi	a5,a5,-1
 456 0304 2330F700 		sd	a5,0(a4)
 457              	.LBE4:
  74:src/Console.cpp ****         } else {
 458              		.loc 1 74 33
 459 0308 6FF05FF9 		j	.L29
 460              	.LBE5:
 461              	.LBE6:
 462              		.cfi_endproc
 463              	.LFE37:
 465              		.align	2
 466              		.globl	_ZN9myConsole11prepareGetCEv
 468              	_ZN9myConsole11prepareGetCEv:
 469              	.LFB38:
  77:src/Console.cpp ****         }
  78:src/Console.cpp ****     }
  79:src/Console.cpp **** }
  80:src/Console.cpp **** 
  81:src/Console.cpp **** void myConsole::prepareGetC() {
 470              		.loc 1 81 31 is_stmt 1
 471              		.cfi_startproc
 472 030c 130101FE 		addi	sp,sp,-32
 473              		.cfi_def_cfa_offset 32
 474 0310 233C1100 		sd	ra,24(sp)
 475 0314 23388100 		sd	s0,16(sp)
 476 0318 23349100 		sd	s1,8(sp)
 477              		.cfi_offset 1, -8
 478              		.cfi_offset 8, -16
 479              		.cfi_offset 9, -24
 480 031c 13040102 		addi	s0,sp,32
 481              		.cfi_def_cfa 8, 0
  82:src/Console.cpp ****     numberOfCharToGet++;
 482              		.loc 1 82 5
 483              		.loc 1 82 22 is_stmt 0
 484 0320 17070000 		lla	a4,_ZN9myConsole17numberOfCharToGetE
 484      13070700 
GAS LISTING /tmp/ccPQbcDs.s 			page 12


 485 0328 83370700 		ld	a5,0(a4)
 486 032c 93871700 		addi	a5,a5,1
 487 0330 2330F700 		sd	a5,0(a4)
  83:src/Console.cpp ****     char res = getCInBuff();
 488              		.loc 1 83 5 is_stmt 1
 489              		.loc 1 83 26 is_stmt 0
 490 0334 97000000 		call	_ZN9myConsole10getCInBuffEv
 490      E7800000 
 491              	.LVL30:
 492              		.loc 1 83 27
 493 033c 9374F50F 		andi	s1,a0,0xff
 494              	.LVL31:
  84:src/Console.cpp **** 
  85:src/Console.cpp ****     if (res != 0x01b && res != 13) {               //ESCAPE
 495              		.loc 1 85 5 is_stmt 1
 496 0340 9307B001 		li	a5,27
 497 0344 6386F400 		beq	s1,a5,.L36
 498              		.loc 1 85 22 is_stmt 0 discriminator 1
 499 0348 9307D000 		li	a5,13
 500 034c 6396F402 		bne	s1,a5,.L39
 501              	.L36:
  86:src/Console.cpp ****         putCOutBuff(res);
  87:src/Console.cpp ****     }
  88:src/Console.cpp ****     if(res==13) {                   //carrige return
 502              		.loc 1 88 5 is_stmt 1
 503 0350 9307D000 		li	a5,13
 504 0354 638AF402 		beq	s1,a5,.L40
 505              	.L37:
  89:src/Console.cpp ****         putCOutBuff(13);
  90:src/Console.cpp ****         putCOutBuff(10);        //line feed
  91:src/Console.cpp ****     }
  92:src/Console.cpp **** 
  93:src/Console.cpp ****     __asm__ volatile("mv a0, %0" : :"r"((uint64)res));
 506              		.loc 1 93 5
 507              		.loc 1 93 54 is_stmt 0
 508              	 #APP
 509              	# 93 "src/Console.cpp" 1
  94              	
  95:src/Console.cpp ****     //save a0 on old context stack
  96:src/Console.cpp ****     Riscv::setA0onStack();
 510              		mv a0, s1
 511              	# 0 "" 2
 512              		.loc 1 96 5 is_stmt 1
 513              		.loc 1 96 24 is_stmt 0
 514              	 #NO_APP
 515 035c 97000000 		call	_ZN5Riscv12setA0onStackEv
 515      E7800000 
 516              	.LVL32:
  97:src/Console.cpp **** }
 517              		.loc 1 97 1
 518 0364 83308101 		ld	ra,24(sp)
 519              		.cfi_remember_state
 520              		.cfi_restore 1
 521 0368 03340101 		ld	s0,16(sp)
 522              		.cfi_restore 8
 523              		.cfi_def_cfa 2, 32
 524 036c 83348100 		ld	s1,8(sp)
GAS LISTING /tmp/ccPQbcDs.s 			page 13


 525              		.cfi_restore 9
 526              	.LVL33:
 527 0370 13010102 		addi	sp,sp,32
 528              		.cfi_def_cfa_offset 0
 529 0374 67800000 		jr	ra
 530              	.LVL34:
 531              	.L39:
 532              		.cfi_restore_state
  86:src/Console.cpp ****     }
 533              		.loc 1 86 9 is_stmt 1
  86:src/Console.cpp ****     }
 534              		.loc 1 86 20 is_stmt 0
 535 0378 13850400 		mv	a0,s1
 536 037c 97000000 		call	_ZN9myConsole11putCOutBuffEc
 536      E7800000 
 537              	.LVL35:
 538 0384 6FF0DFFC 		j	.L36
 539              	.L40:
  89:src/Console.cpp ****         putCOutBuff(10);        //line feed
 540              		.loc 1 89 9 is_stmt 1
  89:src/Console.cpp ****         putCOutBuff(10);        //line feed
 541              		.loc 1 89 20 is_stmt 0
 542 0388 1305D000 		li	a0,13
 543 038c 97000000 		call	_ZN9myConsole11putCOutBuffEc
 543      E7800000 
 544              	.LVL36:
  90:src/Console.cpp ****     }
 545              		.loc 1 90 9 is_stmt 1
  90:src/Console.cpp ****     }
 546              		.loc 1 90 20 is_stmt 0
 547 0394 1305A000 		li	a0,10
 548 0398 97000000 		call	_ZN9myConsole11putCOutBuffEc
 548      E7800000 
 549              	.LVL37:
 550 03a0 6FF09FFB 		j	.L37
 551              		.cfi_endproc
 552              	.LFE38:
 554              		.align	2
 555              		.globl	_ZN9myConsole11preparePutCEc
 557              	_ZN9myConsole11preparePutCEc:
 558              	.LFB39:
  98:src/Console.cpp **** 
  99:src/Console.cpp **** void myConsole::preparePutC(char c) {
 559              		.loc 1 99 37 is_stmt 1
 560              		.cfi_startproc
 561              	.LVL38:
 562 03a4 130101FF 		addi	sp,sp,-16
 563              		.cfi_def_cfa_offset 16
 564 03a8 23341100 		sd	ra,8(sp)
 565 03ac 23308100 		sd	s0,0(sp)
 566              		.cfi_offset 1, -8
 567              		.cfi_offset 8, -16
 568 03b0 13040101 		addi	s0,sp,16
 569              		.cfi_def_cfa 8, 0
 100:src/Console.cpp ****     // put char in outputBuffer
 101:src/Console.cpp ****     putCOutBuff(c);
 570              		.loc 1 101 5
GAS LISTING /tmp/ccPQbcDs.s 			page 14


 571              		.loc 1 101 16 is_stmt 0
 572 03b4 97000000 		call	_ZN9myConsole11putCOutBuffEc
 572      E7800000 
 573              	.LVL39:
 102:src/Console.cpp **** }
 574              		.loc 1 102 1
 575 03bc 83308100 		ld	ra,8(sp)
 576              		.cfi_restore 1
 577 03c0 03340100 		ld	s0,0(sp)
 578              		.cfi_restore 8
 579              		.cfi_def_cfa 2, 16
 580 03c4 13010101 		addi	sp,sp,16
 581              		.cfi_def_cfa_offset 0
 582 03c8 67800000 		jr	ra
 583              		.cfi_endproc
 584              	.LFE39:
 586              		.globl	_ZN9myConsole11stopConsoleE
 587              		.globl	_ZN9myConsole17numberOfCharToGetE
 588              		.globl	_ZN9myConsole18numberOfCharToSendE
 589              		.globl	_ZN9myConsole12outputBufferE
 590              		.globl	_ZN9myConsole11inputBufferE
 591              		.globl	_ZN9myConsole10outputTailE
 592              		.globl	_ZN9myConsole10outputHeadE
 593              		.globl	_ZN9myConsole9inputTailE
 594              		.globl	_ZN9myConsole9inputHeadE
 595              		.globl	_ZN9myConsole9semOutputE
 596              		.globl	_ZN9myConsole8semInputE
 597              		.bss
 598              		.align	3
 599              		.set	.LANCHOR0,. + 0
 602              	_ZN9myConsole12outputBufferE:
 603 0000 00000000 		.zero	1024
 603      00000000 
 603      00000000 
 603      00000000 
 603      00000000 
 606              	_ZN9myConsole11inputBufferE:
 607 0400 00000000 		.zero	1024
 607      00000000 
 607      00000000 
 607      00000000 
 607      00000000 
 608              		.section	.sbss,"aw",@nobits
 609              		.align	3
 612              	_ZN9myConsole11stopConsoleE:
 613 0000 00       		.zero	1
 614 0001 00000000 		.zero	7
 614      000000
 617              	_ZN9myConsole17numberOfCharToGetE:
 618 0008 00000000 		.zero	8
 618      00000000 
 621              	_ZN9myConsole18numberOfCharToSendE:
 622 0010 00000000 		.zero	8
 622      00000000 
 625              	_ZN9myConsole10outputTailE:
 626 0018 00000000 		.zero	8
 626      00000000 
GAS LISTING /tmp/ccPQbcDs.s 			page 15


 629              	_ZN9myConsole10outputHeadE:
 630 0020 00000000 		.zero	8
 630      00000000 
 633              	_ZN9myConsole9inputTailE:
 634 0028 00000000 		.zero	8
 634      00000000 
 637              	_ZN9myConsole9inputHeadE:
 638 0030 00000000 		.zero	8
 638      00000000 
 641              	_ZN9myConsole9semOutputE:
 642 0038 00000000 		.zero	8
 642      00000000 
 645              	_ZN9myConsole8semInputE:
 646 0040 00000000 		.zero	8
 646      00000000 
 647              		.text
 648              	.Letext0:
 649              		.file 2 "src/../h/../lib/hw.h"
 650              		.file 3 "src/../h/../h/../h/TCB.hpp"
 651              		.file 4 "src/../h/../h/Semaphore.hpp"
 652              		.file 5 "src/../h/../h/../h/list.hpp"
 653              		.file 6 "src/../h/Console.hpp"
 654              		.file 7 "src/../h/Riscv.hpp"
 655              		.file 8 "src/../h/../h/syscall_c.hpp"
 4283              		.align	3
 4286              	DW.ref.__gxx_personality_v0:
 4287 0000 00000000 		.dword	__gxx_personality_v0
 4287      00000000 
 4288              		.ident	"GCC: () 9.3.0"
GAS LISTING /tmp/ccPQbcDs.s 			page 16

