GAS LISTING /tmp/ccUPyUn6.s 			page 1


   1              		.file	"main.cpp"
   2              		.option nopic
   3              		.option norelax
   4              		.attribute arch, "rv64i2p0_m2p0_a2p0"
   5              		.attribute unaligned_access, 0
   6              		.attribute stack_align, 16
   7              		.text
   8              	.Ltext0:
   9              		.align	2
  10              		.globl	_Z13exit_emulatorv
  12              	_Z13exit_emulatorv:
  13              	.LFB34:
  14              		.file 1 "src/main.cpp"
   1:src/main.cpp  **** 
   2:src/main.cpp  **** #include "../h/TCB.hpp"
   3:src/main.cpp  **** #include "../h/Console.hpp"
   4:src/main.cpp  **** #include "../test/printing.hpp"
   5:src/main.cpp  **** #include "../h/Riscv.hpp"
   6:src/main.cpp  **** #include "../h/MemoryAllocator.hpp"
   7:src/main.cpp  **** #include "../h/syscall_c.hpp"
   8:src/main.cpp  **** #include "../h/syscall_cpp.hpp"
   9:src/main.cpp  **** #include "../test/userMain.hpp"
  10:src/main.cpp  **** 
  11:src/main.cpp  **** void exit_emulator() {
  15              		.loc 1 11 22
  16              		.cfi_startproc
  17 0000 130101FF 		addi	sp,sp,-16
  18              		.cfi_def_cfa_offset 16
  19 0004 23348100 		sd	s0,8(sp)
  20              		.cfi_offset 8, -8
  21 0008 13040101 		addi	s0,sp,16
  22              		.cfi_def_cfa 8, 0
  12:src/main.cpp  ****     __asm__ volatile("li a0, 0x5555 \n"
  23              		.loc 1 12 5
  13:src/main.cpp  ****                      "li a0, 0x100000 \n"
  14:src/main.cpp  ****                      "sw a0, 0(a1)");
  24              		.loc 1 14 37 is_stmt 0
  25              	 #APP
  26              	# 14 "src/main.cpp" 1
  15 0014 37051000 	}
  16 0018 23A0A500 	
  17              	void initialization() {
  15:src/main.cpp  **** 
  27              		li a0, 0x5555 
  28              	li a0, 0x100000 
  29              	sw a0, 0(a1)
  30              	# 0 "" 2
  31              		.loc 1 15 1
  32              	 #NO_APP
  33 001c 03348100 		ld	s0,8(sp)
  34              		.cfi_restore 8
  35              		.cfi_def_cfa 2, 16
  36 0020 13010101 		addi	sp,sp,16
  37              		.cfi_def_cfa_offset 0
  38 0024 67800000 		jr	ra
  39              		.cfi_endproc
  40              	.LFE34:
GAS LISTING /tmp/ccUPyUn6.s 			page 2


  42              		.align	2
  43              		.globl	_Z14initializationv
  45              	_Z14initializationv:
  46              	.LFB35:
  47              		.loc 1 17 23 is_stmt 1
  48              		.cfi_startproc
  49 0028 130101FF 		addi	sp,sp,-16
  50              		.cfi_def_cfa_offset 16
  51 002c 23341100 		sd	ra,8(sp)
  52 0030 23308100 		sd	s0,0(sp)
  53              		.cfi_offset 1, -8
  54              		.cfi_offset 8, -16
  55 0034 13040101 		addi	s0,sp,16
  56              		.cfi_def_cfa 8, 0
  18:src/main.cpp  ****     //set Trap routine
  19:src/main.cpp  ****     Riscv::w_stvec((uint64) &Riscv::supervisorTrap);
  57              		.loc 1 19 5
  58              		.loc 1 19 19 is_stmt 0
  59 0038 97070000 		lla	a5,_ZN5Riscv14supervisorTrapEv
  59      93870700 
  60              	.LVL0:
  61              	.LBB6:
  62              	.LBB7:
  63              		.file 2 "src/../h/Riscv.hpp"
   1:src/../h/Riscv.hpp **** 
   2:src/../h/Riscv.hpp **** #ifndef PROJECT_BASE_RISCV_HPP
   3:src/../h/Riscv.hpp **** #define PROJECT_BASE_RISCV_HPP
   4:src/../h/Riscv.hpp **** 
   5:src/../h/Riscv.hpp **** #include "../lib/hw.h"
   6:src/../h/Riscv.hpp **** #include "../h/TCB.hpp"
   7:src/../h/Riscv.hpp **** 
   8:src/../h/Riscv.hpp **** class Riscv
   9:src/../h/Riscv.hpp **** {
  10:src/../h/Riscv.hpp **** public:
  11:src/../h/Riscv.hpp ****     static int brojac;  //za takt
  12:src/../h/Riscv.hpp **** 
  13:src/../h/Riscv.hpp ****     // pop sstatus.spp and sstatus.spie bits (has to be a non-inline function) - da bi se pozivala,
  14:src/../h/Riscv.hpp ****     static void popSppSpie();
  15:src/../h/Riscv.hpp **** 
  16:src/../h/Riscv.hpp ****     //podmetanje a0, na stek (sacuvan kontekst)
  17:src/../h/Riscv.hpp ****     static void setA0onStack();
  18:src/../h/Riscv.hpp **** 
  19:src/../h/Riscv.hpp ****     // push x3..x31 registers onto stack
  20:src/../h/Riscv.hpp ****     static void pushRegisters();        //mangling jer ih definisemo u asembleru
  21:src/../h/Riscv.hpp **** 
  22:src/../h/Riscv.hpp ****     // pop x3..x31 registers onto stack
  23:src/../h/Riscv.hpp ****     static void popRegisters();
  24:src/../h/Riscv.hpp **** 
  25:src/../h/Riscv.hpp ****     // read register scause
  26:src/../h/Riscv.hpp ****     static uint64 r_scause();
  27:src/../h/Riscv.hpp **** 
  28:src/../h/Riscv.hpp ****     // write register scause
  29:src/../h/Riscv.hpp ****     static void w_scause(uint64 scause);
  30:src/../h/Riscv.hpp **** 
  31:src/../h/Riscv.hpp ****     // read register sepc
  32:src/../h/Riscv.hpp ****     static uint64 r_sepc();
  33:src/../h/Riscv.hpp **** 
GAS LISTING /tmp/ccUPyUn6.s 			page 3


  34:src/../h/Riscv.hpp ****     // write register sepc
  35:src/../h/Riscv.hpp ****     static void w_sepc(uint64 sepc);
  36:src/../h/Riscv.hpp **** 
  37:src/../h/Riscv.hpp ****     // read register stvec
  38:src/../h/Riscv.hpp ****     static uint64 r_stvec();
  39:src/../h/Riscv.hpp **** 
  40:src/../h/Riscv.hpp ****     // write register stvec
  41:src/../h/Riscv.hpp ****     static void w_stvec(uint64 stvec);
  42:src/../h/Riscv.hpp **** 
  43:src/../h/Riscv.hpp ****     // read register stval
  44:src/../h/Riscv.hpp ****     static uint64 r_stval();
  45:src/../h/Riscv.hpp **** 
  46:src/../h/Riscv.hpp ****     // write register stval
  47:src/../h/Riscv.hpp ****     static void w_stval(uint64 stval);
  48:src/../h/Riscv.hpp **** 
  49:src/../h/Riscv.hpp ****     enum BitMaskSip
  50:src/../h/Riscv.hpp ****     {
  51:src/../h/Riscv.hpp ****         SIP_SSIP = (1 << 1),
  52:src/../h/Riscv.hpp ****         SIP_STIP = (1 << 5),
  53:src/../h/Riscv.hpp ****         SIP_SEIP = (1 << 9),
  54:src/../h/Riscv.hpp ****     };
  55:src/../h/Riscv.hpp **** 
  56:src/../h/Riscv.hpp ****     // mask set register sip
  57:src/../h/Riscv.hpp ****     static void ms_sip(uint64 mask);
  58:src/../h/Riscv.hpp **** 
  59:src/../h/Riscv.hpp ****     // mask clear register sip
  60:src/../h/Riscv.hpp ****     static void mc_sip(uint64 mask);
  61:src/../h/Riscv.hpp **** 
  62:src/../h/Riscv.hpp ****     // read register sip
  63:src/../h/Riscv.hpp ****     static uint64 r_sip();
  64:src/../h/Riscv.hpp **** 
  65:src/../h/Riscv.hpp ****     // write register sip
  66:src/../h/Riscv.hpp ****     static void w_sip(uint64 sip);
  67:src/../h/Riscv.hpp **** 
  68:src/../h/Riscv.hpp ****     enum BitMaskSstatus
  69:src/../h/Riscv.hpp ****     {
  70:src/../h/Riscv.hpp ****         SSTATUS_SIE = (1 << 1),
  71:src/../h/Riscv.hpp ****         SSTATUS_SPIE = (1 << 5),
  72:src/../h/Riscv.hpp ****         SSTATUS_SPP = (1 << 8),
  73:src/../h/Riscv.hpp ****     };
  74:src/../h/Riscv.hpp **** 
  75:src/../h/Riscv.hpp ****     // mask set register sstatus
  76:src/../h/Riscv.hpp ****     static void ms_sstatus(uint64 mask);
  77:src/../h/Riscv.hpp **** 
  78:src/../h/Riscv.hpp ****     // mask clear register sstatus
  79:src/../h/Riscv.hpp ****     static void mc_sstatus(uint64 mask);
  80:src/../h/Riscv.hpp **** 
  81:src/../h/Riscv.hpp ****     // read register sstatus
  82:src/../h/Riscv.hpp ****     static uint64 r_sstatus();
  83:src/../h/Riscv.hpp **** 
  84:src/../h/Riscv.hpp ****     // write register sstatus
  85:src/../h/Riscv.hpp ****     static void w_sstatus(uint64 sstatus);
  86:src/../h/Riscv.hpp **** 
  87:src/../h/Riscv.hpp ****     // supervisor trap
  88:src/../h/Riscv.hpp ****     static void supervisorTrap();       // is implemented in .S file
  89:src/../h/Riscv.hpp **** 
  90:src/../h/Riscv.hpp **** private:
GAS LISTING /tmp/ccUPyUn6.s 			page 4


  91:src/../h/Riscv.hpp ****     // CONSTANTS
  92:src/../h/Riscv.hpp ****     static const uint64 bntOne = 1UL << 63;
  93:src/../h/Riscv.hpp ****     static const uint64 bntZero = 0UL;
  94:src/../h/Riscv.hpp ****     static const uint64 timerInt = bntOne + 1UL;
  95:src/../h/Riscv.hpp ****     static const uint64 hwInt = bntOne + 9UL;
  96:src/../h/Riscv.hpp ****     static const uint64 opInt = bntZero + 2UL;
  97:src/../h/Riscv.hpp ****     static const uint64 addrRdInt = bntZero + 5UL;
  98:src/../h/Riscv.hpp ****     static const uint64 addrWrInt = bntZero + 7UL;
  99:src/../h/Riscv.hpp ****     static const uint64 ecallUsrInt = bntZero + 8UL;
 100:src/../h/Riscv.hpp ****     static const uint64 ecallSysInt = bntZero + 9UL;
 101:src/../h/Riscv.hpp **** 
 102:src/../h/Riscv.hpp **** 
 103:src/../h/Riscv.hpp ****     // supervisor trap handler
 104:src/../h/Riscv.hpp ****     static void handleSupervisorTrap();
 105:src/../h/Riscv.hpp **** 
 106:src/../h/Riscv.hpp ****     static void changePrivMode();
 107:src/../h/Riscv.hpp **** 
 108:src/../h/Riscv.hpp ****     friend class mySemaphore;
 109:src/../h/Riscv.hpp ****     friend class TCB;
 110:src/../h/Riscv.hpp **** 
 111:src/../h/Riscv.hpp **** };
 112:src/../h/Riscv.hpp **** 
 113:src/../h/Riscv.hpp **** inline uint64 Riscv::r_scause()
 114:src/../h/Riscv.hpp **** {
 115:src/../h/Riscv.hpp ****     uint64 volatile scause;
 116:src/../h/Riscv.hpp ****     __asm__ volatile ("csrr %[scause], scause" : [scause] "=r"(scause));
 117:src/../h/Riscv.hpp ****     return scause;
 118:src/../h/Riscv.hpp **** }
 119:src/../h/Riscv.hpp **** 
 120:src/../h/Riscv.hpp **** inline void Riscv::w_scause(uint64 scause)
 121:src/../h/Riscv.hpp **** {
 122:src/../h/Riscv.hpp ****     __asm__ volatile ("csrw scause, %[scause]" : : [scause] "r"(scause));
 123:src/../h/Riscv.hpp **** }
 124:src/../h/Riscv.hpp **** 
 125:src/../h/Riscv.hpp **** inline uint64 Riscv::r_sepc()
 126:src/../h/Riscv.hpp **** {
 127:src/../h/Riscv.hpp ****     uint64 volatile sepc;
 128:src/../h/Riscv.hpp ****     __asm__ volatile ("csrr %[sepc], sepc" : [sepc] "=r"(sepc));
 129:src/../h/Riscv.hpp ****     return sepc;
 130:src/../h/Riscv.hpp **** }
 131:src/../h/Riscv.hpp **** 
 132:src/../h/Riscv.hpp **** inline void Riscv::w_sepc(uint64 sepc)
 133:src/../h/Riscv.hpp **** {
 134:src/../h/Riscv.hpp ****     __asm__ volatile ("csrw sepc, %[sepc]" : : [sepc] "r"(sepc));
 135:src/../h/Riscv.hpp **** }
 136:src/../h/Riscv.hpp **** 
 137:src/../h/Riscv.hpp **** inline uint64 Riscv::r_stvec()
 138:src/../h/Riscv.hpp **** {
 139:src/../h/Riscv.hpp ****     uint64 volatile stvec;
 140:src/../h/Riscv.hpp ****     __asm__ volatile ("csrr %[stvec], stvec" : [stvec] "=r"(stvec));
 141:src/../h/Riscv.hpp ****     return stvec;
 142:src/../h/Riscv.hpp **** }
 143:src/../h/Riscv.hpp **** 
 144:src/../h/Riscv.hpp **** inline void Riscv::w_stvec(uint64 stvec)
 145:src/../h/Riscv.hpp **** {
 146:src/../h/Riscv.hpp ****     __asm__ volatile ("csrw stvec, %[stvec]" : : [stvec] "r"(stvec));
  64              		.loc 2 146 5 is_stmt 1
GAS LISTING /tmp/ccUPyUn6.s 			page 5


  65              		.loc 2 146 69 is_stmt 0
  66              	 #APP
  67              	# 146 "src/../h/Riscv.hpp" 1
 147              	}
  68              		csrw stvec, a5
  69              	# 0 "" 2
  70              	.LVL1:
  71              	 #NO_APP
  72              	.LBE7:
  73              	.LBE6:
  20:src/main.cpp  ****     TCB::initTCB();
  74              		.loc 1 20 5 is_stmt 1
  75              		.loc 1 20 17 is_stmt 0
  76 0044 97000000 		call	_ZN3TCB7initTCBEv
  76      E7800000 
  77              	.LVL2:
  21:src/main.cpp  **** }
  78              		.loc 1 21 1
  79 004c 83308100 		ld	ra,8(sp)
  80              		.cfi_restore 1
  81 0050 03340100 		ld	s0,0(sp)
  82              		.cfi_restore 8
  83              		.cfi_def_cfa 2, 16
  84 0054 13010101 		addi	sp,sp,16
  85              		.cfi_def_cfa_offset 0
  86 0058 67800000 		jr	ra
  87              		.cfi_endproc
  88              	.LFE35:
  90              		.align	2
  91              		.globl	_Z3endv
  93              	_Z3endv:
  94              	.LFB36:
  22:src/main.cpp  **** 
  23:src/main.cpp  **** void end() {
  95              		.loc 1 23 12 is_stmt 1
  96              		.cfi_startproc
  97 005c 130101FF 		addi	sp,sp,-16
  98              		.cfi_def_cfa_offset 16
  99 0060 23341100 		sd	ra,8(sp)
 100 0064 23308100 		sd	s0,0(sp)
 101              		.cfi_offset 1, -8
 102              		.cfi_offset 8, -16
 103 0068 13040101 		addi	s0,sp,16
 104              		.cfi_def_cfa 8, 0
  24:src/main.cpp  ****     TCB::endTCB();
 105              		.loc 1 24 5
 106              		.loc 1 24 16 is_stmt 0
 107 006c 97000000 		call	_ZN3TCB6endTCBEv
 107      E7800000 
 108              	.LVL3:
  25:src/main.cpp  ****     //disable interrupts
  26:src/main.cpp  ****     Riscv::mc_sstatus(Riscv::SSTATUS_SIE);
 109              		.loc 1 26 5 is_stmt 1
 110              	.LBB8:
 111              	.LBB9:
 148:src/../h/Riscv.hpp **** 
 149:src/../h/Riscv.hpp **** inline uint64 Riscv::r_stval()
GAS LISTING /tmp/ccUPyUn6.s 			page 6


 150:src/../h/Riscv.hpp **** {
 151:src/../h/Riscv.hpp ****     uint64 volatile stval;
 152:src/../h/Riscv.hpp ****     __asm__ volatile ("csrr %[stval], stval" : [stval] "=r"(stval));
 153:src/../h/Riscv.hpp ****     return stval;
 154:src/../h/Riscv.hpp **** }
 155:src/../h/Riscv.hpp **** 
 156:src/../h/Riscv.hpp **** inline void Riscv::w_stval(uint64 stval)
 157:src/../h/Riscv.hpp **** {
 158:src/../h/Riscv.hpp ****     __asm__ volatile ("csrw stval, %[stval]" : : [stval] "r"(stval));
 159:src/../h/Riscv.hpp **** }
 160:src/../h/Riscv.hpp **** 
 161:src/../h/Riscv.hpp **** inline void Riscv::ms_sip(uint64 mask)
 162:src/../h/Riscv.hpp **** {
 163:src/../h/Riscv.hpp ****     __asm__ volatile ("csrs sip, %[mask]" : : [mask] "r"(mask));
 164:src/../h/Riscv.hpp **** }
 165:src/../h/Riscv.hpp **** 
 166:src/../h/Riscv.hpp **** inline void Riscv::mc_sip(uint64 mask)
 167:src/../h/Riscv.hpp **** {
 168:src/../h/Riscv.hpp ****     __asm__ volatile ("csrc sip, %[mask]" : : [mask] "r"(mask));
 169:src/../h/Riscv.hpp **** }
 170:src/../h/Riscv.hpp **** 
 171:src/../h/Riscv.hpp **** inline uint64 Riscv::r_sip()
 172:src/../h/Riscv.hpp **** {
 173:src/../h/Riscv.hpp ****     uint64 volatile sip;
 174:src/../h/Riscv.hpp ****     __asm__ volatile ("csrr %[sip], sip" : [sip] "=r"(sip));
 175:src/../h/Riscv.hpp ****     return sip;
 176:src/../h/Riscv.hpp **** }
 177:src/../h/Riscv.hpp **** 
 178:src/../h/Riscv.hpp **** inline void Riscv::w_sip(uint64 sip)
 179:src/../h/Riscv.hpp **** {
 180:src/../h/Riscv.hpp ****     __asm__ volatile ("csrw sip, %[sip]" : : [sip] "r"(sip));
 181:src/../h/Riscv.hpp **** }
 182:src/../h/Riscv.hpp **** 
 183:src/../h/Riscv.hpp **** inline void Riscv::ms_sstatus(uint64 mask)
 184:src/../h/Riscv.hpp **** {
 185:src/../h/Riscv.hpp ****     __asm__ volatile ("csrs sstatus, %[mask]" : : [mask] "r"(mask));
 186:src/../h/Riscv.hpp **** }
 187:src/../h/Riscv.hpp **** 
 188:src/../h/Riscv.hpp **** inline void Riscv::mc_sstatus(uint64 mask)
 189:src/../h/Riscv.hpp **** {
 190:src/../h/Riscv.hpp ****     __asm__ volatile ("csrc sstatus, %[mask]" : : [mask] "r"(mask));
 112              		.loc 2 190 5
 113              		.loc 2 190 68 is_stmt 0
 114 0074 93072000 		li	a5,2
 115              	 #APP
 116              	# 190 "src/../h/Riscv.hpp" 1
 191              	}
 117              		csrc sstatus, a5
 118              	# 0 "" 2
 119              	.LVL4:
 120              	 #NO_APP
 121              	.LBE9:
 122              	.LBE8:
  27:src/main.cpp  **** }
 123              		.loc 1 27 1
 124 007c 83308100 		ld	ra,8(sp)
 125              		.cfi_restore 1
GAS LISTING /tmp/ccUPyUn6.s 			page 7


 126 0080 03340100 		ld	s0,0(sp)
 127              		.cfi_restore 8
 128              		.cfi_def_cfa 2, 16
 129 0084 13010101 		addi	sp,sp,16
 130              		.cfi_def_cfa_offset 0
 131 0088 67800000 		jr	ra
 132              		.cfi_endproc
 133              	.LFE36:
 135              		.align	2
 136              		.globl	main
 138              	main:
 139              	.LFB37:
  28:src/main.cpp  **** 
  29:src/main.cpp  **** 
  30:src/main.cpp  **** int main() {
 140              		.loc 1 30 12 is_stmt 1
 141              		.cfi_startproc
 142 008c 130101FF 		addi	sp,sp,-16
 143              		.cfi_def_cfa_offset 16
 144 0090 23341100 		sd	ra,8(sp)
 145 0094 23308100 		sd	s0,0(sp)
 146              		.cfi_offset 1, -8
 147              		.cfi_offset 8, -16
 148 0098 13040101 		addi	s0,sp,16
 149              		.cfi_def_cfa 8, 0
  31:src/main.cpp  ****     initialization();
 150              		.loc 1 31 5
 151              		.loc 1 31 19 is_stmt 0
 152 009c 97000000 		call	_Z14initializationv
 152      E7800000 
 153              	.LVL5:
  32:src/main.cpp  ****     end();
 154              		.loc 1 32 5 is_stmt 1
 155              		.loc 1 32 8 is_stmt 0
 156 00a4 97000000 		call	_Z3endv
 156      E7800000 
 157              	.LVL6:
  33:src/main.cpp  ****     return 0;
 158              		.loc 1 33 5 is_stmt 1
  34:src/main.cpp  **** }
 159              		.loc 1 34 1 is_stmt 0
 160 00ac 13050000 		li	a0,0
 161 00b0 83308100 		ld	ra,8(sp)
 162              		.cfi_restore 1
 163 00b4 03340100 		ld	s0,0(sp)
 164              		.cfi_restore 8
 165              		.cfi_def_cfa 2, 16
 166 00b8 13010101 		addi	sp,sp,16
 167              		.cfi_def_cfa_offset 0
 168 00bc 67800000 		jr	ra
 169              		.cfi_endproc
 170              	.LFE37:
 172              	.Letext0:
 173              		.file 3 "src/../h/../lib/hw.h"
 174              		.file 4 "src/../h/TCB.hpp"
 175              		.file 5 "src/../h/../h/syscall_c.hpp"
GAS LISTING /tmp/ccUPyUn6.s 			page 8


DEFINED SYMBOLS
                            *ABS*:0000000000000000 main.cpp
     /tmp/ccUPyUn6.s:12     .text:0000000000000000 _Z13exit_emulatorv
     /tmp/ccUPyUn6.s:16     .text:0000000000000000 .L0 
     /tmp/ccUPyUn6.s:17     .text:0000000000000000 .L0 
     /tmp/ccUPyUn6.s:18     .text:0000000000000004 .L0 
     /tmp/ccUPyUn6.s:20     .text:0000000000000008 .L0 
     /tmp/ccUPyUn6.s:22     .text:000000000000000c .L0 
     /tmp/ccUPyUn6.s:24     .text:000000000000000c .L0 
        src/main.cpp:14     .text:000000000000000c .L0 
     /tmp/ccUPyUn6.s:33     .text:000000000000001c .L0 
     /tmp/ccUPyUn6.s:34     .text:0000000000000020 .L0 
     /tmp/ccUPyUn6.s:35     .text:0000000000000020 .L0 
     /tmp/ccUPyUn6.s:37     .text:0000000000000024 .L0 
     /tmp/ccUPyUn6.s:39     .text:0000000000000028 .L0 
     /tmp/ccUPyUn6.s:45     .text:0000000000000028 _Z14initializationv
     /tmp/ccUPyUn6.s:48     .text:0000000000000028 .L0 
     /tmp/ccUPyUn6.s:49     .text:0000000000000028 .L0 
     /tmp/ccUPyUn6.s:50     .text:000000000000002c .L0 
     /tmp/ccUPyUn6.s:53     .text:0000000000000034 .L0 
     /tmp/ccUPyUn6.s:54     .text:0000000000000034 .L0 
     /tmp/ccUPyUn6.s:56     .text:0000000000000038 .L0 
     /tmp/ccUPyUn6.s:58     .text:0000000000000038 .L0 
     /tmp/ccUPyUn6.s:59     .text:0000000000000038 .L0 
     /tmp/ccUPyUn6.s:65     .text:0000000000000040 .L0 
  src/../h/Riscv.hpp:146    .text:0000000000000040 .L0 
     /tmp/ccUPyUn6.s:75     .text:0000000000000044 .L0 
     /tmp/ccUPyUn6.s:76     .text:0000000000000044 .L0 
     /tmp/ccUPyUn6.s:79     .text:000000000000004c .L0 
     /tmp/ccUPyUn6.s:80     .text:0000000000000050 .L0 
     /tmp/ccUPyUn6.s:82     .text:0000000000000054 .L0 
     /tmp/ccUPyUn6.s:83     .text:0000000000000054 .L0 
     /tmp/ccUPyUn6.s:85     .text:0000000000000058 .L0 
     /tmp/ccUPyUn6.s:87     .text:000000000000005c .L0 
     /tmp/ccUPyUn6.s:93     .text:000000000000005c _Z3endv
     /tmp/ccUPyUn6.s:96     .text:000000000000005c .L0 
     /tmp/ccUPyUn6.s:97     .text:000000000000005c .L0 
     /tmp/ccUPyUn6.s:98     .text:0000000000000060 .L0 
     /tmp/ccUPyUn6.s:101    .text:0000000000000068 .L0 
     /tmp/ccUPyUn6.s:102    .text:0000000000000068 .L0 
     /tmp/ccUPyUn6.s:104    .text:000000000000006c .L0 
     /tmp/ccUPyUn6.s:106    .text:000000000000006c .L0 
     /tmp/ccUPyUn6.s:107    .text:000000000000006c .L0 
     /tmp/ccUPyUn6.s:112    .text:0000000000000074 .L0 
     /tmp/ccUPyUn6.s:113    .text:0000000000000074 .L0 
     /tmp/ccUPyUn6.s:114    .text:0000000000000074 .L0 
     /tmp/ccUPyUn6.s:124    .text:000000000000007c .L0 
     /tmp/ccUPyUn6.s:125    .text:0000000000000080 .L0 
     /tmp/ccUPyUn6.s:127    .text:0000000000000084 .L0 
     /tmp/ccUPyUn6.s:128    .text:0000000000000084 .L0 
     /tmp/ccUPyUn6.s:130    .text:0000000000000088 .L0 
     /tmp/ccUPyUn6.s:132    .text:000000000000008c .L0 
     /tmp/ccUPyUn6.s:138    .text:000000000000008c main
     /tmp/ccUPyUn6.s:141    .text:000000000000008c .L0 
     /tmp/ccUPyUn6.s:142    .text:000000000000008c .L0 
     /tmp/ccUPyUn6.s:143    .text:0000000000000090 .L0 
     /tmp/ccUPyUn6.s:146    .text:0000000000000098 .L0 
GAS LISTING /tmp/ccUPyUn6.s 			page 9


     /tmp/ccUPyUn6.s:147    .text:0000000000000098 .L0 
     /tmp/ccUPyUn6.s:149    .text:000000000000009c .L0 
     /tmp/ccUPyUn6.s:151    .text:000000000000009c .L0 
     /tmp/ccUPyUn6.s:152    .text:000000000000009c .L0 
     /tmp/ccUPyUn6.s:155    .text:00000000000000a4 .L0 
     /tmp/ccUPyUn6.s:156    .text:00000000000000a4 .L0 
     /tmp/ccUPyUn6.s:159    .text:00000000000000ac .L0 
     /tmp/ccUPyUn6.s:160    .text:00000000000000ac .L0 
     /tmp/ccUPyUn6.s:162    .text:00000000000000b4 .L0 
     /tmp/ccUPyUn6.s:164    .text:00000000000000b8 .L0 
     /tmp/ccUPyUn6.s:165    .text:00000000000000b8 .L0 
     /tmp/ccUPyUn6.s:167    .text:00000000000000bc .L0 
     /tmp/ccUPyUn6.s:169    .text:00000000000000c0 .L0 
     /tmp/ccUPyUn6.s:176    .text:00000000000000c0 .L0 
     /tmp/ccUPyUn6.s:59     .text:0000000000000038 .L0 
     /tmp/ccUPyUn6.s:1157   .debug_abbrev:0000000000000000 .Ldebug_abbrev0
     /tmp/ccUPyUn6.s:2223   .debug_str:000000000000066a .LASF142
     /tmp/ccUPyUn6.s:2079   .debug_str:0000000000000214 .LASF143
     /tmp/ccUPyUn6.s:2095   .debug_str:0000000000000291 .LASF144
     /tmp/ccUPyUn6.s:8      .text:0000000000000000 .Ltext0
     /tmp/ccUPyUn6.s:172    .text:00000000000000c0 .Letext0
     /tmp/ccUPyUn6.s:2005   .debug_line:0000000000000000 .Ldebug_line0
     /tmp/ccUPyUn6.s:2099   .debug_str:00000000000002c9 .LASF0
     /tmp/ccUPyUn6.s:2119   .debug_str:000000000000036a .LASF1
     /tmp/ccUPyUn6.s:2191   .debug_str:0000000000000587 .LASF2
     /tmp/ccUPyUn6.s:2197   .debug_str:00000000000005b5 .LASF4
     /tmp/ccUPyUn6.s:2107   .debug_str:00000000000002fb .LASF3
     /tmp/ccUPyUn6.s:2017   .debug_str:0000000000000063 .LASF5
     /tmp/ccUPyUn6.s:2171   .debug_str:00000000000004ff .LASF6
     /tmp/ccUPyUn6.s:2165   .debug_str:00000000000004c9 .LASF7
     /tmp/ccUPyUn6.s:2115   .debug_str:0000000000000344 .LASF8
     /tmp/ccUPyUn6.s:2083   .debug_str:0000000000000226 .LASF9
     /tmp/ccUPyUn6.s:2089   .debug_str:000000000000025e .LASF10
     /tmp/ccUPyUn6.s:2037   .debug_str:00000000000000e1 .LASF11
     /tmp/ccUPyUn6.s:2077   .debug_str:0000000000000205 .LASF12
     /tmp/ccUPyUn6.s:2049   .debug_str:0000000000000128 .LASF13
     /tmp/ccUPyUn6.s:2035   .debug_str:00000000000000d1 .LASF14
     /tmp/ccUPyUn6.s:2231   .debug_str:0000000000000756 .LASF15
     /tmp/ccUPyUn6.s:2065   .debug_str:0000000000000196 .LASF16
     /tmp/ccUPyUn6.s:2221   .debug_str:0000000000000654 .LASF17
     /tmp/ccUPyUn6.s:2235   .debug_str:0000000000000778 .LASF145
     /tmp/ccUPyUn6.s:2309   .debug_str:000000000000096d .LASF18
     /tmp/ccUPyUn6.s:2085   .debug_str:0000000000000236 .LASF20
     /tmp/ccUPyUn6.s:2009   .debug_str:0000000000000005 .LASF38
     /tmp/ccUPyUn6.s:2137   .debug_str:00000000000003d9 .LASF90
     /tmp/ccUPyUn6.s:2199   .debug_str:00000000000005bc .LASF19
     /tmp/ccUPyUn6.s:2015   .debug_str:0000000000000057 .LASF21
     /tmp/ccUPyUn6.s:2229   .debug_str:0000000000000749 .LASF22
     /tmp/ccUPyUn6.s:2189   .debug_str:0000000000000563 .LASF23
     /tmp/ccUPyUn6.s:2163   .debug_str:00000000000004c4 .LASF146
     /tmp/ccUPyUn6.s:2101   .debug_str:00000000000002d6 .LASF26
     /tmp/ccUPyUn6.s:2135   .debug_str:00000000000003c5 .LASF28
     /tmp/ccUPyUn6.s:2039   .debug_str:00000000000000f0 .LASF24
     /tmp/ccUPyUn6.s:2149   .debug_str:0000000000000429 .LASF25
     /tmp/ccUPyUn6.s:2127   .debug_str:0000000000000391 .LASF27
     /tmp/ccUPyUn6.s:2271   .debug_str:0000000000000862 .LASF29
     /tmp/ccUPyUn6.s:2125   .debug_str:000000000000038b .LASF30
GAS LISTING /tmp/ccUPyUn6.s 			page 10


     /tmp/ccUPyUn6.s:2253   .debug_str:00000000000007e2 .LASF32
     /tmp/ccUPyUn6.s:2247   .debug_str:00000000000007b8 .LASF64
     /tmp/ccUPyUn6.s:2193   .debug_str:0000000000000595 .LASF31
     /tmp/ccUPyUn6.s:2281   .debug_str:00000000000008aa .LASF33
     /tmp/ccUPyUn6.s:2305   .debug_str:000000000000094e .LASF34
     /tmp/ccUPyUn6.s:2295   .debug_str:000000000000090b .LASF35
     /tmp/ccUPyUn6.s:2237   .debug_str:0000000000000780 .LASF36
     /tmp/ccUPyUn6.s:2233   .debug_str:0000000000000762 .LASF37
     /tmp/ccUPyUn6.s:2161   .debug_str:00000000000004ac .LASF147
     /tmp/ccUPyUn6.s:2217   .debug_str:0000000000000632 .LASF39
     /tmp/ccUPyUn6.s:2159   .debug_str:000000000000047e .LASF41
     /tmp/ccUPyUn6.s:2021   .debug_str:0000000000000075 .LASF54
     /tmp/ccUPyUn6.s:2073   .debug_str:00000000000001dc .LASF56
     /tmp/ccUPyUn6.s:2097   .debug_str:00000000000002b8 .LASF40
     /tmp/ccUPyUn6.s:2033   .debug_str:00000000000000b5 .LASF42
     /tmp/ccUPyUn6.s:2211   .debug_str:0000000000000606 .LASF43
     /tmp/ccUPyUn6.s:2111   .debug_str:0000000000000319 .LASF50
     /tmp/ccUPyUn6.s:2007   .debug_str:0000000000000000 .LASF44
     /tmp/ccUPyUn6.s:2303   .debug_str:0000000000000948 .LASF45
     /tmp/ccUPyUn6.s:2259   .debug_str:0000000000000810 .LASF46
     /tmp/ccUPyUn6.s:2279   .debug_str:00000000000008a3 .LASF47
     /tmp/ccUPyUn6.s:2105   .debug_str:00000000000002e6 .LASF48
     /tmp/ccUPyUn6.s:2255   .debug_str:00000000000007f2 .LASF49
     /tmp/ccUPyUn6.s:2209   .debug_str:00000000000005f5 .LASF51
     /tmp/ccUPyUn6.s:2155   .debug_str:0000000000000462 .LASF52
     /tmp/ccUPyUn6.s:2023   .debug_str:0000000000000087 .LASF53
     /tmp/ccUPyUn6.s:2169   .debug_str:00000000000004f1 .LASF55
     /tmp/ccUPyUn6.s:2129   .debug_str:000000000000039e .LASF57
     /tmp/ccUPyUn6.s:2183   .debug_str:0000000000000545 .LASF58
     /tmp/ccUPyUn6.s:2011   .debug_str:0000000000000015 .LASF59
     /tmp/ccUPyUn6.s:2059   .debug_str:0000000000000174 .LASF60
     /tmp/ccUPyUn6.s:2047   .debug_str:0000000000000115 .LASF61
     /tmp/ccUPyUn6.s:2051   .debug_str:0000000000000138 .LASF62
     /tmp/ccUPyUn6.s:2013   .debug_str:000000000000002f .LASF63
     /tmp/ccUPyUn6.s:2219   .debug_str:0000000000000646 .LASF65
     /tmp/ccUPyUn6.s:2173   .debug_str:0000000000000506 .LASF66
     /tmp/ccUPyUn6.s:2055   .debug_str:0000000000000152 .LASF67
     /tmp/ccUPyUn6.s:2267   .debug_str:0000000000000847 .LASF68
     /tmp/ccUPyUn6.s:2109   .debug_str:000000000000030d .LASF69
     /tmp/ccUPyUn6.s:2301   .debug_str:0000000000000941 .LASF148
     /tmp/ccUPyUn6.s:2215   .debug_str:000000000000062a .LASF70
     /tmp/ccUPyUn6.s:2045   .debug_str:000000000000010b .LASF71
     /tmp/ccUPyUn6.s:2043   .debug_str:0000000000000102 .LASF72
     /tmp/ccUPyUn6.s:2031   .debug_str:00000000000000ac .LASF73
     /tmp/ccUPyUn6.s:2181   .debug_str:0000000000000540 .LASF74
     /tmp/ccUPyUn6.s:2241   .debug_str:0000000000000795 .LASF75
     /tmp/ccUPyUn6.s:2285   .debug_str:00000000000008c6 .LASF76
     /tmp/ccUPyUn6.s:2275   .debug_str:000000000000088f .LASF149
     /tmp/ccUPyUn6.s:2075   .debug_str:00000000000001f9 .LASF77
     /tmp/ccUPyUn6.s:2249   .debug_str:00000000000007c0 .LASF78
     /tmp/ccUPyUn6.s:2053   .debug_str:0000000000000146 .LASF79
     /tmp/ccUPyUn6.s:2187   .debug_str:000000000000055c .LASF80
     /tmp/ccUPyUn6.s:2093   .debug_str:0000000000000286 .LASF81
     /tmp/ccUPyUn6.s:2153   .debug_str:000000000000044a .LASF82
     /tmp/ccUPyUn6.s:2027   .debug_str:0000000000000098 .LASF83
     /tmp/ccUPyUn6.s:2091   .debug_str:000000000000026c .LASF84
     /tmp/ccUPyUn6.s:2205   .debug_str:00000000000005db .LASF85
GAS LISTING /tmp/ccUPyUn6.s 			page 11


     /tmp/ccUPyUn6.s:2069   .debug_str:00000000000001bb .LASF86
     /tmp/ccUPyUn6.s:2145   .debug_str:0000000000000414 .LASF87
     /tmp/ccUPyUn6.s:2289   .debug_str:00000000000008d6 .LASF88
     /tmp/ccUPyUn6.s:2269   .debug_str:0000000000000859 .LASF92
     /tmp/ccUPyUn6.s:2261   .debug_str:0000000000000818 .LASF94
     /tmp/ccUPyUn6.s:2185   .debug_str:0000000000000553 .LASF89
     /tmp/ccUPyUn6.s:2251   .debug_str:00000000000007cd .LASF91
     /tmp/ccUPyUn6.s:2175   .debug_str:0000000000000512 .LASF93
     /tmp/ccUPyUn6.s:2177   .debug_str:0000000000000519 .LASF95
     /tmp/ccUPyUn6.s:2151   .debug_str:0000000000000443 .LASF96
     /tmp/ccUPyUn6.s:2117   .debug_str:0000000000000357 .LASF97
     /tmp/ccUPyUn6.s:2291   .debug_str:00000000000008f0 .LASF98
     /tmp/ccUPyUn6.s:2227   .debug_str:0000000000000735 .LASF99
     /tmp/ccUPyUn6.s:2147   .debug_str:0000000000000421 .LASF100
     /tmp/ccUPyUn6.s:2157   .debug_str:000000000000046a .LASF101
     /tmp/ccUPyUn6.s:2131   .debug_str:00000000000003b7 .LASF102
     /tmp/ccUPyUn6.s:2179   .debug_str:000000000000052c .LASF103
     /tmp/ccUPyUn6.s:2311   .debug_str:000000000000097a .LASF104
     /tmp/ccUPyUn6.s:2273   .debug_str:000000000000087b .LASF105
     /tmp/ccUPyUn6.s:2225   .debug_str:000000000000072e .LASF106
     /tmp/ccUPyUn6.s:2201   .debug_str:00000000000005c1 .LASF107
     /tmp/ccUPyUn6.s:2203   .debug_str:00000000000005d4 .LASF108
     /tmp/ccUPyUn6.s:2063   .debug_str:0000000000000183 .LASF109
     /tmp/ccUPyUn6.s:2061   .debug_str:000000000000017d .LASF110
     /tmp/ccUPyUn6.s:2243   .debug_str:000000000000079a .LASF111
     /tmp/ccUPyUn6.s:2103   .debug_str:00000000000002e0 .LASF112
     /tmp/ccUPyUn6.s:2057   .debug_str:0000000000000162 .LASF113
     /tmp/ccUPyUn6.s:2019   .debug_str:000000000000006a .LASF114
     /tmp/ccUPyUn6.s:2195   .debug_str:000000000000059d .LASF115
     /tmp/ccUPyUn6.s:2265   .debug_str:000000000000083c .LASF116
     /tmp/ccUPyUn6.s:2307   .debug_str:0000000000000955 .LASF117
     /tmp/ccUPyUn6.s:2287   .debug_str:00000000000008cc .LASF118
     /tmp/ccUPyUn6.s:2297   .debug_str:000000000000091c .LASF119
     /tmp/ccUPyUn6.s:2283   .debug_str:00000000000008bc .LASF120
     /tmp/ccUPyUn6.s:2141   .debug_str:00000000000003f0 .LASF121
     /tmp/ccUPyUn6.s:2263   .debug_str:000000000000082d .LASF122
     /tmp/ccUPyUn6.s:2087   .debug_str:0000000000000242 .LASF123
     /tmp/ccUPyUn6.s:2029   .debug_str:00000000000000a5 .LASF124
     /tmp/ccUPyUn6.s:2041   .debug_str:00000000000000fa .LASF125
     /tmp/ccUPyUn6.s:2025   .debug_str:000000000000008f .LASF126
     /tmp/ccUPyUn6.s:2071   .debug_str:00000000000001d6 .LASF127
     /tmp/ccUPyUn6.s:2121   .debug_str:000000000000037d .LASF128
     /tmp/ccUPyUn6.s:2239   .debug_str:000000000000078b .LASF129
     /tmp/ccUPyUn6.s:2139   .debug_str:00000000000003e6 .LASF130
     /tmp/ccUPyUn6.s:2245   .debug_str:00000000000007ac .LASF131
     /tmp/ccUPyUn6.s:2207   .debug_str:00000000000005e9 .LASF132
     /tmp/ccUPyUn6.s:2167   .debug_str:00000000000004dc .LASF133
     /tmp/ccUPyUn6.s:2113   .debug_str:0000000000000322 .LASF134
     /tmp/ccUPyUn6.s:2299   .debug_str:0000000000000932 .LASF135
     /tmp/ccUPyUn6.s:2213   .debug_str:000000000000060e .LASF136
     /tmp/ccUPyUn6.s:2081   .debug_str:0000000000000221 .LASF137
     /tmp/ccUPyUn6.s:139    .text:000000000000008c .LFB37
     /tmp/ccUPyUn6.s:170    .text:00000000000000c0 .LFE37
     /tmp/ccUPyUn6.s:153    .text:00000000000000a4 .LVL5
     /tmp/ccUPyUn6.s:157    .text:00000000000000ac .LVL6
     /tmp/ccUPyUn6.s:2123   .debug_str:0000000000000383 .LASF150
     /tmp/ccUPyUn6.s:94     .text:000000000000005c .LFB36
GAS LISTING /tmp/ccUPyUn6.s 			page 12


     /tmp/ccUPyUn6.s:133    .text:000000000000008c .LFE36
     /tmp/ccUPyUn6.s:110    .text:0000000000000074 .LBB8
     /tmp/ccUPyUn6.s:122    .text:000000000000007c .LBE8
     /tmp/ccUPyUn6.s:1984   .debug_loc:0000000000000000 .LLST0
     /tmp/ccUPyUn6.s:108    .text:0000000000000074 .LVL3
     /tmp/ccUPyUn6.s:2067   .debug_str:00000000000001ac .LASF138
     /tmp/ccUPyUn6.s:2257   .debug_str:00000000000007fc .LASF139
     /tmp/ccUPyUn6.s:46     .text:0000000000000028 .LFB35
     /tmp/ccUPyUn6.s:88     .text:000000000000005c .LFE35
     /tmp/ccUPyUn6.s:61     .text:0000000000000040 .LBB6
     /tmp/ccUPyUn6.s:73     .text:0000000000000044 .LBE6
     /tmp/ccUPyUn6.s:77     .text:000000000000004c .LVL2
     /tmp/ccUPyUn6.s:2143   .debug_str:0000000000000406 .LASF151
     /tmp/ccUPyUn6.s:2293   .debug_str:00000000000008f8 .LASF152
     /tmp/ccUPyUn6.s:13     .text:0000000000000000 .LFB34
     /tmp/ccUPyUn6.s:40     .text:0000000000000028 .LFE34
     /tmp/ccUPyUn6.s:2277   .debug_str:000000000000089e .LASF140
     /tmp/ccUPyUn6.s:2133   .debug_str:00000000000003bf .LASF141
     /tmp/ccUPyUn6.s:119    .text:000000000000007c .LVL4
     /tmp/ccUPyUn6.s:177    .debug_info:0000000000000000 .Ldebug_info0

UNDEFINED SYMBOLS
_ZN5Riscv14supervisorTrapEv
_ZN3TCB7initTCBEv
_ZN3TCB6endTCBEv
