GAS LISTING /tmp/ccnTg1dR.s 			page 1


   1              		.file	"MemoryAllocator.cpp"
   2              		.option nopic
   3              		.option norelax
   4              		.attribute arch, "rv64i2p0_m2p0_a2p0"
   5              		.attribute unaligned_access, 0
   6              		.attribute stack_align, 16
   7              		.text
   8              	.Ltext0:
   9              		.align	2
  10              		.globl	_ZN15MemoryAllocator11memory_initEv
  12              	_ZN15MemoryAllocator11memory_initEv:
  13              	.LFB32:
  14              		.file 1 "src/MemoryAllocator.cpp"
   1:src/MemoryAllocator.cpp **** 
   2:src/MemoryAllocator.cpp **** #include "../h/MemoryAllocator.hpp"
   3:src/MemoryAllocator.cpp **** #include "../h/print.hpp"
   4:src/MemoryAllocator.cpp **** #include "../h/Riscv.hpp"
   5:src/MemoryAllocator.cpp **** #include "../h/TCB.hpp"
   6:src/MemoryAllocator.cpp **** 
   7:src/MemoryAllocator.cpp **** MemoryAllocator::FreeMemBlock* MemoryAllocator::freeMemHead = nullptr;
   8:src/MemoryAllocator.cpp **** int MemoryAllocator::memoryIntitialized = 0;
   9:src/MemoryAllocator.cpp **** 
  10:src/MemoryAllocator.cpp **** void MemoryAllocator::memory_init() {
  15              		.loc 1 10 37
  16              		.cfi_startproc
  17 0000 130101FF 		addi	sp,sp,-16
  18              		.cfi_def_cfa_offset 16
  19 0004 23348100 		sd	s0,8(sp)
  20              		.cfi_offset 8, -8
  21 0008 13040101 		addi	s0,sp,16
  22              		.cfi_def_cfa 8, 0
  11:src/MemoryAllocator.cpp ****     if (memoryIntitialized == 1) return;
  23              		.loc 1 11 5
  24              		.loc 1 11 28 is_stmt 0
  25 000c 17070000 		lw	a4,_ZN15MemoryAllocator18memoryIntitializedE
  25      03270700 
  26              		.loc 1 11 5
  27 0014 93071000 		li	a5,1
  28 0018 630AF702 		beq	a4,a5,.L1
  12:src/MemoryAllocator.cpp ****     memoryIntitialized = 1;
  29              		.loc 1 12 5 is_stmt 1
  30              		.loc 1 12 24 is_stmt 0
  31 001c 17070000 		sw	a5,_ZN15MemoryAllocator18memoryIntitializedE,a4
  31      2320F700 
  13:src/MemoryAllocator.cpp ****     freeMemHead = (FreeMemBlock*) HEAP_START_ADDR;
  32              		.loc 1 13 5 is_stmt 1
  33              		.loc 1 13 17 is_stmt 0
  34 0024 17070000 		ld	a4,HEAP_START_ADDR
  34      03370700 
  35 002c 97070000 		sd	a4,_ZN15MemoryAllocator11freeMemHeadE,a5
  35      23B0E700 
  14:src/MemoryAllocator.cpp ****     *freeMemHead = { nullptr, (size_t) HEAP_END_ADDR - (size_t) HEAP_START_ADDR - HEADER_SIZE};
  36              		.loc 1 14 5 is_stmt 1
  37              		.loc 1 14 54 is_stmt 0
  38 0034 97070000 		ld	a5,HEAP_END_ADDR
  38      83B70700 
  39 003c B387E740 		sub	a5,a5,a4
GAS LISTING /tmp/ccnTg1dR.s 			page 2


  40              		.loc 1 14 81
  41 0040 938707FF 		addi	a5,a5,-16
  42              		.loc 1 14 18
  43 0044 23300700 		sd	zero,0(a4)
  44 0048 2334F700 		sd	a5,8(a4)
  45              	.L1:
  15:src/MemoryAllocator.cpp **** }
  46              		.loc 1 15 1
  47 004c 03348100 		ld	s0,8(sp)
  48              		.cfi_restore 8
  49              		.cfi_def_cfa 2, 16
  50 0050 13010101 		addi	sp,sp,16
  51              		.cfi_def_cfa_offset 0
  52 0054 67800000 		jr	ra
  53              		.cfi_endproc
  54              	.LFE32:
  56              		.align	2
  57              		.globl	_ZN15MemoryAllocator12my_mem_allocEm
  59              	_ZN15MemoryAllocator12my_mem_allocEm:
  60              	.LFB33:
  16:src/MemoryAllocator.cpp **** 
  17:src/MemoryAllocator.cpp **** //deo koda je dat na proslim kolokvijumima - u delu Kontinualna alokacija
  18:src/MemoryAllocator.cpp **** void *MemoryAllocator::my_mem_alloc(size_t size) {                           // size - numberOfBloc
  61              		.loc 1 18 50 is_stmt 1
  62              		.cfi_startproc
  63              	.LVL0:
  64 0058 130101FE 		addi	sp,sp,-32
  65              		.cfi_def_cfa_offset 32
  66 005c 233C1100 		sd	ra,24(sp)
  67 0060 23388100 		sd	s0,16(sp)
  68 0064 23349100 		sd	s1,8(sp)
  69 0068 23302101 		sd	s2,0(sp)
  70              		.cfi_offset 1, -8
  71              		.cfi_offset 8, -16
  72              		.cfi_offset 9, -24
  73              		.cfi_offset 18, -32
  74 006c 13040102 		addi	s0,sp,32
  75              		.cfi_def_cfa 8, 0
  76 0070 93040500 		mv	s1,a0
  19:src/MemoryAllocator.cpp ****     memory_init();
  77              		.loc 1 19 5
  78              		.loc 1 19 16 is_stmt 0
  79 0074 97000000 		call	_ZN15MemoryAllocator11memory_initEv
  79      E7800000 
  80              	.LVL1:
  20:src/MemoryAllocator.cpp ****     FreeMemBlock* cur = freeMemHead;
  81              		.loc 1 20 5 is_stmt 1
  82              		.loc 1 20 19 is_stmt 0
  83 007c 17050000 		ld	a0,_ZN15MemoryAllocator11freeMemHeadE
  83      03350500 
  84              	.LVL2:
  21:src/MemoryAllocator.cpp ****     FreeMemBlock* prev = nullptr;
  85              		.loc 1 21 5 is_stmt 1
  86              		.loc 1 21 19 is_stmt 0
  87 0084 13060000 		li	a2,0
  88              	.LVL3:
  89              	.L7:
GAS LISTING /tmp/ccnTg1dR.s 			page 3


  22:src/MemoryAllocator.cpp ****     FreeMemBlock* nextNode;
  90              		.loc 1 22 5 is_stmt 1 discriminator 1
  23:src/MemoryAllocator.cpp **** 
  24:src/MemoryAllocator.cpp ****     for (; cur; prev = cur, cur = cur->next) {
  91              		.loc 1 24 5 discriminator 1
  92              	.LBB2:
  93              		.loc 1 24 12 discriminator 1
  94 0088 63080502 		beqz	a0,.L5
  95              	.LBB3:
  25:src/MemoryAllocator.cpp ****         if (cur->size < size*MEM_BLOCK_SIZE - HEADER_SIZE) continue;            //no space
  96              		.loc 1 25 9
  97              		.loc 1 25 18 is_stmt 0
  98 008c 83378500 		ld	a5,8(a0)
  99              		.loc 1 25 29
 100 0090 93966400 		slli	a3,s1,6
 101              		.loc 1 25 45
 102 0094 138706FF 		addi	a4,a3,-16
 103              		.loc 1 25 9
 104 0098 63E6E704 		bltu	a5,a4,.L13
  26:src/MemoryAllocator.cpp ****         if (cur->size - size*MEM_BLOCK_SIZE < 0) {
 105              		.loc 1 26 9 is_stmt 1
 106              	.LBE3:
 107              	.LBE2:
  27:src/MemoryAllocator.cpp ****             continue;                                                           //no left free spac
  28:src/MemoryAllocator.cpp ****         } else if (cur->size == size*MEM_BLOCK_SIZE - HEADER_SIZE) {
 108              		.loc 1 28 16
 109              	.LBB10:
 110              	.LBB7:
 111              	.LBB4:
 112 009c 638AE704 		beq	a5,a4,.L14
 113              	.LBB5:
  29:src/MemoryAllocator.cpp ****             nextNode = cur->next;
  30:src/MemoryAllocator.cpp ****         } else {                                    //cur->size >= size*MEM_BLOCK_SIZE
  31:src/MemoryAllocator.cpp ****             size_t nextSize = cur->size - size*MEM_BLOCK_SIZE;
 114              		.loc 1 31 13
 115              		.loc 1 31 20 is_stmt 0
 116 00a0 B387D740 		sub	a5,a5,a3
 117              	.LVL4:
  32:src/MemoryAllocator.cpp ****             cur->size = size*MEM_BLOCK_SIZE - HEADER_SIZE;
 118              		.loc 1 32 13 is_stmt 1
 119              		.loc 1 32 23 is_stmt 0
 120 00a4 2334E500 		sd	a4,8(a0)
  33:src/MemoryAllocator.cpp ****             nextNode = (FreeMemBlock*) ((size_t) cur + size*MEM_BLOCK_SIZE);
 121              		.loc 1 33 13 is_stmt 1
 122              		.loc 1 33 54 is_stmt 0
 123 00a8 3309D500 		add	s2,a0,a3
 124              	.LVL5:
  34:src/MemoryAllocator.cpp ****             nextNode->next = cur->next;
 125              		.loc 1 34 13 is_stmt 1
 126              		.loc 1 34 35 is_stmt 0
 127 00ac 03370500 		ld	a4,0(a0)
 128              		.loc 1 34 28
 129 00b0 2330E900 		sd	a4,0(s2)
  35:src/MemoryAllocator.cpp ****             nextNode->size = nextSize;
 130              		.loc 1 35 13 is_stmt 1
 131              		.loc 1 35 28 is_stmt 0
 132 00b4 2334F900 		sd	a5,8(s2)
GAS LISTING /tmp/ccnTg1dR.s 			page 4


 133              	.LVL6:
 134              	.L5:
 135              	.LBE5:
 136              	.LBE4:
 137              	.LBE7:
 138              	.LBE10:
  36:src/MemoryAllocator.cpp ****         }
  37:src/MemoryAllocator.cpp ****         break;
  38:src/MemoryAllocator.cpp ****     }
  39:src/MemoryAllocator.cpp ****     if (!cur) return nullptr;
 139              		.loc 1 39 5 is_stmt 1
 140 00b8 630A0500 		beqz	a0,.L4
  40:src/MemoryAllocator.cpp **** 
  41:src/MemoryAllocator.cpp ****     cur->next = nullptr;
 141              		.loc 1 41 5
 142              		.loc 1 41 15 is_stmt 0
 143 00bc 23300500 		sd	zero,0(a0)
  42:src/MemoryAllocator.cpp ****     if (prev) prev->next = nextNode;
 144              		.loc 1 42 5 is_stmt 1
 145 00c0 630C0602 		beqz	a2,.L10
 146              		.loc 1 42 15 discriminator 1
 147              		.loc 1 42 26 is_stmt 0 discriminator 1
 148 00c4 23302601 		sd	s2,0(a2)
 149              	.L11:
  43:src/MemoryAllocator.cpp ****     else freeMemHead = nextNode;
  44:src/MemoryAllocator.cpp ****     return (cur + 1);             //preskace zaglavlje ( +1 jer je pokazivac na FreeMemBlock, pa se
 150              		.loc 1 44 5 is_stmt 1
 151              		.loc 1 44 20 is_stmt 0
 152 00c8 13050501 		addi	a0,a0,16
 153              	.LVL7:
 154              	.L4:
  45:src/MemoryAllocator.cpp **** }
 155              		.loc 1 45 1
 156 00cc 83308101 		ld	ra,24(sp)
 157              		.cfi_remember_state
 158              		.cfi_restore 1
 159 00d0 03340101 		ld	s0,16(sp)
 160              		.cfi_restore 8
 161              		.cfi_def_cfa 2, 32
 162 00d4 83348100 		ld	s1,8(sp)
 163              		.cfi_restore 9
 164              	.LVL8:
 165 00d8 03390100 		ld	s2,0(sp)
 166              		.cfi_restore 18
 167              	.LVL9:
 168 00dc 13010102 		addi	sp,sp,32
 169              		.cfi_def_cfa_offset 0
 170 00e0 67800000 		jr	ra
 171              	.LVL10:
 172              	.L13:
 173              		.cfi_restore_state
 174              	.LBB11:
 175              	.LBB8:
  25:src/MemoryAllocator.cpp ****         if (cur->size - size*MEM_BLOCK_SIZE < 0) {
 176              		.loc 1 25 60 is_stmt 1 discriminator 1
 177              	.LBE8:
  24:src/MemoryAllocator.cpp ****         if (cur->size < size*MEM_BLOCK_SIZE - HEADER_SIZE) continue;            //no space
GAS LISTING /tmp/ccnTg1dR.s 			page 5


 178              		.loc 1 24 5 discriminator 1
  24:src/MemoryAllocator.cpp ****         if (cur->size < size*MEM_BLOCK_SIZE - HEADER_SIZE) continue;            //no space
 179              		.loc 1 24 22 is_stmt 0 discriminator 1
 180 00e4 13060500 		mv	a2,a0
  24:src/MemoryAllocator.cpp ****         if (cur->size < size*MEM_BLOCK_SIZE - HEADER_SIZE) continue;            //no space
 181              		.loc 1 24 33 discriminator 1
 182 00e8 03350500 		ld	a0,0(a0)
 183              	.LVL11:
  24:src/MemoryAllocator.cpp ****         if (cur->size < size*MEM_BLOCK_SIZE - HEADER_SIZE) continue;            //no space
 184              		.loc 1 24 5 discriminator 1
 185 00ec 6FF0DFF9 		j	.L7
 186              	.L14:
 187              	.LBB9:
 188              	.LBB6:
  29:src/MemoryAllocator.cpp ****         } else {                                    //cur->size >= size*MEM_BLOCK_SIZE
 189              		.loc 1 29 13 is_stmt 1
  29:src/MemoryAllocator.cpp ****         } else {                                    //cur->size >= size*MEM_BLOCK_SIZE
 190              		.loc 1 29 22 is_stmt 0
 191 00f0 03390500 		ld	s2,0(a0)
 192              	.LVL12:
 193 00f4 6FF05FFC 		j	.L5
 194              	.L10:
 195              	.LBE6:
 196              	.LBE9:
 197              	.LBE11:
  43:src/MemoryAllocator.cpp ****     return (cur + 1);             //preskace zaglavlje ( +1 jer je pokazivac na FreeMemBlock, pa se
 198              		.loc 1 43 10 is_stmt 1
  43:src/MemoryAllocator.cpp ****     return (cur + 1);             //preskace zaglavlje ( +1 jer je pokazivac na FreeMemBlock, pa se
 199              		.loc 1 43 22 is_stmt 0
 200 00f8 97070000 		sd	s2,_ZN15MemoryAllocator11freeMemHeadE,a5
 200      23B02701 
 201 0100 6FF09FFC 		j	.L11
 202              		.cfi_endproc
 203              	.LFE33:
 205              		.align	2
 206              		.globl	_ZN15MemoryAllocator9tryToJoinEPNS_12FreeMemBlockES1_
 208              	_ZN15MemoryAllocator9tryToJoinEPNS_12FreeMemBlockES1_:
 209              	.LFB35:
  46:src/MemoryAllocator.cpp **** 
  47:src/MemoryAllocator.cpp **** //zadatak sa kolokvijuma - gotovo identican - zajedno sa tryJoin funkcijom
  48:src/MemoryAllocator.cpp **** int MemoryAllocator::my_mem_free(const void * f) {
  49:src/MemoryAllocator.cpp ****     memory_init();
  50:src/MemoryAllocator.cpp ****     FreeMemBlock* toFree = ((FreeMemBlock*) f) - 1;
  51:src/MemoryAllocator.cpp ****     if (toFree < HEAP_START_ADDR || toFree >= HEAP_END_ADDR) return -1;
  52:src/MemoryAllocator.cpp ****     FreeMemBlock* prev = nullptr;
  53:src/MemoryAllocator.cpp ****     FreeMemBlock* nextNode = nullptr;
  54:src/MemoryAllocator.cpp ****     if (toFree < freeMemHead) {
  55:src/MemoryAllocator.cpp ****         nextNode = freeMemHead;
  56:src/MemoryAllocator.cpp ****         freeMemHead = toFree;
  57:src/MemoryAllocator.cpp ****         prev = nullptr;
  58:src/MemoryAllocator.cpp ****     } else {
  59:src/MemoryAllocator.cpp ****         prev = freeMemHead;
  60:src/MemoryAllocator.cpp ****         nextNode = freeMemHead->next;
  61:src/MemoryAllocator.cpp ****         for (; nextNode && !(prev <toFree && nextNode > toFree); prev = nextNode, nextNode = nextNo
  62:src/MemoryAllocator.cpp ****     }
  63:src/MemoryAllocator.cpp ****     tryToJoin(toFree, nextNode);
  64:src/MemoryAllocator.cpp ****     tryToJoin(prev, toFree);
GAS LISTING /tmp/ccnTg1dR.s 			page 6


  65:src/MemoryAllocator.cpp **** 
  66:src/MemoryAllocator.cpp ****     return 0;
  67:src/MemoryAllocator.cpp **** }
  68:src/MemoryAllocator.cpp **** 
  69:src/MemoryAllocator.cpp **** //zadatak sa kolokvijuma - gotovo identican
  70:src/MemoryAllocator.cpp **** void MemoryAllocator::tryToJoin(MemoryAllocator::FreeMemBlock *f1, MemoryAllocator::FreeMemBlock *f
 210              		.loc 1 70 103 is_stmt 1
 211              		.cfi_startproc
 212              	.LVL13:
 213 0104 130101FE 		addi	sp,sp,-32
 214              		.cfi_def_cfa_offset 32
 215 0108 233C1100 		sd	ra,24(sp)
 216 010c 23388100 		sd	s0,16(sp)
 217 0110 23349100 		sd	s1,8(sp)
 218 0114 23302101 		sd	s2,0(sp)
 219              		.cfi_offset 1, -8
 220              		.cfi_offset 8, -16
 221              		.cfi_offset 9, -24
 222              		.cfi_offset 18, -32
 223 0118 13040102 		addi	s0,sp,32
 224              		.cfi_def_cfa 8, 0
 225 011c 93040500 		mv	s1,a0
 226 0120 13890500 		mv	s2,a1
  71:src/MemoryAllocator.cpp ****     memory_init();
 227              		.loc 1 71 5
 228              		.loc 1 71 16 is_stmt 0
 229 0124 97000000 		call	_ZN15MemoryAllocator11memory_initEv
 229      E7800000 
 230              	.LVL14:
  72:src/MemoryAllocator.cpp ****     if (!f1) return;
 231              		.loc 1 72 5 is_stmt 1
 232 012c 638E0400 		beqz	s1,.L15
  73:src/MemoryAllocator.cpp ****     if (f2 && ((uint64) f1 + HEADER_SIZE + f1->size == (uint64) f2)) {
 233              		.loc 1 73 5
 234 0130 630A0900 		beqz	s2,.L17
 235              		.loc 1 73 48 is_stmt 0 discriminator 1
 236 0134 03B78400 		ld	a4,8(s1)
 237              		.loc 1 73 42 discriminator 1
 238 0138 B387E400 		add	a5,s1,a4
 239 013c 93870701 		addi	a5,a5,16
 240              		.loc 1 73 12 discriminator 1
 241 0140 63802703 		beq	a5,s2,.L19
 242              	.L17:
  74:src/MemoryAllocator.cpp ****         f1->size += HEADER_SIZE + f2->size;
  75:src/MemoryAllocator.cpp ****         f1->next = f2->next;
  76:src/MemoryAllocator.cpp ****     } else {
  77:src/MemoryAllocator.cpp ****         f1->next = f2;
 243              		.loc 1 77 9 is_stmt 1
 244              		.loc 1 77 18 is_stmt 0
 245 0144 23B02401 		sd	s2,0(s1)
 246              	.L15:
  78:src/MemoryAllocator.cpp ****     }
  79:src/MemoryAllocator.cpp **** }
 247              		.loc 1 79 1
 248 0148 83308101 		ld	ra,24(sp)
 249              		.cfi_remember_state
 250              		.cfi_restore 1
GAS LISTING /tmp/ccnTg1dR.s 			page 7


 251 014c 03340101 		ld	s0,16(sp)
 252              		.cfi_restore 8
 253              		.cfi_def_cfa 2, 32
 254 0150 83348100 		ld	s1,8(sp)
 255              		.cfi_restore 9
 256              	.LVL15:
 257 0154 03390100 		ld	s2,0(sp)
 258              		.cfi_restore 18
 259              	.LVL16:
 260 0158 13010102 		addi	sp,sp,32
 261              		.cfi_def_cfa_offset 0
 262 015c 67800000 		jr	ra
 263              	.LVL17:
 264              	.L19:
 265              		.cfi_restore_state
  74:src/MemoryAllocator.cpp ****         f1->size += HEADER_SIZE + f2->size;
 266              		.loc 1 74 9 is_stmt 1
  74:src/MemoryAllocator.cpp ****         f1->size += HEADER_SIZE + f2->size;
 267              		.loc 1 74 39 is_stmt 0
 268 0160 83378900 		ld	a5,8(s2)
  74:src/MemoryAllocator.cpp ****         f1->size += HEADER_SIZE + f2->size;
 269              		.loc 1 74 18
 270 0164 3307F700 		add	a4,a4,a5
 271 0168 13070701 		addi	a4,a4,16
 272 016c 23B4E400 		sd	a4,8(s1)
  75:src/MemoryAllocator.cpp ****     } else {
 273              		.loc 1 75 9 is_stmt 1
  75:src/MemoryAllocator.cpp ****     } else {
 274              		.loc 1 75 24 is_stmt 0
 275 0170 83370900 		ld	a5,0(s2)
  75:src/MemoryAllocator.cpp ****     } else {
 276              		.loc 1 75 18
 277 0174 23B0F400 		sd	a5,0(s1)
 278 0178 6FF01FFD 		j	.L15
 279              		.cfi_endproc
 280              	.LFE35:
 282              		.align	2
 283              		.globl	_ZN15MemoryAllocator11my_mem_freeEPKv
 285              	_ZN15MemoryAllocator11my_mem_freeEPKv:
 286              	.LFB34:
  48:src/MemoryAllocator.cpp ****     memory_init();
 287              		.loc 1 48 50 is_stmt 1
 288              		.cfi_startproc
 289              	.LVL18:
 290 017c 130101FE 		addi	sp,sp,-32
 291              		.cfi_def_cfa_offset 32
 292 0180 233C1100 		sd	ra,24(sp)
 293 0184 23388100 		sd	s0,16(sp)
 294 0188 23349100 		sd	s1,8(sp)
 295 018c 23302101 		sd	s2,0(sp)
 296              		.cfi_offset 1, -8
 297              		.cfi_offset 8, -16
 298              		.cfi_offset 9, -24
 299              		.cfi_offset 18, -32
 300 0190 13040102 		addi	s0,sp,32
 301              		.cfi_def_cfa 8, 0
 302 0194 93040500 		mv	s1,a0
GAS LISTING /tmp/ccnTg1dR.s 			page 8


  49:src/MemoryAllocator.cpp ****     FreeMemBlock* toFree = ((FreeMemBlock*) f) - 1;
 303              		.loc 1 49 5
  49:src/MemoryAllocator.cpp ****     FreeMemBlock* toFree = ((FreeMemBlock*) f) - 1;
 304              		.loc 1 49 16 is_stmt 0
 305 0198 97000000 		call	_ZN15MemoryAllocator11memory_initEv
 305      E7800000 
 306              	.LVL19:
  50:src/MemoryAllocator.cpp ****     if (toFree < HEAP_START_ADDR || toFree >= HEAP_END_ADDR) return -1;
 307              		.loc 1 50 5 is_stmt 1
  50:src/MemoryAllocator.cpp ****     if (toFree < HEAP_START_ADDR || toFree >= HEAP_END_ADDR) return -1;
 308              		.loc 1 50 19 is_stmt 0
 309 01a0 938404FF 		addi	s1,s1,-16
 310              	.LVL20:
  51:src/MemoryAllocator.cpp ****     FreeMemBlock* prev = nullptr;
 311              		.loc 1 51 5 is_stmt 1
  51:src/MemoryAllocator.cpp ****     FreeMemBlock* prev = nullptr;
 312              		.loc 1 51 16 is_stmt 0
 313 01a4 97070000 		ld	a5,HEAP_START_ADDR
 313      83B70700 
  51:src/MemoryAllocator.cpp ****     FreeMemBlock* prev = nullptr;
 314              		.loc 1 51 5
 315 01ac 63E2F408 		bgtu	a5,s1,.L26
  51:src/MemoryAllocator.cpp ****     FreeMemBlock* prev = nullptr;
 316              		.loc 1 51 44 discriminator 2
 317 01b0 97070000 		ld	a5,HEAP_END_ADDR
 317      83B70700 
  51:src/MemoryAllocator.cpp ****     FreeMemBlock* prev = nullptr;
 318              		.loc 1 51 34 discriminator 2
 319 01b8 63F0F408 		bleu	a5,s1,.L27
  52:src/MemoryAllocator.cpp ****     FreeMemBlock* nextNode = nullptr;
 320              		.loc 1 52 5 is_stmt 1
 321              	.LVL21:
  53:src/MemoryAllocator.cpp ****     if (toFree < freeMemHead) {
 322              		.loc 1 53 5
  54:src/MemoryAllocator.cpp ****         nextNode = freeMemHead;
 323              		.loc 1 54 5
  54:src/MemoryAllocator.cpp ****         nextNode = freeMemHead;
 324              		.loc 1 54 16 is_stmt 0
 325 01bc 17090000 		ld	s2,_ZN15MemoryAllocator11freeMemHeadE
 325      03390900 
  54:src/MemoryAllocator.cpp ****         nextNode = freeMemHead;
 326              		.loc 1 54 5
 327 01c4 63F62405 		bleu	s2,s1,.L22
  55:src/MemoryAllocator.cpp ****         freeMemHead = toFree;
 328              		.loc 1 55 9 is_stmt 1
 329              	.LVL22:
  56:src/MemoryAllocator.cpp ****         prev = nullptr;
 330              		.loc 1 56 9
  56:src/MemoryAllocator.cpp ****         prev = nullptr;
 331              		.loc 1 56 21 is_stmt 0
 332 01c8 97070000 		sd	s1,_ZN15MemoryAllocator11freeMemHeadE,a5
 332      23B09700 
  57:src/MemoryAllocator.cpp ****     } else {
 333              		.loc 1 57 9 is_stmt 1
  55:src/MemoryAllocator.cpp ****         freeMemHead = toFree;
 334              		.loc 1 55 18 is_stmt 0
 335 01d0 93050900 		mv	a1,s2
GAS LISTING /tmp/ccnTg1dR.s 			page 9


  57:src/MemoryAllocator.cpp ****     } else {
 336              		.loc 1 57 14
 337 01d4 13090000 		li	s2,0
 338              	.LVL23:
 339              	.L23:
  63:src/MemoryAllocator.cpp ****     tryToJoin(prev, toFree);
 340              		.loc 1 63 5 is_stmt 1
  63:src/MemoryAllocator.cpp ****     tryToJoin(prev, toFree);
 341              		.loc 1 63 14 is_stmt 0
 342 01d8 13850400 		mv	a0,s1
 343 01dc 97000000 		call	_ZN15MemoryAllocator9tryToJoinEPNS_12FreeMemBlockES1_
 343      E7800000 
 344              	.LVL24:
  64:src/MemoryAllocator.cpp **** 
 345              		.loc 1 64 5 is_stmt 1
  64:src/MemoryAllocator.cpp **** 
 346              		.loc 1 64 14 is_stmt 0
 347 01e4 93850400 		mv	a1,s1
 348 01e8 13050900 		mv	a0,s2
 349 01ec 97000000 		call	_ZN15MemoryAllocator9tryToJoinEPNS_12FreeMemBlockES1_
 349      E7800000 
 350              	.LVL25:
  66:src/MemoryAllocator.cpp **** }
 351              		.loc 1 66 5 is_stmt 1
  66:src/MemoryAllocator.cpp **** }
 352              		.loc 1 66 12 is_stmt 0
 353 01f4 13050000 		li	a0,0
 354              	.LVL26:
 355              	.L21:
  67:src/MemoryAllocator.cpp **** 
 356              		.loc 1 67 1
 357 01f8 83308101 		ld	ra,24(sp)
 358              		.cfi_remember_state
 359              		.cfi_restore 1
 360 01fc 03340101 		ld	s0,16(sp)
 361              		.cfi_restore 8
 362              		.cfi_def_cfa 2, 32
 363 0200 83348100 		ld	s1,8(sp)
 364              		.cfi_restore 9
 365              	.LVL27:
 366 0204 03390100 		ld	s2,0(sp)
 367              		.cfi_restore 18
 368 0208 13010102 		addi	sp,sp,32
 369              		.cfi_def_cfa_offset 0
 370 020c 67800000 		jr	ra
 371              	.LVL28:
 372              	.L22:
 373              		.cfi_restore_state
  59:src/MemoryAllocator.cpp ****         nextNode = freeMemHead->next;
 374              		.loc 1 59 9 is_stmt 1
  60:src/MemoryAllocator.cpp ****         for (; nextNode && !(prev <toFree && nextNode > toFree); prev = nextNode, nextNode = nextNo
 375              		.loc 1 60 9
  60:src/MemoryAllocator.cpp ****         for (; nextNode && !(prev <toFree && nextNode > toFree); prev = nextNode, nextNode = nextNo
 376              		.loc 1 60 18 is_stmt 0
 377 0210 83350900 		ld	a1,0(s2)
 378              	.LVL29:
 379 0214 6F00C000 		j	.L25
GAS LISTING /tmp/ccnTg1dR.s 			page 10


 380              	.L24:
  61:src/MemoryAllocator.cpp ****     }
 381              		.loc 1 61 9 is_stmt 1 discriminator 4
 382              	.LVL30:
  61:src/MemoryAllocator.cpp ****     }
 383              		.loc 1 61 71 is_stmt 0 discriminator 4
 384 0218 13890500 		mv	s2,a1
  61:src/MemoryAllocator.cpp ****     }
 385              		.loc 1 61 92 discriminator 4
 386 021c 83B50500 		ld	a1,0(a1)
 387              	.LVL31:
 388              	.L25:
  61:src/MemoryAllocator.cpp ****     }
 389              		.loc 1 61 9 is_stmt 1 discriminator 5
  61:src/MemoryAllocator.cpp ****     }
 390              		.loc 1 61 25 discriminator 5
 391 0220 E38C05FA 		beqz	a1,.L23
  61:src/MemoryAllocator.cpp ****     }
 392              		.loc 1 61 25 is_stmt 0 discriminator 1
 393 0224 E37A99FE 		bgeu	s2,s1,.L24
  61:src/MemoryAllocator.cpp ****     }
 394              		.loc 1 61 28 discriminator 2
 395 0228 E3F8B4FE 		bleu	a1,s1,.L24
 396 022c 6FF0DFFA 		j	.L23
 397              	.LVL32:
 398              	.L26:
  51:src/MemoryAllocator.cpp ****     FreeMemBlock* prev = nullptr;
 399              		.loc 1 51 70
 400 0230 1305F0FF 		li	a0,-1
 401 0234 6FF05FFC 		j	.L21
 402              	.L27:
 403 0238 1305F0FF 		li	a0,-1
 404 023c 6FF0DFFB 		j	.L21
 405              		.cfi_endproc
 406              	.LFE34:
 408              		.align	2
 409              		.globl	_ZN15MemoryAllocator15prepareMemAllocEm
 411              	_ZN15MemoryAllocator15prepareMemAllocEm:
 412              	.LFB36:
  80:src/MemoryAllocator.cpp **** 
  81:src/MemoryAllocator.cpp **** 
  82:src/MemoryAllocator.cpp **** void MemoryAllocator::prepareMemAlloc(size_t size) {                    //number of blocks - size
 413              		.loc 1 82 52 is_stmt 1
 414              		.cfi_startproc
 415              	.LVL33:
 416 0240 130101FF 		addi	sp,sp,-16
 417              		.cfi_def_cfa_offset 16
 418 0244 23341100 		sd	ra,8(sp)
 419 0248 23308100 		sd	s0,0(sp)
 420              		.cfi_offset 1, -8
 421              		.cfi_offset 8, -16
 422 024c 13040101 		addi	s0,sp,16
 423              		.cfi_def_cfa 8, 0
  83:src/MemoryAllocator.cpp **** 
  84:src/MemoryAllocator.cpp ****     void* addr = my_mem_alloc(size);
 424              		.loc 1 84 5
 425              		.loc 1 84 30 is_stmt 0
GAS LISTING /tmp/ccnTg1dR.s 			page 11


 426 0250 97000000 		call	_ZN15MemoryAllocator12my_mem_allocEm
 426      E7800000 
 427              	.LVL34:
  85:src/MemoryAllocator.cpp **** 
  86:src/MemoryAllocator.cpp ****     __asm__ volatile("mv a0, %0" : : "r"((uint64) addr));       //ret value
 428              		.loc 1 86 5 is_stmt 1
 429              		.loc 1 86 57 is_stmt 0
 430              	 #APP
 431              	# 86 "src/MemoryAllocator.cpp" 1
  87              	
  88:src/MemoryAllocator.cpp ****     //save a0 on old context stack
  89:src/MemoryAllocator.cpp ****     Riscv::setA0onStack();
 432              		mv a0, a0
 433              	# 0 "" 2
 434              		.loc 1 89 5 is_stmt 1
 435              		.loc 1 89 24 is_stmt 0
 436              	 #NO_APP
 437 025c 97000000 		call	_ZN5Riscv12setA0onStackEv
 437      E7800000 
 438              	.LVL35:
  90:src/MemoryAllocator.cpp **** 
  91:src/MemoryAllocator.cpp **** }
 439              		.loc 1 91 1
 440 0264 83308100 		ld	ra,8(sp)
 441              		.cfi_restore 1
 442 0268 03340100 		ld	s0,0(sp)
 443              		.cfi_restore 8
 444              		.cfi_def_cfa 2, 16
 445 026c 13010101 		addi	sp,sp,16
 446              		.cfi_def_cfa_offset 0
 447 0270 67800000 		jr	ra
 448              		.cfi_endproc
 449              	.LFE36:
 451              		.align	2
 452              		.globl	_ZN15MemoryAllocator14prepareMemFreeEm
 454              	_ZN15MemoryAllocator14prepareMemFreeEm:
 455              	.LFB37:
  92:src/MemoryAllocator.cpp **** 
  93:src/MemoryAllocator.cpp **** void MemoryAllocator::prepareMemFree(uint64 addr) {
 456              		.loc 1 93 51 is_stmt 1
 457              		.cfi_startproc
 458              	.LVL36:
 459 0274 130101FF 		addi	sp,sp,-16
 460              		.cfi_def_cfa_offset 16
 461 0278 23341100 		sd	ra,8(sp)
 462 027c 23308100 		sd	s0,0(sp)
 463              		.cfi_offset 1, -8
 464              		.cfi_offset 8, -16
 465 0280 13040101 		addi	s0,sp,16
 466              		.cfi_def_cfa 8, 0
  94:src/MemoryAllocator.cpp **** 
  95:src/MemoryAllocator.cpp ****     uint64 ret = my_mem_free((void*) addr);
 467              		.loc 1 95 5
 468              		.loc 1 95 29 is_stmt 0
 469 0284 97000000 		call	_ZN15MemoryAllocator11my_mem_freeEPKv
 469      E7800000 
 470              	.LVL37:
GAS LISTING /tmp/ccnTg1dR.s 			page 12


  96:src/MemoryAllocator.cpp **** 
  97:src/MemoryAllocator.cpp ****     __asm__ volatile("mv a0, %0" : : "r"(ret));       //ret value
 471              		.loc 1 97 5 is_stmt 1
 472              		.loc 1 97 47 is_stmt 0
 473              	 #APP
 474              	# 97 "src/MemoryAllocator.cpp" 1
  98              	
  99:src/MemoryAllocator.cpp ****     //save a0 on old context stack
 100:src/MemoryAllocator.cpp ****     Riscv::setA0onStack();
 475              		mv a0, a0
 476              	# 0 "" 2
 477              		.loc 1 100 5 is_stmt 1
 478              		.loc 1 100 24 is_stmt 0
 479              	 #NO_APP
 480 0290 97000000 		call	_ZN5Riscv12setA0onStackEv
 480      E7800000 
 481              	.LVL38:
 101:src/MemoryAllocator.cpp **** }
 482              		.loc 1 101 1
 483 0298 83308100 		ld	ra,8(sp)
 484              		.cfi_restore 1
 485 029c 03340100 		ld	s0,0(sp)
 486              		.cfi_restore 8
 487              		.cfi_def_cfa 2, 16
 488 02a0 13010101 		addi	sp,sp,16
 489              		.cfi_def_cfa_offset 0
 490 02a4 67800000 		jr	ra
 491              		.cfi_endproc
 492              	.LFE37:
 494              		.globl	_ZN15MemoryAllocator18memoryIntitializedE
 495              		.globl	_ZN15MemoryAllocator11freeMemHeadE
 496              		.section	.sbss,"aw",@nobits
 497              		.align	3
 500              	_ZN15MemoryAllocator18memoryIntitializedE:
 501 0000 00000000 		.zero	4
 502 0004 00000000 		.zero	4
 505              	_ZN15MemoryAllocator11freeMemHeadE:
 506 0008 00000000 		.zero	8
 506      00000000 
 507              		.text
 508              	.Letext0:
 509              		.file 2 "src/../h/../lib/hw.h"
 510              		.file 3 "src/../h/MemoryAllocator.hpp"
 511              		.file 4 "src/../h/Riscv.hpp"
GAS LISTING /tmp/ccnTg1dR.s 			page 13


DEFINED SYMBOLS
                            *ABS*:0000000000000000 MemoryAllocator.cpp
     /tmp/ccnTg1dR.s:12     .text:0000000000000000 _ZN15MemoryAllocator11memory_initEv
     /tmp/ccnTg1dR.s:16     .text:0000000000000000 .L0 
     /tmp/ccnTg1dR.s:17     .text:0000000000000000 .L0 
     /tmp/ccnTg1dR.s:18     .text:0000000000000004 .L0 
     /tmp/ccnTg1dR.s:20     .text:0000000000000008 .L0 
     /tmp/ccnTg1dR.s:22     .text:000000000000000c .L0 
     /tmp/ccnTg1dR.s:24     .text:000000000000000c .L0 
     /tmp/ccnTg1dR.s:500    .sbss:0000000000000000 _ZN15MemoryAllocator18memoryIntitializedE
     /tmp/ccnTg1dR.s:25     .text:000000000000000c .L0 
     /tmp/ccnTg1dR.s:27     .text:0000000000000014 .L0 
     /tmp/ccnTg1dR.s:30     .text:000000000000001c .L0 
     /tmp/ccnTg1dR.s:31     .text:000000000000001c .L0 
     /tmp/ccnTg1dR.s:33     .text:0000000000000024 .L0 
     /tmp/ccnTg1dR.s:34     .text:0000000000000024 .L0 
     /tmp/ccnTg1dR.s:505    .sbss:0000000000000008 _ZN15MemoryAllocator11freeMemHeadE
     /tmp/ccnTg1dR.s:37     .text:0000000000000034 .L0 
     /tmp/ccnTg1dR.s:38     .text:0000000000000034 .L0 
     /tmp/ccnTg1dR.s:41     .text:0000000000000040 .L0 
     /tmp/ccnTg1dR.s:43     .text:0000000000000044 .L0 
     /tmp/ccnTg1dR.s:47     .text:000000000000004c .L0 
     /tmp/ccnTg1dR.s:48     .text:0000000000000050 .L0 
     /tmp/ccnTg1dR.s:49     .text:0000000000000050 .L0 
     /tmp/ccnTg1dR.s:51     .text:0000000000000054 .L0 
     /tmp/ccnTg1dR.s:53     .text:0000000000000058 .L0 
     /tmp/ccnTg1dR.s:59     .text:0000000000000058 _ZN15MemoryAllocator12my_mem_allocEm
     /tmp/ccnTg1dR.s:62     .text:0000000000000058 .L0 
     /tmp/ccnTg1dR.s:64     .text:0000000000000058 .L0 
     /tmp/ccnTg1dR.s:65     .text:000000000000005c .L0 
     /tmp/ccnTg1dR.s:70     .text:000000000000006c .L0 
     /tmp/ccnTg1dR.s:71     .text:000000000000006c .L0 
     /tmp/ccnTg1dR.s:72     .text:000000000000006c .L0 
     /tmp/ccnTg1dR.s:73     .text:000000000000006c .L0 
     /tmp/ccnTg1dR.s:75     .text:0000000000000070 .L0 
     /tmp/ccnTg1dR.s:78     .text:0000000000000074 .L0 
     /tmp/ccnTg1dR.s:79     .text:0000000000000074 .L0 
     /tmp/ccnTg1dR.s:82     .text:000000000000007c .L0 
     /tmp/ccnTg1dR.s:83     .text:000000000000007c .L0 
     /tmp/ccnTg1dR.s:86     .text:0000000000000084 .L0 
     /tmp/ccnTg1dR.s:87     .text:0000000000000084 .L0 
     /tmp/ccnTg1dR.s:91     .text:0000000000000088 .L0 
     /tmp/ccnTg1dR.s:93     .text:0000000000000088 .L0 
     /tmp/ccnTg1dR.s:94     .text:0000000000000088 .L0 
     /tmp/ccnTg1dR.s:97     .text:000000000000008c .L0 
     /tmp/ccnTg1dR.s:98     .text:000000000000008c .L0 
     /tmp/ccnTg1dR.s:100    .text:0000000000000090 .L0 
     /tmp/ccnTg1dR.s:102    .text:0000000000000094 .L0 
     /tmp/ccnTg1dR.s:104    .text:0000000000000098 .L0 
     /tmp/ccnTg1dR.s:108    .text:000000000000009c .L0 
     /tmp/ccnTg1dR.s:112    .text:000000000000009c .L0 
     /tmp/ccnTg1dR.s:115    .text:00000000000000a0 .L0 
     /tmp/ccnTg1dR.s:116    .text:00000000000000a0 .L0 
     /tmp/ccnTg1dR.s:119    .text:00000000000000a4 .L0 
     /tmp/ccnTg1dR.s:120    .text:00000000000000a4 .L0 
     /tmp/ccnTg1dR.s:122    .text:00000000000000a8 .L0 
     /tmp/ccnTg1dR.s:123    .text:00000000000000a8 .L0 
GAS LISTING /tmp/ccnTg1dR.s 			page 14


     /tmp/ccnTg1dR.s:126    .text:00000000000000ac .L0 
     /tmp/ccnTg1dR.s:127    .text:00000000000000ac .L0 
     /tmp/ccnTg1dR.s:129    .text:00000000000000b0 .L0 
     /tmp/ccnTg1dR.s:131    .text:00000000000000b4 .L0 
     /tmp/ccnTg1dR.s:132    .text:00000000000000b4 .L0 
     /tmp/ccnTg1dR.s:140    .text:00000000000000b8 .L0 
     /tmp/ccnTg1dR.s:142    .text:00000000000000bc .L0 
     /tmp/ccnTg1dR.s:143    .text:00000000000000bc .L0 
     /tmp/ccnTg1dR.s:145    .text:00000000000000c0 .L0 
     /tmp/ccnTg1dR.s:147    .text:00000000000000c4 .L0 
     /tmp/ccnTg1dR.s:148    .text:00000000000000c4 .L0 
     /tmp/ccnTg1dR.s:151    .text:00000000000000c8 .L0 
     /tmp/ccnTg1dR.s:152    .text:00000000000000c8 .L0 
     /tmp/ccnTg1dR.s:156    .text:00000000000000cc .L0 
     /tmp/ccnTg1dR.s:157    .text:00000000000000d0 .L0 
     /tmp/ccnTg1dR.s:158    .text:00000000000000d0 .L0 
     /tmp/ccnTg1dR.s:160    .text:00000000000000d4 .L0 
     /tmp/ccnTg1dR.s:161    .text:00000000000000d4 .L0 
     /tmp/ccnTg1dR.s:163    .text:00000000000000d8 .L0 
     /tmp/ccnTg1dR.s:166    .text:00000000000000dc .L0 
     /tmp/ccnTg1dR.s:169    .text:00000000000000e0 .L0 
     /tmp/ccnTg1dR.s:173    .text:00000000000000e4 .L0 
     /tmp/ccnTg1dR.s:178    .text:00000000000000e4 .L0 
     /tmp/ccnTg1dR.s:179    .text:00000000000000e4 .L0 
     /tmp/ccnTg1dR.s:180    .text:00000000000000e4 .L0 
     /tmp/ccnTg1dR.s:182    .text:00000000000000e8 .L0 
     /tmp/ccnTg1dR.s:185    .text:00000000000000ec .L0 
     /tmp/ccnTg1dR.s:190    .text:00000000000000f0 .L0 
     /tmp/ccnTg1dR.s:191    .text:00000000000000f0 .L0 
     /tmp/ccnTg1dR.s:199    .text:00000000000000f8 .L0 
     /tmp/ccnTg1dR.s:200    .text:00000000000000f8 .L0 
     /tmp/ccnTg1dR.s:202    .text:0000000000000104 .L0 
     /tmp/ccnTg1dR.s:208    .text:0000000000000104 _ZN15MemoryAllocator9tryToJoinEPNS_12FreeMemBlockES1_
     /tmp/ccnTg1dR.s:211    .text:0000000000000104 .L0 
     /tmp/ccnTg1dR.s:213    .text:0000000000000104 .L0 
     /tmp/ccnTg1dR.s:214    .text:0000000000000108 .L0 
     /tmp/ccnTg1dR.s:219    .text:0000000000000118 .L0 
     /tmp/ccnTg1dR.s:220    .text:0000000000000118 .L0 
     /tmp/ccnTg1dR.s:221    .text:0000000000000118 .L0 
     /tmp/ccnTg1dR.s:222    .text:0000000000000118 .L0 
     /tmp/ccnTg1dR.s:224    .text:000000000000011c .L0 
     /tmp/ccnTg1dR.s:228    .text:0000000000000124 .L0 
     /tmp/ccnTg1dR.s:229    .text:0000000000000124 .L0 
     /tmp/ccnTg1dR.s:232    .text:000000000000012c .L0 
     /tmp/ccnTg1dR.s:234    .text:0000000000000130 .L0 
     /tmp/ccnTg1dR.s:236    .text:0000000000000134 .L0 
     /tmp/ccnTg1dR.s:238    .text:0000000000000138 .L0 
     /tmp/ccnTg1dR.s:241    .text:0000000000000140 .L0 
     /tmp/ccnTg1dR.s:244    .text:0000000000000144 .L0 
     /tmp/ccnTg1dR.s:245    .text:0000000000000144 .L0 
     /tmp/ccnTg1dR.s:248    .text:0000000000000148 .L0 
     /tmp/ccnTg1dR.s:249    .text:000000000000014c .L0 
     /tmp/ccnTg1dR.s:250    .text:000000000000014c .L0 
     /tmp/ccnTg1dR.s:252    .text:0000000000000150 .L0 
     /tmp/ccnTg1dR.s:253    .text:0000000000000150 .L0 
     /tmp/ccnTg1dR.s:255    .text:0000000000000154 .L0 
     /tmp/ccnTg1dR.s:258    .text:0000000000000158 .L0 
GAS LISTING /tmp/ccnTg1dR.s 			page 15


     /tmp/ccnTg1dR.s:261    .text:000000000000015c .L0 
     /tmp/ccnTg1dR.s:265    .text:0000000000000160 .L0 
     /tmp/ccnTg1dR.s:267    .text:0000000000000160 .L0 
     /tmp/ccnTg1dR.s:268    .text:0000000000000160 .L0 
     /tmp/ccnTg1dR.s:270    .text:0000000000000164 .L0 
     /tmp/ccnTg1dR.s:274    .text:0000000000000170 .L0 
     /tmp/ccnTg1dR.s:275    .text:0000000000000170 .L0 
     /tmp/ccnTg1dR.s:277    .text:0000000000000174 .L0 
     /tmp/ccnTg1dR.s:279    .text:000000000000017c .L0 
     /tmp/ccnTg1dR.s:285    .text:000000000000017c _ZN15MemoryAllocator11my_mem_freeEPKv
     /tmp/ccnTg1dR.s:288    .text:000000000000017c .L0 
     /tmp/ccnTg1dR.s:290    .text:000000000000017c .L0 
     /tmp/ccnTg1dR.s:291    .text:0000000000000180 .L0 
     /tmp/ccnTg1dR.s:296    .text:0000000000000190 .L0 
     /tmp/ccnTg1dR.s:297    .text:0000000000000190 .L0 
     /tmp/ccnTg1dR.s:298    .text:0000000000000190 .L0 
     /tmp/ccnTg1dR.s:299    .text:0000000000000190 .L0 
     /tmp/ccnTg1dR.s:301    .text:0000000000000194 .L0 
     /tmp/ccnTg1dR.s:304    .text:0000000000000198 .L0 
     /tmp/ccnTg1dR.s:305    .text:0000000000000198 .L0 
     /tmp/ccnTg1dR.s:308    .text:00000000000001a0 .L0 
     /tmp/ccnTg1dR.s:309    .text:00000000000001a0 .L0 
     /tmp/ccnTg1dR.s:312    .text:00000000000001a4 .L0 
     /tmp/ccnTg1dR.s:313    .text:00000000000001a4 .L0 
     /tmp/ccnTg1dR.s:315    .text:00000000000001ac .L0 
     /tmp/ccnTg1dR.s:317    .text:00000000000001b0 .L0 
     /tmp/ccnTg1dR.s:319    .text:00000000000001b8 .L0 
     /tmp/ccnTg1dR.s:322    .text:00000000000001bc .L0 
     /tmp/ccnTg1dR.s:323    .text:00000000000001bc .L0 
     /tmp/ccnTg1dR.s:324    .text:00000000000001bc .L0 
     /tmp/ccnTg1dR.s:325    .text:00000000000001bc .L0 
     /tmp/ccnTg1dR.s:327    .text:00000000000001c4 .L0 
     /tmp/ccnTg1dR.s:330    .text:00000000000001c8 .L0 
     /tmp/ccnTg1dR.s:331    .text:00000000000001c8 .L0 
     /tmp/ccnTg1dR.s:332    .text:00000000000001c8 .L0 
     /tmp/ccnTg1dR.s:334    .text:00000000000001d0 .L0 
     /tmp/ccnTg1dR.s:335    .text:00000000000001d0 .L0 
     /tmp/ccnTg1dR.s:337    .text:00000000000001d4 .L0 
     /tmp/ccnTg1dR.s:341    .text:00000000000001d8 .L0 
     /tmp/ccnTg1dR.s:342    .text:00000000000001d8 .L0 
     /tmp/ccnTg1dR.s:346    .text:00000000000001e4 .L0 
     /tmp/ccnTg1dR.s:347    .text:00000000000001e4 .L0 
     /tmp/ccnTg1dR.s:352    .text:00000000000001f4 .L0 
     /tmp/ccnTg1dR.s:353    .text:00000000000001f4 .L0 
     /tmp/ccnTg1dR.s:357    .text:00000000000001f8 .L0 
     /tmp/ccnTg1dR.s:358    .text:00000000000001fc .L0 
     /tmp/ccnTg1dR.s:359    .text:00000000000001fc .L0 
     /tmp/ccnTg1dR.s:361    .text:0000000000000200 .L0 
     /tmp/ccnTg1dR.s:362    .text:0000000000000200 .L0 
     /tmp/ccnTg1dR.s:364    .text:0000000000000204 .L0 
     /tmp/ccnTg1dR.s:367    .text:0000000000000208 .L0 
     /tmp/ccnTg1dR.s:369    .text:000000000000020c .L0 
     /tmp/ccnTg1dR.s:373    .text:0000000000000210 .L0 
     /tmp/ccnTg1dR.s:375    .text:0000000000000210 .L0 
     /tmp/ccnTg1dR.s:376    .text:0000000000000210 .L0 
     /tmp/ccnTg1dR.s:377    .text:0000000000000210 .L0 
     /tmp/ccnTg1dR.s:383    .text:0000000000000218 .L0 
GAS LISTING /tmp/ccnTg1dR.s 			page 16


     /tmp/ccnTg1dR.s:384    .text:0000000000000218 .L0 
     /tmp/ccnTg1dR.s:386    .text:000000000000021c .L0 
     /tmp/ccnTg1dR.s:390    .text:0000000000000220 .L0 
     /tmp/ccnTg1dR.s:391    .text:0000000000000220 .L0 
     /tmp/ccnTg1dR.s:393    .text:0000000000000224 .L0 
     /tmp/ccnTg1dR.s:395    .text:0000000000000228 .L0 
     /tmp/ccnTg1dR.s:400    .text:0000000000000230 .L0 
     /tmp/ccnTg1dR.s:405    .text:0000000000000240 .L0 
     /tmp/ccnTg1dR.s:411    .text:0000000000000240 _ZN15MemoryAllocator15prepareMemAllocEm
     /tmp/ccnTg1dR.s:414    .text:0000000000000240 .L0 
     /tmp/ccnTg1dR.s:416    .text:0000000000000240 .L0 
     /tmp/ccnTg1dR.s:417    .text:0000000000000244 .L0 
     /tmp/ccnTg1dR.s:420    .text:000000000000024c .L0 
     /tmp/ccnTg1dR.s:421    .text:000000000000024c .L0 
     /tmp/ccnTg1dR.s:423    .text:0000000000000250 .L0 
     /tmp/ccnTg1dR.s:425    .text:0000000000000250 .L0 
     /tmp/ccnTg1dR.s:426    .text:0000000000000250 .L0 
     /tmp/ccnTg1dR.s:429    .text:0000000000000258 .L0 
src/MemoryAllocator.cpp:86     .text:0000000000000258 .L0 
     /tmp/ccnTg1dR.s:435    .text:000000000000025c .L0 
     /tmp/ccnTg1dR.s:437    .text:000000000000025c .L0 
     /tmp/ccnTg1dR.s:440    .text:0000000000000264 .L0 
     /tmp/ccnTg1dR.s:441    .text:0000000000000268 .L0 
     /tmp/ccnTg1dR.s:443    .text:000000000000026c .L0 
     /tmp/ccnTg1dR.s:444    .text:000000000000026c .L0 
     /tmp/ccnTg1dR.s:446    .text:0000000000000270 .L0 
     /tmp/ccnTg1dR.s:448    .text:0000000000000274 .L0 
     /tmp/ccnTg1dR.s:454    .text:0000000000000274 _ZN15MemoryAllocator14prepareMemFreeEm
     /tmp/ccnTg1dR.s:457    .text:0000000000000274 .L0 
     /tmp/ccnTg1dR.s:459    .text:0000000000000274 .L0 
     /tmp/ccnTg1dR.s:460    .text:0000000000000278 .L0 
     /tmp/ccnTg1dR.s:463    .text:0000000000000280 .L0 
     /tmp/ccnTg1dR.s:464    .text:0000000000000280 .L0 
     /tmp/ccnTg1dR.s:466    .text:0000000000000284 .L0 
     /tmp/ccnTg1dR.s:468    .text:0000000000000284 .L0 
     /tmp/ccnTg1dR.s:469    .text:0000000000000284 .L0 
     /tmp/ccnTg1dR.s:472    .text:000000000000028c .L0 
src/MemoryAllocator.cpp:97     .text:000000000000028c .L0 
     /tmp/ccnTg1dR.s:478    .text:0000000000000290 .L0 
     /tmp/ccnTg1dR.s:480    .text:0000000000000290 .L0 
     /tmp/ccnTg1dR.s:483    .text:0000000000000298 .L0 
     /tmp/ccnTg1dR.s:484    .text:000000000000029c .L0 
     /tmp/ccnTg1dR.s:486    .text:00000000000002a0 .L0 
     /tmp/ccnTg1dR.s:487    .text:00000000000002a0 .L0 
     /tmp/ccnTg1dR.s:489    .text:00000000000002a4 .L0 
     /tmp/ccnTg1dR.s:491    .text:00000000000002a8 .L0 
     /tmp/ccnTg1dR.s:512    .text:00000000000002a8 .L0 
     /tmp/ccnTg1dR.s:25     .text:000000000000000c .L0 
     /tmp/ccnTg1dR.s:31     .text:000000000000001c .L0 
     /tmp/ccnTg1dR.s:34     .text:0000000000000024 .L0 
     /tmp/ccnTg1dR.s:35     .text:000000000000002c .L0 
     /tmp/ccnTg1dR.s:38     .text:0000000000000034 .L0 
     /tmp/ccnTg1dR.s:83     .text:000000000000007c .L0 
     /tmp/ccnTg1dR.s:200    .text:00000000000000f8 .L0 
     /tmp/ccnTg1dR.s:313    .text:00000000000001a4 .L0 
     /tmp/ccnTg1dR.s:317    .text:00000000000001b0 .L0 
     /tmp/ccnTg1dR.s:325    .text:00000000000001bc .L0 
GAS LISTING /tmp/ccnTg1dR.s 			page 17


     /tmp/ccnTg1dR.s:332    .text:00000000000001c8 .L0 
     /tmp/ccnTg1dR.s:45     .text:000000000000004c .L1
     /tmp/ccnTg1dR.s:134    .text:00000000000000b8 .L5
     /tmp/ccnTg1dR.s:172    .text:00000000000000e4 .L13
     /tmp/ccnTg1dR.s:186    .text:00000000000000f0 .L14
     /tmp/ccnTg1dR.s:154    .text:00000000000000cc .L4
     /tmp/ccnTg1dR.s:194    .text:00000000000000f8 .L10
     /tmp/ccnTg1dR.s:89     .text:0000000000000088 .L7
     /tmp/ccnTg1dR.s:149    .text:00000000000000c8 .L11
     /tmp/ccnTg1dR.s:246    .text:0000000000000148 .L15
     /tmp/ccnTg1dR.s:242    .text:0000000000000144 .L17
     /tmp/ccnTg1dR.s:264    .text:0000000000000160 .L19
     /tmp/ccnTg1dR.s:398    .text:0000000000000230 .L26
     /tmp/ccnTg1dR.s:402    .text:0000000000000238 .L27
     /tmp/ccnTg1dR.s:372    .text:0000000000000210 .L22
     /tmp/ccnTg1dR.s:388    .text:0000000000000220 .L25
     /tmp/ccnTg1dR.s:339    .text:00000000000001d8 .L23
     /tmp/ccnTg1dR.s:380    .text:0000000000000218 .L24
     /tmp/ccnTg1dR.s:355    .text:00000000000001f8 .L21
     /tmp/ccnTg1dR.s:1332   .debug_abbrev:0000000000000000 .Ldebug_abbrev0
     /tmp/ccnTg1dR.s:2420   .debug_str:0000000000000550 .LASF100
     /tmp/ccnTg1dR.s:2418   .debug_str:0000000000000538 .LASF101
     /tmp/ccnTg1dR.s:2314   .debug_str:00000000000001cd .LASF102
     /tmp/ccnTg1dR.s:8      .text:0000000000000000 .Ltext0
     /tmp/ccnTg1dR.s:508    .text:00000000000002a8 .Letext0
     /tmp/ccnTg1dR.s:2248   .debug_line:0000000000000000 .Ldebug_line0
     /tmp/ccnTg1dR.s:2320   .debug_str:0000000000000218 .LASF0
     /tmp/ccnTg1dR.s:2344   .debug_str:00000000000002e6 .LASF1
     /tmp/ccnTg1dR.s:2398   .debug_str:000000000000049c .LASF2
     /tmp/ccnTg1dR.s:2402   .debug_str:00000000000004c2 .LASF4
     /tmp/ccnTg1dR.s:2332   .debug_str:0000000000000279 .LASF3
     /tmp/ccnTg1dR.s:2252   .debug_str:0000000000000008 .LASF5
     /tmp/ccnTg1dR.s:2376   .debug_str:00000000000003f5 .LASF6
     /tmp/ccnTg1dR.s:2338   .debug_str:00000000000002bb .LASF7
     /tmp/ccnTg1dR.s:2300   .debug_str:0000000000000131 .LASF8
     /tmp/ccnTg1dR.s:2306   .debug_str:0000000000000170 .LASF9
     /tmp/ccnTg1dR.s:2272   .debug_str:0000000000000070 .LASF10
     /tmp/ccnTg1dR.s:2296   .debug_str:0000000000000119 .LASF11
     /tmp/ccnTg1dR.s:2278   .debug_str:0000000000000094 .LASF12
     /tmp/ccnTg1dR.s:2270   .debug_str:0000000000000060 .LASF13
     /tmp/ccnTg1dR.s:2424   .debug_str:000000000000061b .LASF14
     /tmp/ccnTg1dR.s:2290   .debug_str:00000000000000e2 .LASF15
     /tmp/ccnTg1dR.s:2416   .debug_str:0000000000000522 .LASF16
     /tmp/ccnTg1dR.s:2372   .debug_str:00000000000003bd .LASF33
     /tmp/ccnTg1dR.s:2370   .debug_str:00000000000003b0 .LASF29
     /tmp/ccnTg1dR.s:2274   .debug_str:000000000000007f .LASF17
     /tmp/ccnTg1dR.s:2342   .debug_str:00000000000002e1 .LASF18
     /tmp/ccnTg1dR.s:2318   .debug_str:000000000000020c .LASF35
     /tmp/ccnTg1dR.s:2444   .debug_str:0000000000000698 .LASF37
     /tmp/ccnTg1dR.s:2276   .debug_str:0000000000000084 .LASF19
     /tmp/ccnTg1dR.s:2374   .debug_str:00000000000003cd .LASF21
     /tmp/ccnTg1dR.s:2262   .debug_str:0000000000000038 .LASF23
     /tmp/ccnTg1dR.s:2380   .debug_str:000000000000041d .LASF25
     /tmp/ccnTg1dR.s:2364   .debug_str:0000000000000378 .LASF20
     /tmp/ccnTg1dR.s:2354   .debug_str:0000000000000322 .LASF22
     /tmp/ccnTg1dR.s:2414   .debug_str:0000000000000516 .LASF24
     /tmp/ccnTg1dR.s:2450   .debug_str:00000000000006de .LASF26
GAS LISTING /tmp/ccnTg1dR.s 			page 18


     /tmp/ccnTg1dR.s:2348   .debug_str:00000000000002ff .LASF27
     /tmp/ccnTg1dR.s:2334   .debug_str:000000000000028b .LASF28
     /tmp/ccnTg1dR.s:2352   .debug_str:0000000000000316 .LASF103
     /tmp/ccnTg1dR.s:2330   .debug_str:000000000000026f .LASF104
     /tmp/ccnTg1dR.s:2456   .debug_str:0000000000000729 .LASF105
     /tmp/ccnTg1dR.s:2390   .debug_str:0000000000000475 .LASF30
     /tmp/ccnTg1dR.s:2302   .debug_str:0000000000000141 .LASF31
     /tmp/ccnTg1dR.s:2388   .debug_str:0000000000000470 .LASF32
     /tmp/ccnTg1dR.s:2440   .debug_str:0000000000000688 .LASF34
     /tmp/ccnTg1dR.s:2394   .debug_str:000000000000048a .LASF79
     /tmp/ccnTg1dR.s:2310   .debug_str:0000000000000198 .LASF36
     /tmp/ccnTg1dR.s:2316   .debug_str:00000000000001f4 .LASF38
     /tmp/ccnTg1dR.s:2266   .debug_str:000000000000004e .LASF39
     /tmp/ccnTg1dR.s:2308   .debug_str:000000000000017e .LASF40
     /tmp/ccnTg1dR.s:2408   .debug_str:00000000000004e3 .LASF41
     /tmp/ccnTg1dR.s:2292   .debug_str:00000000000000f8 .LASF42
     /tmp/ccnTg1dR.s:2324   .debug_str:0000000000000248 .LASF43
     /tmp/ccnTg1dR.s:2446   .debug_str:00000000000006bc .LASF44
     /tmp/ccnTg1dR.s:2436   .debug_str:0000000000000675 .LASF47
     /tmp/ccnTg1dR.s:2432   .debug_str:0000000000000651 .LASF49
     /tmp/ccnTg1dR.s:2392   .debug_str:0000000000000481 .LASF45
     /tmp/ccnTg1dR.s:2368   .debug_str:000000000000039b .LASF46
     /tmp/ccnTg1dR.s:2382   .debug_str:0000000000000442 .LASF48
     /tmp/ccnTg1dR.s:2384   .debug_str:0000000000000449 .LASF50
     /tmp/ccnTg1dR.s:2362   .debug_str:0000000000000371 .LASF51
     /tmp/ccnTg1dR.s:2340   .debug_str:00000000000002ce .LASF52
     /tmp/ccnTg1dR.s:2448   .debug_str:00000000000006d6 .LASF53
     /tmp/ccnTg1dR.s:2430   .debug_str:000000000000063d .LASF54
     /tmp/ccnTg1dR.s:2360   .debug_str:0000000000000369 .LASF55
     /tmp/ccnTg1dR.s:2366   .debug_str:0000000000000387 .LASF56
     /tmp/ccnTg1dR.s:2350   .debug_str:000000000000030e .LASF57
     /tmp/ccnTg1dR.s:2386   .debug_str:000000000000045c .LASF58
     /tmp/ccnTg1dR.s:2460   .debug_str:0000000000000777 .LASF59
     /tmp/ccnTg1dR.s:2328   .debug_str:000000000000025b .LASF60
     /tmp/ccnTg1dR.s:2422   .debug_str:0000000000000614 .LASF61
     /tmp/ccnTg1dR.s:2404   .debug_str:00000000000004c9 .LASF62
     /tmp/ccnTg1dR.s:2406   .debug_str:00000000000004dc .LASF63
     /tmp/ccnTg1dR.s:2288   .debug_str:00000000000000cf .LASF64
     /tmp/ccnTg1dR.s:2286   .debug_str:00000000000000c9 .LASF65
     /tmp/ccnTg1dR.s:2256   .debug_str:000000000000001a .LASF66
     /tmp/ccnTg1dR.s:2326   .debug_str:0000000000000255 .LASF67
     /tmp/ccnTg1dR.s:2282   .debug_str:00000000000000ab .LASF68
     /tmp/ccnTg1dR.s:2254   .debug_str:000000000000000f .LASF69
     /tmp/ccnTg1dR.s:2400   .debug_str:00000000000004aa .LASF70
     /tmp/ccnTg1dR.s:2396   .debug_str:0000000000000491 .LASF71
     /tmp/ccnTg1dR.s:2458   .debug_str:000000000000075f .LASF72
     /tmp/ccnTg1dR.s:2442   .debug_str:000000000000068e .LASF73
     /tmp/ccnTg1dR.s:2452   .debug_str:0000000000000704 .LASF74
     /tmp/ccnTg1dR.s:2438   .debug_str:000000000000067e .LASF75
     /tmp/ccnTg1dR.s:2358   .debug_str:0000000000000353 .LASF76
     /tmp/ccnTg1dR.s:2434   .debug_str:0000000000000666 .LASF77
     /tmp/ccnTg1dR.s:2304   .debug_str:0000000000000154 .LASF78
     /tmp/ccnTg1dR.s:2280   .debug_str:00000000000000a4 .LASF80
     /tmp/ccnTg1dR.s:2250   .debug_str:0000000000000000 .LASF81
     /tmp/ccnTg1dR.s:2264   .debug_str:0000000000000045 .LASF82
     /tmp/ccnTg1dR.s:2294   .debug_str:0000000000000113 .LASF83
     /tmp/ccnTg1dR.s:2346   .debug_str:00000000000002f9 .LASF84
GAS LISTING /tmp/ccnTg1dR.s 			page 19


     /tmp/ccnTg1dR.s:2426   .debug_str:0000000000000627 .LASF85
     /tmp/ccnTg1dR.s:2356   .debug_str:0000000000000349 .LASF86
     /tmp/ccnTg1dR.s:2428   .debug_str:0000000000000631 .LASF87
     /tmp/ccnTg1dR.s:2284   .debug_str:00000000000000bd .LASF88
     /tmp/ccnTg1dR.s:2378   .debug_str:0000000000000408 .LASF89
     /tmp/ccnTg1dR.s:2336   .debug_str:0000000000000299 .LASF91
     /tmp/ccnTg1dR.s:2454   .debug_str:000000000000071a .LASF90
     /tmp/ccnTg1dR.s:2412   .debug_str:00000000000004fa .LASF92
     /tmp/ccnTg1dR.s:2322   .debug_str:0000000000000225 .LASF93
     /tmp/ccnTg1dR.s:2312   .debug_str:00000000000001a3 .LASF94
     /tmp/ccnTg1dR.s:455    .text:0000000000000274 .LFB37
     /tmp/ccnTg1dR.s:492    .text:00000000000002a8 .LFE37
     /tmp/ccnTg1dR.s:2268   .debug_str:000000000000005b .LASF95
     /tmp/ccnTg1dR.s:1971   .debug_loc:0000000000000000 .LLST13
     /tmp/ccnTg1dR.s:1985   .debug_loc:0000000000000039 .LLST14
     /tmp/ccnTg1dR.s:470    .text:000000000000028c .LVL37
     /tmp/ccnTg1dR.s:481    .text:0000000000000298 .LVL38
     /tmp/ccnTg1dR.s:412    .text:0000000000000240 .LFB36
     /tmp/ccnTg1dR.s:449    .text:0000000000000274 .LFE36
     /tmp/ccnTg1dR.s:1992   .debug_loc:000000000000005c .LLST11
     /tmp/ccnTg1dR.s:2006   .debug_loc:0000000000000095 .LLST12
     /tmp/ccnTg1dR.s:427    .text:0000000000000258 .LVL34
     /tmp/ccnTg1dR.s:438    .text:0000000000000264 .LVL35
     /tmp/ccnTg1dR.s:209    .text:0000000000000104 .LFB35
     /tmp/ccnTg1dR.s:280    .text:000000000000017c .LFE35
     /tmp/ccnTg1dR.s:2013   .debug_loc:00000000000000b8 .LLST5
     /tmp/ccnTg1dR.s:2035   .debug_loc:0000000000000117 .LLST6
     /tmp/ccnTg1dR.s:230    .text:000000000000012c .LVL14
     /tmp/ccnTg1dR.s:286    .text:000000000000017c .LFB34
     /tmp/ccnTg1dR.s:406    .text:0000000000000240 .LFE34
     /tmp/ccnTg1dR.s:2057   .debug_loc:0000000000000176 .LLST7
     /tmp/ccnTg1dR.s:2258   .debug_str:000000000000002c .LASF96
     /tmp/ccnTg1dR.s:2081   .debug_loc:00000000000001d7 .LLST8
     /tmp/ccnTg1dR.s:2260   .debug_str:0000000000000033 .LASF97
     /tmp/ccnTg1dR.s:2101   .debug_loc:0000000000000225 .LLST9
     /tmp/ccnTg1dR.s:2298   .debug_str:0000000000000128 .LASF98
     /tmp/ccnTg1dR.s:2125   .debug_loc:0000000000000295 .LLST10
     /tmp/ccnTg1dR.s:306    .text:00000000000001a0 .LVL19
     /tmp/ccnTg1dR.s:344    .text:00000000000001e4 .LVL24
     /tmp/ccnTg1dR.s:350    .text:00000000000001f4 .LVL25
     /tmp/ccnTg1dR.s:60     .text:0000000000000058 .LFB33
     /tmp/ccnTg1dR.s:203    .text:0000000000000104 .LFE33
     /tmp/ccnTg1dR.s:2159   .debug_loc:000000000000032d .LLST0
     /tmp/ccnTg1dR.s:2181   .debug_loc:000000000000038c .LLST1
     /tmp/ccnTg1dR.s:2197   .debug_loc:00000000000003d6 .LLST2
     /tmp/ccnTg1dR.s:2217   .debug_loc:0000000000000433 .LLST3
     /tmp/ccnTg1dR.s:113    .text:00000000000000a0 .LBB5
     /tmp/ccnTg1dR.s:135    .text:00000000000000b8 .LBE5
     /tmp/ccnTg1dR.s:2410   .debug_str:00000000000004f1 .LASF99
     /tmp/ccnTg1dR.s:2228   .debug_loc:0000000000000469 .LLST4
     /tmp/ccnTg1dR.s:80     .text:000000000000007c .LVL1
     /tmp/ccnTg1dR.s:13     .text:0000000000000000 .LFB32
     /tmp/ccnTg1dR.s:54     .text:0000000000000058 .LFE32
     /tmp/ccnTg1dR.s:458    .text:0000000000000274 .LVL36
     /tmp/ccnTg1dR.s:415    .text:0000000000000240 .LVL33
     /tmp/ccnTg1dR.s:212    .text:0000000000000104 .LVL13
     /tmp/ccnTg1dR.s:256    .text:0000000000000154 .LVL15
GAS LISTING /tmp/ccnTg1dR.s 			page 20


     /tmp/ccnTg1dR.s:263    .text:0000000000000160 .LVL17
     /tmp/ccnTg1dR.s:259    .text:0000000000000158 .LVL16
     /tmp/ccnTg1dR.s:289    .text:000000000000017c .LVL18
     /tmp/ccnTg1dR.s:310    .text:00000000000001a4 .LVL20
     /tmp/ccnTg1dR.s:365    .text:0000000000000204 .LVL27
     /tmp/ccnTg1dR.s:371    .text:0000000000000210 .LVL28
     /tmp/ccnTg1dR.s:321    .text:00000000000001bc .LVL21
     /tmp/ccnTg1dR.s:338    .text:00000000000001d8 .LVL23
     /tmp/ccnTg1dR.s:354    .text:00000000000001f8 .LVL26
     /tmp/ccnTg1dR.s:382    .text:0000000000000218 .LVL30
     /tmp/ccnTg1dR.s:387    .text:0000000000000220 .LVL31
     /tmp/ccnTg1dR.s:397    .text:0000000000000230 .LVL32
     /tmp/ccnTg1dR.s:329    .text:00000000000001c8 .LVL22
     /tmp/ccnTg1dR.s:378    .text:0000000000000214 .LVL29
     /tmp/ccnTg1dR.s:63     .text:0000000000000058 .LVL0
     /tmp/ccnTg1dR.s:164    .text:00000000000000d8 .LVL8
     /tmp/ccnTg1dR.s:171    .text:00000000000000e4 .LVL10
     /tmp/ccnTg1dR.s:84     .text:0000000000000084 .LVL2
     /tmp/ccnTg1dR.s:153    .text:00000000000000cc .LVL7
     /tmp/ccnTg1dR.s:183    .text:00000000000000ec .LVL11
     /tmp/ccnTg1dR.s:88     .text:0000000000000088 .LVL3
     /tmp/ccnTg1dR.s:124    .text:00000000000000ac .LVL5
     /tmp/ccnTg1dR.s:167    .text:00000000000000dc .LVL9
     /tmp/ccnTg1dR.s:192    .text:00000000000000f4 .LVL12
     /tmp/ccnTg1dR.s:117    .text:00000000000000a4 .LVL4
     /tmp/ccnTg1dR.s:133    .text:00000000000000b8 .LVL6
     /tmp/ccnTg1dR.s:513    .debug_info:0000000000000000 .Ldebug_info0

UNDEFINED SYMBOLS
HEAP_START_ADDR
HEAP_END_ADDR
_ZN5Riscv12setA0onStackEv
