GAS LISTING /tmp/cc28tSsR.s 			page 1


   1              		.file	"Semaphore.cpp"
   2              		.option nopic
   3              		.option norelax
   4              		.attribute arch, "rv64i2p0_m2p0_a2p0"
   5              		.attribute unaligned_access, 0
   6              		.attribute stack_align, 16
   7              		.text
   8              	.Ltext0:
   9              		.align	2
  11              	_Z41__static_initialization_and_destruction_0ii:
  12              	.LFB72:
  13              		.file 1 "src/Semaphore.cpp"
   1:src/Semaphore.cpp **** 
   2:src/Semaphore.cpp **** #include "../h/Semaphore.hpp"
   3:src/Semaphore.cpp **** #include "../h/Riscv.hpp"
   4:src/Semaphore.cpp **** #include "../h/MemoryAllocator.hpp"
   5:src/Semaphore.cpp **** 
   6:src/Semaphore.cpp **** List<mySemaphore> mySemaphore::allSemaphores;
   7:src/Semaphore.cpp **** 
   8:src/Semaphore.cpp **** void *mySemaphore::operator new(size_t size) {
   9:src/Semaphore.cpp ****     size_t numofBlocks = (size + MemoryAllocator::HEADER_SIZE + MEM_BLOCK_SIZE - 1)/MEM_BLOCK_SIZE;
  10:src/Semaphore.cpp ****     return MemoryAllocator::my_mem_alloc(numofBlocks);
  11:src/Semaphore.cpp **** }
  12:src/Semaphore.cpp **** 
  13:src/Semaphore.cpp **** void mySemaphore::operator delete(void *p) {
  14:src/Semaphore.cpp ****     MemoryAllocator::my_mem_free(p);
  15:src/Semaphore.cpp **** }
  16:src/Semaphore.cpp **** 
  17:src/Semaphore.cpp **** mySemaphore::mySemaphore(int val) : value(val), startValue(val) {}
  18:src/Semaphore.cpp **** 
  19:src/Semaphore.cpp **** mySemaphore::~mySemaphore() {
  20:src/Semaphore.cpp ****     while (suspendedTCBs.peekFirst() != nullptr) {
  21:src/Semaphore.cpp ****         TCB* tmp = suspendedTCBs.peekFirst();
  22:src/Semaphore.cpp ****         suspendedTCBs.removeFirst();
  23:src/Semaphore.cpp ****         tmp->returnedValFromWaits = SEMDEAD;
  24:src/Semaphore.cpp ****         Scheduler::put(tmp);
  25:src/Semaphore.cpp ****     }
  26:src/Semaphore.cpp **** }
  27:src/Semaphore.cpp **** 
  28:src/Semaphore.cpp **** int mySemaphore::tryWait() {
  29:src/Semaphore.cpp ****     if (value > 0) {
  30:src/Semaphore.cpp ****         //semaphore is not locked -> thread will not block
  31:src/Semaphore.cpp ****         --value;
  32:src/Semaphore.cpp ****         return 1;
  33:src/Semaphore.cpp ****     }
  34:src/Semaphore.cpp ****     return 0;
  35:src/Semaphore.cpp **** }
  36:src/Semaphore.cpp **** 
  37:src/Semaphore.cpp **** int mySemaphore::wait(uint64 time) {
  38:src/Semaphore.cpp ****     if (--value < 0) {
  39:src/Semaphore.cpp ****         block(time);
  40:src/Semaphore.cpp ****     }
  41:src/Semaphore.cpp ****     return 0;
  42:src/Semaphore.cpp **** }
  43:src/Semaphore.cpp **** 
  44:src/Semaphore.cpp **** int mySemaphore::signal() {
  45:src/Semaphore.cpp ****     if (++value <= 0) {
GAS LISTING /tmp/cc28tSsR.s 			page 2


  46:src/Semaphore.cpp ****         unblock();
  47:src/Semaphore.cpp ****     }
  48:src/Semaphore.cpp ****     return 0;
  49:src/Semaphore.cpp **** }
  50:src/Semaphore.cpp **** 
  51:src/Semaphore.cpp **** void mySemaphore::block(uint64 time) {
  52:src/Semaphore.cpp ****     TCB::running->setStatus(SUSPENDED);
  53:src/Semaphore.cpp ****     suspendedTCBs.addLast(TCB::running, time);
  54:src/Semaphore.cpp ****     TCB::dispatch();
  55:src/Semaphore.cpp **** }
  56:src/Semaphore.cpp **** 
  57:src/Semaphore.cpp **** void mySemaphore::unblock() {
  58:src/Semaphore.cpp ****     TCB* tmp = suspendedTCBs.peekFirst();
  59:src/Semaphore.cpp ****     suspendedTCBs.removeFirst();
  60:src/Semaphore.cpp ****     if (tmp) {
  61:src/Semaphore.cpp ****         Scheduler::put(tmp);
  62:src/Semaphore.cpp ****     }
  63:src/Semaphore.cpp **** }
  64:src/Semaphore.cpp **** 
  65:src/Semaphore.cpp **** void mySemaphore::tryToUnblockTimer() {                     //tail!? i povratna vrednost kad nije t
  66:src/Semaphore.cpp ****     List<mySemaphore>::Node *sem = allSemaphores.head;
  67:src/Semaphore.cpp ****     while (sem) {
  68:src/Semaphore.cpp **** 
  69:src/Semaphore.cpp ****         mySemaphore* curSem = sem->data;
  70:src/Semaphore.cpp ****         List<TCB>::Node* cur = curSem->suspendedTCBs.head;
  71:src/Semaphore.cpp ****         List<TCB>::Node* prev = nullptr;
  72:src/Semaphore.cpp **** 
  73:src/Semaphore.cpp ****         while (cur) {
  74:src/Semaphore.cpp **** 
  75:src/Semaphore.cpp ****             if (cur->timeBlockOrSleep == 0) {
  76:src/Semaphore.cpp ****                 prev = cur;
  77:src/Semaphore.cpp ****                 cur = cur->next;
  78:src/Semaphore.cpp ****                 continue;
  79:src/Semaphore.cpp ****             }
  80:src/Semaphore.cpp **** 
  81:src/Semaphore.cpp ****             if (--(cur->timeBlockOrSleep) == 0) {
  82:src/Semaphore.cpp ****                 List<TCB>::Node* tmp = cur;
  83:src/Semaphore.cpp ****                 cur->data->returnedValFromWaits = TIMEOUT;          //TIMEOUT = -2
  84:src/Semaphore.cpp ****                 Scheduler::put(cur->data);
  85:src/Semaphore.cpp ****                 if (prev) {
  86:src/Semaphore.cpp ****                     prev->next = cur->next;
  87:src/Semaphore.cpp ****                 } else {
  88:src/Semaphore.cpp ****                     curSem->suspendedTCBs.head = cur->next;
  89:src/Semaphore.cpp ****                 }
  90:src/Semaphore.cpp ****                 if (curSem->suspendedTCBs.tail == cur) {
  91:src/Semaphore.cpp ****                     curSem->suspendedTCBs.tail = prev;
  92:src/Semaphore.cpp ****                 }
  93:src/Semaphore.cpp ****                 cur = cur->next;
  94:src/Semaphore.cpp ****                 delete tmp;
  95:src/Semaphore.cpp ****                 continue;
  96:src/Semaphore.cpp ****             }
  97:src/Semaphore.cpp ****             prev = cur;
  98:src/Semaphore.cpp ****             cur = cur->next;
  99:src/Semaphore.cpp ****         }
 100:src/Semaphore.cpp ****         sem = sem->next;
 101:src/Semaphore.cpp ****     }
 102:src/Semaphore.cpp **** }
GAS LISTING /tmp/cc28tSsR.s 			page 3


 103:src/Semaphore.cpp **** 
 104:src/Semaphore.cpp **** 
 105:src/Semaphore.cpp **** //ECALL handlers
 106:src/Semaphore.cpp **** void mySemaphore::prepareSemOpen(mySemaphore **handle, unsigned int init) {
 107:src/Semaphore.cpp ****     (*handle) = new mySemaphore(init);
 108:src/Semaphore.cpp ****     allSemaphores.addLast(*handle);
 109:src/Semaphore.cpp **** 
 110:src/Semaphore.cpp ****     if (!(*handle)) {
 111:src/Semaphore.cpp ****         __asm__ volatile("li a0, 0xffffffffffffffff");           //unsuccessful alloc ret = -1
 112:src/Semaphore.cpp ****     } else {
 113:src/Semaphore.cpp ****         __asm__ volatile("li a0, 0");
 114:src/Semaphore.cpp ****     }
 115:src/Semaphore.cpp **** 
 116:src/Semaphore.cpp ****     //save a0 on old context stack
 117:src/Semaphore.cpp ****     Riscv::setA0onStack();
 118:src/Semaphore.cpp **** }
 119:src/Semaphore.cpp **** 
 120:src/Semaphore.cpp **** void mySemaphore::prepareSemClose(mySemaphore *handle) {
 121:src/Semaphore.cpp ****     if (handle) {
 122:src/Semaphore.cpp ****         List<mySemaphore>::Node *cur = allSemaphores.head;
 123:src/Semaphore.cpp ****         List<mySemaphore>::Node *prev = nullptr;
 124:src/Semaphore.cpp ****         while (cur->data != handle) {
 125:src/Semaphore.cpp ****             prev = cur;
 126:src/Semaphore.cpp ****             cur = cur->next;
 127:src/Semaphore.cpp ****         }
 128:src/Semaphore.cpp ****         if (!cur) {
 129:src/Semaphore.cpp ****             __asm__ volatile("li a0, 0xffffffffffffffff");
 130:src/Semaphore.cpp ****         } else {
 131:src/Semaphore.cpp ****             if (prev) {
 132:src/Semaphore.cpp ****                 prev->next = cur->next;
 133:src/Semaphore.cpp ****             } else {
 134:src/Semaphore.cpp ****                 allSemaphores.head = cur->next;
 135:src/Semaphore.cpp ****             }
 136:src/Semaphore.cpp ****             if (allSemaphores.tail == cur) {
 137:src/Semaphore.cpp ****                 allSemaphores.tail = prev;
 138:src/Semaphore.cpp ****             }
 139:src/Semaphore.cpp ****             //unblock all threads
 140:src/Semaphore.cpp ****             while (handle->suspendedTCBs.peekFirst()) {
 141:src/Semaphore.cpp ****                 TCB* curTCB = handle->suspendedTCBs.removeFirst();
 142:src/Semaphore.cpp ****                 curTCB->returnedValFromWaits = SEMDEAD;
 143:src/Semaphore.cpp ****                 Scheduler::put(curTCB);
 144:src/Semaphore.cpp ****             }
 145:src/Semaphore.cpp ****             delete handle;
 146:src/Semaphore.cpp ****             __asm__ volatile("li a0, 0");
 147:src/Semaphore.cpp ****         }
 148:src/Semaphore.cpp ****     } else {
 149:src/Semaphore.cpp ****         __asm__ volatile("li a0, 0xffffffffffffffff");
 150:src/Semaphore.cpp ****     }
 151:src/Semaphore.cpp **** 
 152:src/Semaphore.cpp ****     //save a0 on old context stack
 153:src/Semaphore.cpp ****     Riscv::setA0onStack();
 154:src/Semaphore.cpp **** }
 155:src/Semaphore.cpp **** 
 156:src/Semaphore.cpp **** void mySemaphore::prepareSemWait(mySemaphore *id) {
 157:src/Semaphore.cpp ****     //init return
 158:src/Semaphore.cpp ****     TCB::running->returnedValFromWaits = 0;
 159:src/Semaphore.cpp ****     id->wait();
GAS LISTING /tmp/cc28tSsR.s 			page 4


 160:src/Semaphore.cpp **** 
 161:src/Semaphore.cpp ****     //ret value
 162:src/Semaphore.cpp ****     if (TCB::running->returnedValFromWaits == SEMDEAD) {
 163:src/Semaphore.cpp ****         __asm__ volatile("li a0, 0xffffffffffffffff");
 164:src/Semaphore.cpp ****     } else if (TCB::running->returnedValFromWaits == TIMEOUT) {
 165:src/Semaphore.cpp ****         __asm__ volatile("li a0, 0xfffffffffffffffe");
 166:src/Semaphore.cpp ****     } else {
 167:src/Semaphore.cpp ****         __asm__ volatile("li a0, 0");
 168:src/Semaphore.cpp ****     }
 169:src/Semaphore.cpp **** 
 170:src/Semaphore.cpp ****     //save a0 on old context stack
 171:src/Semaphore.cpp ****     Riscv::setA0onStack();
 172:src/Semaphore.cpp **** }
 173:src/Semaphore.cpp **** 
 174:src/Semaphore.cpp **** void mySemaphore::prepareSemSignal(mySemaphore *id) {
 175:src/Semaphore.cpp ****     if (id) {
 176:src/Semaphore.cpp ****         id->signal();
 177:src/Semaphore.cpp ****         __asm__ volatile("li a0, 0");
 178:src/Semaphore.cpp ****     } else {
 179:src/Semaphore.cpp ****         __asm__ volatile("li a0, 0xffffffffffffffff");
 180:src/Semaphore.cpp ****     }
 181:src/Semaphore.cpp **** 
 182:src/Semaphore.cpp ****     //save a0 on old context stack
 183:src/Semaphore.cpp ****     Riscv::setA0onStack();
 184:src/Semaphore.cpp **** }
 185:src/Semaphore.cpp **** 
 186:src/Semaphore.cpp **** void mySemaphore::prepareSemTimedWait(mySemaphore *id, time_t timeout) {
 187:src/Semaphore.cpp ****     id->wait(timeout);
 188:src/Semaphore.cpp **** 
 189:src/Semaphore.cpp ****     //ret value
 190:src/Semaphore.cpp ****     if (TCB::running->returnedValFromWaits == SEMDEAD) {
 191:src/Semaphore.cpp ****         __asm__ volatile("li a0, 0xffffffffffffffff");
 192:src/Semaphore.cpp ****     } else if (TCB::running->returnedValFromWaits == TIMEOUT) {
 193:src/Semaphore.cpp ****         __asm__ volatile("li a0, 0xfffffffffffffffe");
 194:src/Semaphore.cpp ****     } else {
 195:src/Semaphore.cpp ****         __asm__ volatile("li a0, 0");
 196:src/Semaphore.cpp ****     }
 197:src/Semaphore.cpp **** 
 198:src/Semaphore.cpp ****     //save a0 on old context stack
 199:src/Semaphore.cpp ****     Riscv::setA0onStack();
 200:src/Semaphore.cpp **** }
 201:src/Semaphore.cpp **** 
 202:src/Semaphore.cpp **** void mySemaphore::prepareSemTryWait(mySemaphore *id) {
 203:src/Semaphore.cpp ****     uint64 res;
 204:src/Semaphore.cpp ****     if (id) {
 205:src/Semaphore.cpp ****         res = id->tryWait();
 206:src/Semaphore.cpp ****         __asm__ volatile("mv a0, %0" : : "r"(res));
 207:src/Semaphore.cpp ****     } else {
 208:src/Semaphore.cpp ****         __asm__ volatile("li a0, 0xffffffffffffffff");
 209:src/Semaphore.cpp ****     }
 210:src/Semaphore.cpp **** 
 211:src/Semaphore.cpp ****     //save a0 on old context stack
 212:src/Semaphore.cpp ****     Riscv::setA0onStack();
 213:src/Semaphore.cpp **** }
  14              		.loc 1 213 1
  15              		.cfi_startproc
  16              	.LVL0:
GAS LISTING /tmp/cc28tSsR.s 			page 5


  17 0000 130101FF 		addi	sp,sp,-16
  18              		.cfi_def_cfa_offset 16
  19 0004 23348100 		sd	s0,8(sp)
  20              		.cfi_offset 8, -8
  21 0008 13040101 		addi	s0,sp,16
  22              		.cfi_def_cfa 8, 0
  23              		.loc 1 213 1 is_stmt 0
  24 000c 93071000 		li	a5,1
  25 0010 6308F500 		beq	a0,a5,.L4
  26              	.L1:
  27 0014 03348100 		ld	s0,8(sp)
  28              		.cfi_remember_state
  29              		.cfi_restore 8
  30              		.cfi_def_cfa 2, 16
  31 0018 13010101 		addi	sp,sp,16
  32              		.cfi_def_cfa_offset 0
  33 001c 67800000 		jr	ra
  34              	.L4:
  35              		.cfi_restore_state
  36              		.loc 1 213 1 discriminator 1
  37 0020 B7070100 		li	a5,65536
  38 0024 9387F7FF 		addi	a5,a5,-1
  39 0028 E396F5FE 		bne	a1,a5,.L1
  40              	.LVL1:
  41              	.LBB63:
  42              	.LBB64:
  43              	.LBB65:
  44              		.file 2 "src/../h/../h/list.hpp"
   1:src/../h/../h/list.hpp **** 
   2:src/../h/../h/list.hpp **** #ifndef PROJECT_BASE_LIST_HPP
   3:src/../h/../h/list.hpp **** #define PROJECT_BASE_LIST_HPP
   4:src/../h/../h/list.hpp **** 
   5:src/../h/../h/list.hpp **** #include "MemoryAllocator.hpp"
   6:src/../h/../h/list.hpp **** #include "../h/print.hpp"
   7:src/../h/../h/list.hpp **** 
   8:src/../h/../h/list.hpp **** 
   9:src/../h/../h/list.hpp **** //dato na vezbama! - dodato je polje za vreme i preklopljeni su operatori new i delete
  10:src/../h/../h/list.hpp **** template<typename T>
  11:src/../h/../h/list.hpp **** class List {
  12:src/../h/../h/list.hpp **** private:
  13:src/../h/../h/list.hpp ****     struct Node {
  14:src/../h/../h/list.hpp ****         T *data;
  15:src/../h/../h/list.hpp ****         Node *next;
  16:src/../h/../h/list.hpp ****         time_t timeBlockOrSleep;
  17:src/../h/../h/list.hpp ****         Node(T *data, Node *next, uint64 time = 0) : data(data), next(next), timeBlockOrSleep(time)
  18:src/../h/../h/list.hpp **** 
  19:src/../h/../h/list.hpp ****         void* operator new(size_t size) {
  20:src/../h/../h/list.hpp ****             size_t numofBlocks = (size + MemoryAllocator::HEADER_SIZE + MEM_BLOCK_SIZE - 1)/MEM_BLO
  21:src/../h/../h/list.hpp ****             return MemoryAllocator::my_mem_alloc(numofBlocks);
  22:src/../h/../h/list.hpp ****         }
  23:src/../h/../h/list.hpp ****         void operator delete(void *p) {
  24:src/../h/../h/list.hpp ****             MemoryAllocator::my_mem_free(p);
  25:src/../h/../h/list.hpp ****         }
  26:src/../h/../h/list.hpp ****     };
  27:src/../h/../h/list.hpp ****     Node *head, *tail;
  28:src/../h/../h/list.hpp **** 
  29:src/../h/../h/list.hpp **** public:
GAS LISTING /tmp/cc28tSsR.s 			page 6


  30:src/../h/../h/list.hpp ****     List() : head(0), tail(0) {}
  45              		.loc 2 30 29
  46 002c 97070000 		lla	a5,.LANCHOR0
  46      93870700 
  47 0034 23B00700 		sd	zero,0(a5)
  48 0038 23B40700 		sd	zero,8(a5)
  49              	.LVL2:
  50              	.LBE65:
  51              	.LBE64:
  52              	.LBE63:
  53              		.loc 1 213 1
  54 003c 6FF09FFD 		j	.L1
  55              		.cfi_endproc
  56              	.LFE72:
  58              		.align	2
  59              		.globl	_ZN11mySemaphorenwEm
  61              	_ZN11mySemaphorenwEm:
  62              	.LFB32:
   8:src/Semaphore.cpp ****     size_t numofBlocks = (size + MemoryAllocator::HEADER_SIZE + MEM_BLOCK_SIZE - 1)/MEM_BLOCK_SIZE;
  63              		.loc 1 8 46 is_stmt 1
  64              		.cfi_startproc
  65              	.LVL3:
  66 0040 130101FF 		addi	sp,sp,-16
  67              		.cfi_def_cfa_offset 16
  68 0044 23341100 		sd	ra,8(sp)
  69 0048 23308100 		sd	s0,0(sp)
  70              		.cfi_offset 1, -8
  71              		.cfi_offset 8, -16
  72 004c 13040101 		addi	s0,sp,16
  73              		.cfi_def_cfa 8, 0
   9:src/Semaphore.cpp ****     return MemoryAllocator::my_mem_alloc(numofBlocks);
  74              		.loc 1 9 5
   9:src/Semaphore.cpp ****     return MemoryAllocator::my_mem_alloc(numofBlocks);
  75              		.loc 1 9 80 is_stmt 0
  76 0050 1305F504 		addi	a0,a0,79
  77              	.LVL4:
  10:src/Semaphore.cpp **** }
  78              		.loc 1 10 5 is_stmt 1
  10:src/Semaphore.cpp **** }
  79              		.loc 1 10 41 is_stmt 0
  80 0054 13556500 		srli	a0,a0,6
  81              	.LVL5:
  82 0058 97000000 		call	_ZN15MemoryAllocator12my_mem_allocEm
  82      E7800000 
  83              	.LVL6:
  11:src/Semaphore.cpp **** 
  84              		.loc 1 11 1
  85 0060 83308100 		ld	ra,8(sp)
  86              		.cfi_restore 1
  87 0064 03340100 		ld	s0,0(sp)
  88              		.cfi_restore 8
  89              		.cfi_def_cfa 2, 16
  90 0068 13010101 		addi	sp,sp,16
  91              		.cfi_def_cfa_offset 0
  92 006c 67800000 		jr	ra
  93              		.cfi_endproc
  94              	.LFE32:
GAS LISTING /tmp/cc28tSsR.s 			page 7


  96              		.align	2
  97              		.globl	_ZN11mySemaphoredlEPv
  99              	_ZN11mySemaphoredlEPv:
 100              	.LFB33:
  13:src/Semaphore.cpp ****     MemoryAllocator::my_mem_free(p);
 101              		.loc 1 13 44 is_stmt 1
 102              		.cfi_startproc
 103              	.LVL7:
 104 0070 130101FF 		addi	sp,sp,-16
 105              		.cfi_def_cfa_offset 16
 106 0074 23341100 		sd	ra,8(sp)
 107 0078 23308100 		sd	s0,0(sp)
 108              		.cfi_offset 1, -8
 109              		.cfi_offset 8, -16
 110 007c 13040101 		addi	s0,sp,16
 111              		.cfi_def_cfa 8, 0
  14:src/Semaphore.cpp **** }
 112              		.loc 1 14 5
  14:src/Semaphore.cpp **** }
 113              		.loc 1 14 33 is_stmt 0
 114 0080 97000000 		call	_ZN15MemoryAllocator11my_mem_freeEPKv
 114      E7800000 
 115              	.LVL8:
  15:src/Semaphore.cpp **** 
 116              		.loc 1 15 1
 117 0088 83308100 		ld	ra,8(sp)
 118              		.cfi_restore 1
 119 008c 03340100 		ld	s0,0(sp)
 120              		.cfi_restore 8
 121              		.cfi_def_cfa 2, 16
 122 0090 13010101 		addi	sp,sp,16
 123              		.cfi_def_cfa_offset 0
 124 0094 67800000 		jr	ra
 125              		.cfi_endproc
 126              	.LFE33:
 128              		.align	2
 129              		.globl	_ZN11mySemaphoreC2Ei
 131              	_ZN11mySemaphoreC2Ei:
 132              	.LFB35:
  17:src/Semaphore.cpp **** 
 133              		.loc 1 17 1 is_stmt 1
 134              		.cfi_startproc
 135              	.LVL9:
 136 0098 130101FF 		addi	sp,sp,-16
 137              		.cfi_def_cfa_offset 16
 138 009c 23348100 		sd	s0,8(sp)
 139              		.cfi_offset 8, -8
 140 00a0 13040101 		addi	s0,sp,16
 141              		.cfi_def_cfa 8, 0
 142              	.LBB66:
  17:src/Semaphore.cpp **** 
 143              		.loc 1 17 63 is_stmt 0
 144 00a4 2320B500 		sw	a1,0(a0)
 145 00a8 2322B500 		sw	a1,4(a0)
 146              	.LVL10:
 147              	.LBB67:
 148              	.LBB68:
GAS LISTING /tmp/cc28tSsR.s 			page 8


 149              		.loc 2 30 29
 150 00ac 23340500 		sd	zero,8(a0)
 151 00b0 23380500 		sd	zero,16(a0)
 152              	.LVL11:
 153              	.LBE68:
 154              	.LBE67:
 155              	.LBE66:
  17:src/Semaphore.cpp **** 
 156              		.loc 1 17 66
 157 00b4 03348100 		ld	s0,8(sp)
 158              		.cfi_restore 8
 159              		.cfi_def_cfa 2, 16
 160 00b8 13010101 		addi	sp,sp,16
 161              		.cfi_def_cfa_offset 0
 162 00bc 67800000 		jr	ra
 163              		.cfi_endproc
 164              	.LFE35:
 166              		.globl	_ZN11mySemaphoreC1Ei
 167              		.set	_ZN11mySemaphoreC1Ei,_ZN11mySemaphoreC2Ei
 168              		.align	2
 169              		.globl	_ZN11mySemaphoreD2Ev
 171              	_ZN11mySemaphoreD2Ev:
 172              	.LFB38:
  19:src/Semaphore.cpp ****     while (suspendedTCBs.peekFirst() != nullptr) {
 173              		.loc 1 19 1 is_stmt 1
 174              		.cfi_startproc
 175              		.cfi_personality 0x9b,DW.ref.__gxx_personality_v0
 176              		.cfi_lsda 0x1b,.LLSDA38
 177              	.LVL12:
 178 00c0 130101FE 		addi	sp,sp,-32
 179              		.cfi_def_cfa_offset 32
 180 00c4 233C1100 		sd	ra,24(sp)
 181 00c8 23388100 		sd	s0,16(sp)
 182 00cc 23349100 		sd	s1,8(sp)
 183 00d0 23302101 		sd	s2,0(sp)
 184              		.cfi_offset 1, -8
 185              		.cfi_offset 8, -16
 186              		.cfi_offset 9, -24
 187              		.cfi_offset 18, -32
 188 00d4 13040102 		addi	s0,sp,32
 189              		.cfi_def_cfa 8, 0
 190 00d8 93040500 		mv	s1,a0
 191 00dc 6F004002 		j	.L15
 192              	.LVL13:
 193              	.L17:
 194              	.LBB79:
 195              	.LBB80:
 196              	.LBB81:
 197              	.LBB82:
  31:src/../h/../h/list.hpp ****     List(const List<T> &) = delete;
  32:src/../h/../h/list.hpp **** 
  33:src/../h/../h/list.hpp ****     List<T> &operator=(const List<T> &) = delete;
  34:src/../h/../h/list.hpp **** 
  35:src/../h/../h/list.hpp ****     void addFirst(T *data, time_t time = 0) {
  36:src/../h/../h/list.hpp ****         Node *elem = new Node(data, head, time);
  37:src/../h/../h/list.hpp ****         head = elem;
  38:src/../h/../h/list.hpp ****         if (!tail) { tail = head; }
GAS LISTING /tmp/cc28tSsR.s 			page 9


  39:src/../h/../h/list.hpp ****     }
  40:src/../h/../h/list.hpp **** 
  41:src/../h/../h/list.hpp ****     void addLast(T *data, time_t time = 0) {
  42:src/../h/../h/list.hpp ****         Node *elem = new Node(data, 0, time);
  43:src/../h/../h/list.hpp ****         if (tail) {
  44:src/../h/../h/list.hpp ****             tail->next = elem;
  45:src/../h/../h/list.hpp ****             tail = elem;
  46:src/../h/../h/list.hpp ****         } else {
  47:src/../h/../h/list.hpp ****             head = tail = elem;
  48:src/../h/../h/list.hpp ****         }
  49:src/../h/../h/list.hpp ****     }
  50:src/../h/../h/list.hpp **** 
  51:src/../h/../h/list.hpp ****     T *removeFirst() {
  52:src/../h/../h/list.hpp ****         if (!head) { return 0; }
  53:src/../h/../h/list.hpp **** 
  54:src/../h/../h/list.hpp ****         Node *elem = head;
  55:src/../h/../h/list.hpp ****         head = head->next;
  56:src/../h/../h/list.hpp ****         if (!head) { tail = 0; }
 198              		.loc 2 56 22 is_stmt 0
 199 00e0 23B80400 		sd	zero,16(s1)
 200              	.L14:
 201              	.LVL14:
 202              	.LBB83:
 203              	.LBB84:
  24:src/../h/../h/list.hpp ****         }
 204              		.loc 2 24 41
 205 00e4 97000000 		call	_ZN15MemoryAllocator11my_mem_freeEPKv
 205      E7800000 
 206              	.LVL15:
 207              	.L13:
 208              	.LBE84:
 209              	.LBE83:
 210              	.LBE82:
 211              	.LBE81:
  23:src/Semaphore.cpp ****         Scheduler::put(tmp);
 212              		.loc 1 23 9 is_stmt 1
  23:src/Semaphore.cpp ****         Scheduler::put(tmp);
 213              		.loc 1 23 35 is_stmt 0
 214 00ec 9307F0FF 		li	a5,-1
 215 00f0 232AF902 		sw	a5,52(s2)
  24:src/Semaphore.cpp ****     }
 216              		.loc 1 24 9 is_stmt 1
  24:src/Semaphore.cpp ****     }
 217              		.loc 1 24 23 is_stmt 0
 218 00f4 13050900 		mv	a0,s2
 219 00f8 97000000 		call	_ZN9Scheduler3putEP3TCB
 219      E7800000 
 220              	.LVL16:
 221              	.L15:
 222              	.LBE80:
  20:src/Semaphore.cpp ****         TCB* tmp = suspendedTCBs.peekFirst();
 223              		.loc 1 20 5 is_stmt 1
  20:src/Semaphore.cpp ****         TCB* tmp = suspendedTCBs.peekFirst();
 224              		.loc 1 20 38
 225              	.LBB87:
 226              	.LBB88:
  57:src/../h/../h/list.hpp **** 
GAS LISTING /tmp/cc28tSsR.s 			page 10


  58:src/../h/../h/list.hpp ****         T *ret = elem->data;
  59:src/../h/../h/list.hpp ****         delete elem;
  60:src/../h/../h/list.hpp ****         return ret;
  61:src/../h/../h/list.hpp ****     }
  62:src/../h/../h/list.hpp **** 
  63:src/../h/../h/list.hpp ****     T *peekFirst() {
  64:src/../h/../h/list.hpp ****         if (!head) { return 0; }
 227              		.loc 2 64 14 is_stmt 0
 228 0100 83B78400 		ld	a5,8(s1)
 229              		.loc 2 64 9
 230 0104 63820702 		beqz	a5,.L11
  65:src/../h/../h/list.hpp ****         return head->data;
 231              		.loc 2 65 22
 232 0108 03B90700 		ld	s2,0(a5)
 233              	.LVL17:
 234              	.LBE88:
 235              	.LBE87:
  20:src/Semaphore.cpp ****         TCB* tmp = suspendedTCBs.peekFirst();
 236              		.loc 1 20 38
 237 010c 630E0900 		beqz	s2,.L11
 238              	.LBB89:
  21:src/Semaphore.cpp ****         suspendedTCBs.removeFirst();
 239              		.loc 1 21 9 is_stmt 1
 240              	.LVL18:
  22:src/Semaphore.cpp ****         tmp->returnedValFromWaits = SEMDEAD;
 241              		.loc 1 22 9
 242              	.LBB86:
 243              	.LBB85:
  52:src/../h/../h/list.hpp **** 
 244              		.loc 2 52 14 is_stmt 0
 245 0110 13850700 		mv	a0,a5
  52:src/../h/../h/list.hpp **** 
 246              		.loc 2 52 9
 247 0114 E38C07FC 		beqz	a5,.L13
 248              	.LVL19:
  55:src/../h/../h/list.hpp ****         if (!head) { tail = 0; }
 249              		.loc 2 55 22
 250 0118 83B78700 		ld	a5,8(a5)
  55:src/../h/../h/list.hpp ****         if (!head) { tail = 0; }
 251              		.loc 2 55 9
 252 011c 23B4F400 		sd	a5,8(s1)
  56:src/../h/../h/list.hpp **** 
 253              		.loc 2 56 9
 254 0120 E39207FC 		bnez	a5,.L14
 255 0124 6FF0DFFB 		j	.L17
 256              	.LVL20:
 257              	.L11:
 258              	.LBE85:
 259              	.LBE86:
 260              	.LBE89:
 261              	.LBE79:
  26:src/Semaphore.cpp **** 
 262              		.loc 1 26 1
 263 0128 83308101 		ld	ra,24(sp)
 264              		.cfi_restore 1
 265 012c 03340101 		ld	s0,16(sp)
 266              		.cfi_restore 8
GAS LISTING /tmp/cc28tSsR.s 			page 11


 267              		.cfi_def_cfa 2, 32
 268 0130 83348100 		ld	s1,8(sp)
 269              		.cfi_restore 9
 270              	.LVL21:
 271 0134 03390100 		ld	s2,0(sp)
 272              		.cfi_restore 18
 273 0138 13010102 		addi	sp,sp,32
 274              		.cfi_def_cfa_offset 0
 275 013c 67800000 		jr	ra
 276              		.cfi_endproc
 277              	.LFE38:
 278              		.globl	__gxx_personality_v0
 279              		.section	.gcc_except_table,"aw",@progbits
 280              	.LLSDA38:
 281 0000 FF       		.byte	0xff
 282 0001 FF       		.byte	0xff
 283 0002 03       		.byte	0x3
 284 0003 00       		.byte	0
 285              		.text
 287              		.globl	_ZN11mySemaphoreD1Ev
 288              		.set	_ZN11mySemaphoreD1Ev,_ZN11mySemaphoreD2Ev
 289              		.align	2
 290              		.globl	_ZN11mySemaphore7tryWaitEv
 292              	_ZN11mySemaphore7tryWaitEv:
 293              	.LFB40:
  28:src/Semaphore.cpp ****     if (value > 0) {
 294              		.loc 1 28 28 is_stmt 1
 295              		.cfi_startproc
 296              	.LVL22:
 297 0140 130101FF 		addi	sp,sp,-16
 298              		.cfi_def_cfa_offset 16
 299 0144 23348100 		sd	s0,8(sp)
 300              		.cfi_offset 8, -8
 301 0148 13040101 		addi	s0,sp,16
 302              		.cfi_def_cfa 8, 0
  29:src/Semaphore.cpp ****         //semaphore is not locked -> thread will not block
 303              		.loc 1 29 5
  29:src/Semaphore.cpp ****         //semaphore is not locked -> thread will not block
 304              		.loc 1 29 9 is_stmt 0
 305 014c 83270500 		lw	a5,0(a0)
  29:src/Semaphore.cpp ****         //semaphore is not locked -> thread will not block
 306              		.loc 1 29 5
 307 0150 634AF000 		bgtz	a5,.L22
  34:src/Semaphore.cpp **** }
 308              		.loc 1 34 12
 309 0154 13050000 		li	a0,0
 310              	.LVL23:
 311              	.L19:
  35:src/Semaphore.cpp **** 
 312              		.loc 1 35 1
 313 0158 03348100 		ld	s0,8(sp)
 314              		.cfi_remember_state
 315              		.cfi_restore 8
 316              		.cfi_def_cfa 2, 16
 317 015c 13010101 		addi	sp,sp,16
 318              		.cfi_def_cfa_offset 0
 319 0160 67800000 		jr	ra
GAS LISTING /tmp/cc28tSsR.s 			page 12


 320              	.LVL24:
 321              	.L22:
 322              		.cfi_restore_state
  31:src/Semaphore.cpp ****         return 1;
 323              		.loc 1 31 9 is_stmt 1
 324 0164 9B87F7FF 		addiw	a5,a5,-1
 325 0168 2320F500 		sw	a5,0(a0)
  32:src/Semaphore.cpp ****     }
 326              		.loc 1 32 9
  32:src/Semaphore.cpp ****     }
 327              		.loc 1 32 16 is_stmt 0
 328 016c 13051000 		li	a0,1
 329              	.LVL25:
 330 0170 6FF09FFE 		j	.L19
 331              		.cfi_endproc
 332              	.LFE40:
 334              		.align	2
 335              		.globl	_ZN11mySemaphore5blockEm
 337              	_ZN11mySemaphore5blockEm:
 338              	.LFB43:
  51:src/Semaphore.cpp ****     TCB::running->setStatus(SUSPENDED);
 339              		.loc 1 51 38 is_stmt 1
 340              		.cfi_startproc
 341              	.LVL26:
 342 0174 130101FD 		addi	sp,sp,-48
 343              		.cfi_def_cfa_offset 48
 344 0178 23341102 		sd	ra,40(sp)
 345 017c 23308102 		sd	s0,32(sp)
 346 0180 233C9100 		sd	s1,24(sp)
 347 0184 23382101 		sd	s2,16(sp)
 348 0188 23343101 		sd	s3,8(sp)
 349              		.cfi_offset 1, -8
 350              		.cfi_offset 8, -16
 351              		.cfi_offset 9, -24
 352              		.cfi_offset 18, -32
 353              		.cfi_offset 19, -40
 354 018c 13040103 		addi	s0,sp,48
 355              		.cfi_def_cfa 8, 0
 356 0190 93040500 		mv	s1,a0
 357 0194 13890500 		mv	s2,a1
  52:src/Semaphore.cpp ****     suspendedTCBs.addLast(TCB::running, time);
 358              		.loc 1 52 5
  52:src/Semaphore.cpp ****     suspendedTCBs.addLast(TCB::running, time);
 359              		.loc 1 52 28 is_stmt 0
 360 0198 97090000 		ld	s3,_ZN3TCB7runningE
 360      83B90900 
 361              	.LVL27:
 362              	.LBB90:
 363              	.LBB91:
 364              		.file 3 "src/../h/../h/TCB.hpp"
   1:src/../h/../h/TCB.hpp **** 
   2:src/../h/../h/TCB.hpp **** #ifndef PROJECT_BASE_TCB_HPP
   3:src/../h/../h/TCB.hpp **** #define PROJECT_BASE_TCB_HPP
   4:src/../h/../h/TCB.hpp **** 
   5:src/../h/../h/TCB.hpp **** #include "../lib/hw.h"
   6:src/../h/../h/TCB.hpp **** #include "Scheduler.hpp"
   7:src/../h/../h/TCB.hpp **** #include "print.hpp"
GAS LISTING /tmp/cc28tSsR.s 			page 13


   8:src/../h/../h/TCB.hpp **** 
   9:src/../h/../h/TCB.hpp **** //IZ KNJIGE - iskoriscena stanja niti + TCB klasa je vecim delom implementirana na vezbama
  10:src/../h/../h/TCB.hpp **** enum Status {RUNNING, SUSPENDED, SLEEPING, FINISHED};
  11:src/../h/../h/TCB.hpp **** 
  12:src/../h/../h/TCB.hpp **** class TCB {
  13:src/../h/../h/TCB.hpp **** public:
  14:src/../h/../h/TCB.hpp ****     void* operator new(size_t size);
  15:src/../h/../h/TCB.hpp ****     void operator delete(void *p);
  16:src/../h/../h/TCB.hpp **** 
  17:src/../h/../h/TCB.hpp ****     ~TCB() { delete[] stack; }
  18:src/../h/../h/TCB.hpp ****     using Body = void (*) (void*);
  19:src/../h/../h/TCB.hpp ****     static TCB* createThread(Body body, void* arg, void* stack, uint64 timeSlice);
  20:src/../h/../h/TCB.hpp **** 
  21:src/../h/../h/TCB.hpp ****     Status getStatus() { return status; }
  22:src/../h/../h/TCB.hpp ****     void setStatus(Status s) { status = s; }
 365              		.loc 3 22 32 is_stmt 1
 366              		.loc 3 22 39 is_stmt 0
 367 01a0 93071000 		li	a5,1
 368 01a4 23A8F902 		sw	a5,48(s3)
 369              	.LVL28:
 370              	.LBE91:
 371              	.LBE90:
  53:src/Semaphore.cpp ****     TCB::dispatch();
 372              		.loc 1 53 5 is_stmt 1
 373              	.LBB92:
 374              	.LBB93:
 375              	.LBB94:
 376              	.LBB95:
  21:src/../h/../h/list.hpp ****         }
 377              		.loc 2 21 49 is_stmt 0
 378 01a8 13051000 		li	a0,1
 379              	.LVL29:
 380 01ac 97000000 		call	_ZN15MemoryAllocator12my_mem_allocEm
 380      E7800000 
 381              	.LVL30:
 382              	.LBE95:
 383              	.LBE94:
 384              	.LBB96:
 385              	.LBB97:
  17:src/../h/../h/list.hpp **** 
 386              		.loc 2 17 99
 387 01b4 23303501 		sd	s3,0(a0)
 388 01b8 23340500 		sd	zero,8(a0)
 389 01bc 23382501 		sd	s2,16(a0)
 390              	.LVL31:
 391              	.LBE97:
 392              	.LBE96:
  43:src/../h/../h/list.hpp ****             tail->next = elem;
 393              		.loc 2 43 13
 394 01c0 83B70401 		ld	a5,16(s1)
  43:src/../h/../h/list.hpp ****             tail->next = elem;
 395              		.loc 2 43 9
 396 01c4 63880702 		beqz	a5,.L24
  44:src/../h/../h/list.hpp ****             tail = elem;
 397              		.loc 2 44 13
 398 01c8 23B4A700 		sd	a0,8(a5)
  45:src/../h/../h/list.hpp ****         } else {
GAS LISTING /tmp/cc28tSsR.s 			page 14


 399              		.loc 2 45 13
 400 01cc 23B8A400 		sd	a0,16(s1)
 401              	.L25:
 402              	.LVL32:
 403              	.LBE93:
 404              	.LBE92:
  54:src/Semaphore.cpp **** }
 405              		.loc 1 54 5 is_stmt 1
  54:src/Semaphore.cpp **** }
 406              		.loc 1 54 18 is_stmt 0
 407 01d0 97000000 		call	_ZN3TCB8dispatchEv
 407      E7800000 
 408              	.LVL33:
  55:src/Semaphore.cpp **** 
 409              		.loc 1 55 1
 410 01d8 83308102 		ld	ra,40(sp)
 411              		.cfi_remember_state
 412              		.cfi_restore 1
 413 01dc 03340102 		ld	s0,32(sp)
 414              		.cfi_restore 8
 415              		.cfi_def_cfa 2, 48
 416 01e0 83348101 		ld	s1,24(sp)
 417              		.cfi_restore 9
 418              	.LVL34:
 419 01e4 03390101 		ld	s2,16(sp)
 420              		.cfi_restore 18
 421              	.LVL35:
 422 01e8 83398100 		ld	s3,8(sp)
 423              		.cfi_restore 19
 424 01ec 13010103 		addi	sp,sp,48
 425              		.cfi_def_cfa_offset 0
 426 01f0 67800000 		jr	ra
 427              	.LVL36:
 428              	.L24:
 429              		.cfi_restore_state
 430              	.LBB99:
 431              	.LBB98:
  47:src/../h/../h/list.hpp ****         }
 432              		.loc 2 47 13
 433 01f4 23B8A400 		sd	a0,16(s1)
 434 01f8 23B4A400 		sd	a0,8(s1)
 435 01fc 6FF05FFD 		j	.L25
 436              	.LBE98:
 437              	.LBE99:
 438              		.cfi_endproc
 439              	.LFE43:
 441              		.align	2
 442              		.globl	_ZN11mySemaphore4waitEm
 444              	_ZN11mySemaphore4waitEm:
 445              	.LFB41:
  37:src/Semaphore.cpp ****     if (--value < 0) {
 446              		.loc 1 37 36 is_stmt 1
 447              		.cfi_startproc
 448              	.LVL37:
  38:src/Semaphore.cpp ****         block(time);
 449              		.loc 1 38 5
  38:src/Semaphore.cpp ****         block(time);
GAS LISTING /tmp/cc28tSsR.s 			page 15


 450              		.loc 1 38 11 is_stmt 0
 451 0200 83270500 		lw	a5,0(a0)
  38:src/Semaphore.cpp ****         block(time);
 452              		.loc 1 38 9
 453 0204 9B87F7FF 		addiw	a5,a5,-1
  38:src/Semaphore.cpp ****         block(time);
 454              		.loc 1 38 17
 455 0208 2320F500 		sw	a5,0(a0)
  38:src/Semaphore.cpp ****         block(time);
 456              		.loc 1 38 5
 457 020c 13970702 		slli	a4,a5,32
 458 0210 63460700 		bltz	a4,.L33
  41:src/Semaphore.cpp **** }
 459              		.loc 1 41 5 is_stmt 1
  42:src/Semaphore.cpp **** 
 460              		.loc 1 42 1 is_stmt 0
 461 0214 13050000 		li	a0,0
 462              	.LVL38:
 463 0218 67800000 		ret
 464              	.LVL39:
 465              	.L33:
  37:src/Semaphore.cpp ****     if (--value < 0) {
 466              		.loc 1 37 36
 467 021c 130101FF 		addi	sp,sp,-16
 468              		.cfi_def_cfa_offset 16
 469 0220 23341100 		sd	ra,8(sp)
 470 0224 23308100 		sd	s0,0(sp)
 471              		.cfi_offset 1, -8
 472              		.cfi_offset 8, -16
 473 0228 13040101 		addi	s0,sp,16
 474              		.cfi_def_cfa 8, 0
  39:src/Semaphore.cpp ****     }
 475              		.loc 1 39 9 is_stmt 1
  39:src/Semaphore.cpp ****     }
 476              		.loc 1 39 14 is_stmt 0
 477 022c 97000000 		call	_ZN11mySemaphore5blockEm
 477      E7800000 
 478              	.LVL40:
  41:src/Semaphore.cpp **** }
 479              		.loc 1 41 5 is_stmt 1
  42:src/Semaphore.cpp **** 
 480              		.loc 1 42 1 is_stmt 0
 481 0234 13050000 		li	a0,0
 482 0238 83308100 		ld	ra,8(sp)
 483              		.cfi_restore 1
 484 023c 03340100 		ld	s0,0(sp)
 485              		.cfi_restore 8
 486              		.cfi_def_cfa 2, 16
 487 0240 13010101 		addi	sp,sp,16
 488              		.cfi_def_cfa_offset 0
 489 0244 67800000 		jr	ra
 490              		.cfi_endproc
 491              	.LFE41:
 493              		.align	2
 494              		.globl	_ZN11mySemaphore7unblockEv
 496              	_ZN11mySemaphore7unblockEv:
 497              	.LFB44:
GAS LISTING /tmp/cc28tSsR.s 			page 16


  57:src/Semaphore.cpp ****     TCB* tmp = suspendedTCBs.peekFirst();
 498              		.loc 1 57 29 is_stmt 1
 499              		.cfi_startproc
 500              	.LVL41:
 501 0248 130101FE 		addi	sp,sp,-32
 502              		.cfi_def_cfa_offset 32
 503 024c 233C1100 		sd	ra,24(sp)
 504 0250 23388100 		sd	s0,16(sp)
 505 0254 23349100 		sd	s1,8(sp)
 506              		.cfi_offset 1, -8
 507              		.cfi_offset 8, -16
 508              		.cfi_offset 9, -24
 509 0258 13040102 		addi	s0,sp,32
 510              		.cfi_def_cfa 8, 0
 511 025c 93070500 		mv	a5,a0
  58:src/Semaphore.cpp ****     suspendedTCBs.removeFirst();
 512              		.loc 1 58 5
 513              	.LVL42:
 514              	.LBB106:
 515              	.LBB107:
  64:src/../h/../h/list.hpp ****         return head->data;
 516              		.loc 2 64 14 is_stmt 0
 517 0260 83348500 		ld	s1,8(a0)
  64:src/../h/../h/list.hpp ****         return head->data;
 518              		.loc 2 64 9
 519 0264 63840400 		beqz	s1,.L35
 520              		.loc 2 65 22
 521 0268 83B40400 		ld	s1,0(s1)
 522              	.L35:
 523              	.LVL43:
 524              	.LBE107:
 525              	.LBE106:
  59:src/Semaphore.cpp ****     if (tmp) {
 526              		.loc 1 59 5 is_stmt 1
 527              	.LBB108:
 528              	.LBB109:
  52:src/../h/../h/list.hpp **** 
 529              		.loc 2 52 14 is_stmt 0
 530 026c 03B58700 		ld	a0,8(a5)
 531              	.LVL44:
  52:src/../h/../h/list.hpp **** 
 532              		.loc 2 52 9
 533 0270 630C0500 		beqz	a0,.L36
 534              	.LVL45:
  55:src/../h/../h/list.hpp ****         if (!head) { tail = 0; }
 535              		.loc 2 55 22
 536 0274 03378500 		ld	a4,8(a0)
  55:src/../h/../h/list.hpp ****         if (!head) { tail = 0; }
 537              		.loc 2 55 9
 538 0278 23B4E700 		sd	a4,8(a5)
  56:src/../h/../h/list.hpp **** 
 539              		.loc 2 56 9
 540 027c 63080702 		beqz	a4,.L40
 541              	.L37:
 542              	.LVL46:
 543              	.LBB110:
 544              	.LBB111:
GAS LISTING /tmp/cc28tSsR.s 			page 17


  24:src/../h/../h/list.hpp ****         }
 545              		.loc 2 24 41
 546 0280 97000000 		call	_ZN15MemoryAllocator11my_mem_freeEPKv
 546      E7800000 
 547              	.LVL47:
 548              	.L36:
 549              	.LBE111:
 550              	.LBE110:
 551              	.LBE109:
 552              	.LBE108:
  60:src/Semaphore.cpp ****         Scheduler::put(tmp);
 553              		.loc 1 60 5 is_stmt 1
 554 0288 63880400 		beqz	s1,.L34
  61:src/Semaphore.cpp ****     }
 555              		.loc 1 61 9
  61:src/Semaphore.cpp ****     }
 556              		.loc 1 61 23 is_stmt 0
 557 028c 13850400 		mv	a0,s1
 558 0290 97000000 		call	_ZN9Scheduler3putEP3TCB
 558      E7800000 
 559              	.LVL48:
 560              	.L34:
  63:src/Semaphore.cpp **** 
 561              		.loc 1 63 1
 562 0298 83308101 		ld	ra,24(sp)
 563              		.cfi_remember_state
 564              		.cfi_restore 1
 565 029c 03340101 		ld	s0,16(sp)
 566              		.cfi_restore 8
 567              		.cfi_def_cfa 2, 32
 568 02a0 83348100 		ld	s1,8(sp)
 569              		.cfi_restore 9
 570              	.LVL49:
 571 02a4 13010102 		addi	sp,sp,32
 572              		.cfi_def_cfa_offset 0
 573 02a8 67800000 		jr	ra
 574              	.LVL50:
 575              	.L40:
 576              		.cfi_restore_state
 577              	.LBB113:
 578              	.LBB112:
  56:src/../h/../h/list.hpp **** 
 579              		.loc 2 56 22
 580 02ac 23B80700 		sd	zero,16(a5)
 581 02b0 6FF01FFD 		j	.L37
 582              	.LBE112:
 583              	.LBE113:
 584              		.cfi_endproc
 585              	.LFE44:
 587              		.align	2
 588              		.globl	_ZN11mySemaphore6signalEv
 590              	_ZN11mySemaphore6signalEv:
 591              	.LFB42:
  44:src/Semaphore.cpp ****     if (++value <= 0) {
 592              		.loc 1 44 27 is_stmt 1
 593              		.cfi_startproc
 594              	.LVL51:
GAS LISTING /tmp/cc28tSsR.s 			page 18


  45:src/Semaphore.cpp ****         unblock();
 595              		.loc 1 45 5
  45:src/Semaphore.cpp ****         unblock();
 596              		.loc 1 45 11 is_stmt 0
 597 02b4 83270500 		lw	a5,0(a0)
  45:src/Semaphore.cpp ****         unblock();
 598              		.loc 1 45 9
 599 02b8 9B871700 		addiw	a5,a5,1
 600 02bc 1B870700 		sext.w	a4,a5
  45:src/Semaphore.cpp ****         unblock();
 601              		.loc 1 45 17
 602 02c0 2320F500 		sw	a5,0(a0)
  45:src/Semaphore.cpp ****         unblock();
 603              		.loc 1 45 5
 604 02c4 6356E000 		blez	a4,.L47
  48:src/Semaphore.cpp **** }
 605              		.loc 1 48 5 is_stmt 1
  49:src/Semaphore.cpp **** 
 606              		.loc 1 49 1 is_stmt 0
 607 02c8 13050000 		li	a0,0
 608              	.LVL52:
 609 02cc 67800000 		ret
 610              	.LVL53:
 611              	.L47:
  44:src/Semaphore.cpp ****     if (++value <= 0) {
 612              		.loc 1 44 27
 613 02d0 130101FF 		addi	sp,sp,-16
 614              		.cfi_def_cfa_offset 16
 615 02d4 23341100 		sd	ra,8(sp)
 616 02d8 23308100 		sd	s0,0(sp)
 617              		.cfi_offset 1, -8
 618              		.cfi_offset 8, -16
 619 02dc 13040101 		addi	s0,sp,16
 620              		.cfi_def_cfa 8, 0
  46:src/Semaphore.cpp ****     }
 621              		.loc 1 46 9 is_stmt 1
  46:src/Semaphore.cpp ****     }
 622              		.loc 1 46 16 is_stmt 0
 623 02e0 97000000 		call	_ZN11mySemaphore7unblockEv
 623      E7800000 
 624              	.LVL54:
  48:src/Semaphore.cpp **** }
 625              		.loc 1 48 5 is_stmt 1
  49:src/Semaphore.cpp **** 
 626              		.loc 1 49 1 is_stmt 0
 627 02e8 13050000 		li	a0,0
 628 02ec 83308100 		ld	ra,8(sp)
 629              		.cfi_restore 1
 630 02f0 03340100 		ld	s0,0(sp)
 631              		.cfi_restore 8
 632              		.cfi_def_cfa 2, 16
 633 02f4 13010101 		addi	sp,sp,16
 634              		.cfi_def_cfa_offset 0
 635 02f8 67800000 		jr	ra
 636              		.cfi_endproc
 637              	.LFE42:
 639              		.align	2
GAS LISTING /tmp/cc28tSsR.s 			page 19


 640              		.globl	_ZN11mySemaphore17tryToUnblockTimerEv
 642              	_ZN11mySemaphore17tryToUnblockTimerEv:
 643              	.LFB45:
  65:src/Semaphore.cpp ****     List<mySemaphore>::Node *sem = allSemaphores.head;
 644              		.loc 1 65 39 is_stmt 1
 645              		.cfi_startproc
 646 02fc 130101FC 		addi	sp,sp,-64
 647              		.cfi_def_cfa_offset 64
 648 0300 233C1102 		sd	ra,56(sp)
 649 0304 23388102 		sd	s0,48(sp)
 650 0308 23349102 		sd	s1,40(sp)
 651 030c 23302103 		sd	s2,32(sp)
 652 0310 233C3101 		sd	s3,24(sp)
 653 0314 23384101 		sd	s4,16(sp)
 654 0318 23345101 		sd	s5,8(sp)
 655              		.cfi_offset 1, -8
 656              		.cfi_offset 8, -16
 657              		.cfi_offset 9, -24
 658              		.cfi_offset 18, -32
 659              		.cfi_offset 19, -40
 660              		.cfi_offset 20, -48
 661              		.cfi_offset 21, -56
 662 031c 13040104 		addi	s0,sp,64
 663              		.cfi_def_cfa 8, 0
  66:src/Semaphore.cpp ****     while (sem) {
 664              		.loc 1 66 5
  66:src/Semaphore.cpp ****     while (sem) {
 665              		.loc 1 66 30 is_stmt 0
 666 0320 97090000 		ld	s3,.LANCHOR0
 666      83B90900 
 667              	.LVL55:
 668 0328 6F00C008 		j	.L58
 669              	.LVL56:
 670              	.L60:
 671              	.LBB114:
 672              	.LBB115:
  76:src/Semaphore.cpp ****                 cur = cur->next;
 673              		.loc 1 76 17 is_stmt 1 discriminator 1
  77:src/Semaphore.cpp ****                 continue;
 674              		.loc 1 77 17 discriminator 1
  78:src/Semaphore.cpp ****             }
 675              		.loc 1 78 17 discriminator 1
  76:src/Semaphore.cpp ****                 cur = cur->next;
 676              		.loc 1 76 22 is_stmt 0 discriminator 1
 677 032c 13890400 		mv	s2,s1
  77:src/Semaphore.cpp ****                 continue;
 678              		.loc 1 77 21 discriminator 1
 679 0330 83B48400 		ld	s1,8(s1)
 680              	.LVL57:
  78:src/Semaphore.cpp ****             }
 681              		.loc 1 78 17 discriminator 1
 682 0334 6F000002 		j	.L50
 683              	.LVL58:
 684              	.L55:
 685              	.LBB116:
 686              	.LBB117:
  88:src/Semaphore.cpp ****                 }
GAS LISTING /tmp/cc28tSsR.s 			page 20


 687              		.loc 1 88 21 is_stmt 1
  88:src/Semaphore.cpp ****                 }
 688              		.loc 1 88 55 is_stmt 0
 689 0338 83B78400 		ld	a5,8(s1)
  88:src/Semaphore.cpp ****                 }
 690              		.loc 1 88 48
 691 033c 2334FA00 		sd	a5,8(s4)
 692 0340 6F000005 		j	.L56
 693              	.L61:
  91:src/Semaphore.cpp ****                 }
 694              		.loc 1 91 21 is_stmt 1
  91:src/Semaphore.cpp ****                 }
 695              		.loc 1 91 48 is_stmt 0
 696 0344 23382A01 		sd	s2,16(s4)
 697 0348 6F000005 		j	.L57
 698              	.LVL59:
 699              	.L54:
 700              	.LBE117:
 701              	.LBE116:
  97:src/Semaphore.cpp ****             cur = cur->next;
 702              		.loc 1 97 13 is_stmt 1
  98:src/Semaphore.cpp ****         }
 703              		.loc 1 98 13
  97:src/Semaphore.cpp ****             cur = cur->next;
 704              		.loc 1 97 18 is_stmt 0
 705 034c 13890400 		mv	s2,s1
  98:src/Semaphore.cpp ****         }
 706              		.loc 1 98 17
 707 0350 83B48400 		ld	s1,8(s1)
 708              	.LVL60:
 709              	.L50:
 710              	.LBE115:
  73:src/Semaphore.cpp **** 
 711              		.loc 1 73 9 is_stmt 1
  73:src/Semaphore.cpp **** 
 712              		.loc 1 73 16
 713 0354 638E0404 		beqz	s1,.L51
 714              	.LBB122:
  75:src/Semaphore.cpp ****                 prev = cur;
 715              		.loc 1 75 13
  75:src/Semaphore.cpp ****                 prev = cur;
 716              		.loc 1 75 22 is_stmt 0
 717 0358 83B70401 		ld	a5,16(s1)
  75:src/Semaphore.cpp ****                 prev = cur;
 718              		.loc 1 75 13
 719 035c E38807FC 		beqz	a5,.L60
  81:src/Semaphore.cpp ****                 List<TCB>::Node* tmp = cur;
 720              		.loc 1 81 13 is_stmt 1
 721              	.LBB121:
  81:src/Semaphore.cpp ****                 List<TCB>::Node* tmp = cur;
 722              		.loc 1 81 17 is_stmt 0
 723 0360 9387F7FF 		addi	a5,a5,-1
  81:src/Semaphore.cpp ****                 List<TCB>::Node* tmp = cur;
 724              		.loc 1 81 43
 725 0364 23B8F400 		sd	a5,16(s1)
  81:src/Semaphore.cpp ****                 List<TCB>::Node* tmp = cur;
 726              		.loc 1 81 13
GAS LISTING /tmp/cc28tSsR.s 			page 21


 727 0368 E39207FE 		bnez	a5,.L54
 728              	.LBB120:
  82:src/Semaphore.cpp ****                 cur->data->returnedValFromWaits = TIMEOUT;          //TIMEOUT = -2
 729              		.loc 1 82 17 is_stmt 1
 730              	.LVL61:
  83:src/Semaphore.cpp ****                 Scheduler::put(cur->data);
 731              		.loc 1 83 17
  83:src/Semaphore.cpp ****                 Scheduler::put(cur->data);
 732              		.loc 1 83 22 is_stmt 0
 733 036c 83B70400 		ld	a5,0(s1)
  83:src/Semaphore.cpp ****                 Scheduler::put(cur->data);
 734              		.loc 1 83 49
 735 0370 1307E0FF 		li	a4,-2
 736 0374 23AAE702 		sw	a4,52(a5)
  84:src/Semaphore.cpp ****                 if (prev) {
 737              		.loc 1 84 17 is_stmt 1
  84:src/Semaphore.cpp ****                 if (prev) {
 738              		.loc 1 84 31 is_stmt 0
 739 0378 03B50400 		ld	a0,0(s1)
 740 037c 97000000 		call	_ZN9Scheduler3putEP3TCB
 740      E7800000 
 741              	.LVL62:
  85:src/Semaphore.cpp ****                     prev->next = cur->next;
 742              		.loc 1 85 17 is_stmt 1
 743 0384 E30A09FA 		beqz	s2,.L55
  86:src/Semaphore.cpp ****                 } else {
 744              		.loc 1 86 21
  86:src/Semaphore.cpp ****                 } else {
 745              		.loc 1 86 39 is_stmt 0
 746 0388 83B78400 		ld	a5,8(s1)
  86:src/Semaphore.cpp ****                 } else {
 747              		.loc 1 86 32
 748 038c 2334F900 		sd	a5,8(s2)
 749              	.L56:
  90:src/Semaphore.cpp ****                     curSem->suspendedTCBs.tail = prev;
 750              		.loc 1 90 17 is_stmt 1
  90:src/Semaphore.cpp ****                     curSem->suspendedTCBs.tail = prev;
 751              		.loc 1 90 43 is_stmt 0
 752 0390 83370A01 		ld	a5,16(s4)
  90:src/Semaphore.cpp ****                     curSem->suspendedTCBs.tail = prev;
 753              		.loc 1 90 17
 754 0394 E38897FA 		beq	a5,s1,.L61
 755              	.L57:
  93:src/Semaphore.cpp ****                 delete tmp;
 756              		.loc 1 93 17 is_stmt 1
  93:src/Semaphore.cpp ****                 delete tmp;
 757              		.loc 1 93 21 is_stmt 0
 758 0398 83BA8400 		ld	s5,8(s1)
 759              	.LVL63:
  94:src/Semaphore.cpp ****                 continue;
 760              		.loc 1 94 17 is_stmt 1
 761              	.LBB118:
 762              	.LBB119:
  24:src/../h/../h/list.hpp ****         }
 763              		.loc 2 24 41 is_stmt 0
 764 039c 13850400 		mv	a0,s1
 765 03a0 97000000 		call	_ZN15MemoryAllocator11my_mem_freeEPKv
GAS LISTING /tmp/cc28tSsR.s 			page 22


 765      E7800000 
 766              	.LVL64:
 767              	.LBE119:
 768              	.LBE118:
  95:src/Semaphore.cpp ****             }
 769              		.loc 1 95 17 is_stmt 1
  93:src/Semaphore.cpp ****                 delete tmp;
 770              		.loc 1 93 21 is_stmt 0
 771 03a8 93840A00 		mv	s1,s5
 772              	.LVL65:
  95:src/Semaphore.cpp ****             }
 773              		.loc 1 95 17
 774 03ac 6FF09FFA 		j	.L50
 775              	.LVL66:
 776              	.L51:
 777              	.LBE120:
 778              	.LBE121:
 779              	.LBE122:
 100:src/Semaphore.cpp ****     }
 780              		.loc 1 100 9 is_stmt 1
 100:src/Semaphore.cpp ****     }
 781              		.loc 1 100 13 is_stmt 0
 782 03b0 83B98900 		ld	s3,8(s3)
 783              	.LVL67:
 784              	.L58:
 785              	.LBE114:
  67:src/Semaphore.cpp **** 
 786              		.loc 1 67 5 is_stmt 1
  67:src/Semaphore.cpp **** 
 787              		.loc 1 67 12
 788 03b4 638A0900 		beqz	s3,.L48
 789              	.LBB123:
  69:src/Semaphore.cpp ****         List<TCB>::Node* cur = curSem->suspendedTCBs.head;
 790              		.loc 1 69 9
  69:src/Semaphore.cpp ****         List<TCB>::Node* cur = curSem->suspendedTCBs.head;
 791              		.loc 1 69 22 is_stmt 0
 792 03b8 03BA0900 		ld	s4,0(s3)
 793              	.LVL68:
  70:src/Semaphore.cpp ****         List<TCB>::Node* prev = nullptr;
 794              		.loc 1 70 9 is_stmt 1
  70:src/Semaphore.cpp ****         List<TCB>::Node* prev = nullptr;
 795              		.loc 1 70 26 is_stmt 0
 796 03bc 83348A00 		ld	s1,8(s4)
 797              	.LVL69:
  71:src/Semaphore.cpp **** 
 798              		.loc 1 71 9 is_stmt 1
  71:src/Semaphore.cpp **** 
 799              		.loc 1 71 26 is_stmt 0
 800 03c0 13090000 		li	s2,0
 801 03c4 6FF01FF9 		j	.L50
 802              	.LVL70:
 803              	.L48:
 804              	.LBE123:
 102:src/Semaphore.cpp **** 
 805              		.loc 1 102 1
 806 03c8 83308103 		ld	ra,56(sp)
 807              		.cfi_restore 1
GAS LISTING /tmp/cc28tSsR.s 			page 23


 808 03cc 03340103 		ld	s0,48(sp)
 809              		.cfi_restore 8
 810              		.cfi_def_cfa 2, 64
 811 03d0 83348102 		ld	s1,40(sp)
 812              		.cfi_restore 9
 813 03d4 03390102 		ld	s2,32(sp)
 814              		.cfi_restore 18
 815 03d8 83398101 		ld	s3,24(sp)
 816              		.cfi_restore 19
 817              	.LVL71:
 818 03dc 033A0101 		ld	s4,16(sp)
 819              		.cfi_restore 20
 820 03e0 833A8100 		ld	s5,8(sp)
 821              		.cfi_restore 21
 822 03e4 13010104 		addi	sp,sp,64
 823              		.cfi_def_cfa_offset 0
 824 03e8 67800000 		jr	ra
 825              		.cfi_endproc
 826              	.LFE45:
 828              		.align	2
 829              		.globl	_ZN11mySemaphore14prepareSemOpenEPPS_j
 831              	_ZN11mySemaphore14prepareSemOpenEPPS_j:
 832              	.LFB46:
 106:src/Semaphore.cpp ****     (*handle) = new mySemaphore(init);
 833              		.loc 1 106 75 is_stmt 1
 834              		.cfi_startproc
 835              	.LVL72:
 836 03ec 130101FD 		addi	sp,sp,-48
 837              		.cfi_def_cfa_offset 48
 838 03f0 23341102 		sd	ra,40(sp)
 839 03f4 23308102 		sd	s0,32(sp)
 840 03f8 233C9100 		sd	s1,24(sp)
 841 03fc 23382101 		sd	s2,16(sp)
 842 0400 23343101 		sd	s3,8(sp)
 843              		.cfi_offset 1, -8
 844              		.cfi_offset 8, -16
 845              		.cfi_offset 9, -24
 846              		.cfi_offset 18, -32
 847              		.cfi_offset 19, -40
 848 0404 13040103 		addi	s0,sp,48
 849              		.cfi_def_cfa 8, 0
 850 0408 93040500 		mv	s1,a0
 851 040c 93890500 		mv	s3,a1
 107:src/Semaphore.cpp ****     allSemaphores.addLast(*handle);
 852              		.loc 1 107 5
 107:src/Semaphore.cpp ****     allSemaphores.addLast(*handle);
 853              		.loc 1 107 37 is_stmt 0
 854 0410 13058001 		li	a0,24
 855              	.LVL73:
 856 0414 97000000 		call	_ZN11mySemaphorenwEm
 856      E7800000 
 857              	.LVL74:
 858 041c 13090500 		mv	s2,a0
 859 0420 93850900 		mv	a1,s3
 860 0424 97000000 		call	_ZN11mySemaphoreC1Ei
 860      E7800000 
 861              	.LVL75:
GAS LISTING /tmp/cc28tSsR.s 			page 24


 107:src/Semaphore.cpp ****     allSemaphores.addLast(*handle);
 862              		.loc 1 107 15
 863 042c 23B02401 		sd	s2,0(s1)
 108:src/Semaphore.cpp **** 
 864              		.loc 1 108 5 is_stmt 1
 865              	.LVL76:
 866              	.LBB124:
 867              	.LBB125:
 868              	.LBB126:
 869              	.LBB127:
  21:src/../h/../h/list.hpp ****         }
 870              		.loc 2 21 49 is_stmt 0
 871 0430 13051000 		li	a0,1
 872 0434 97000000 		call	_ZN15MemoryAllocator12my_mem_allocEm
 872      E7800000 
 873              	.LVL77:
 874              	.LBE127:
 875              	.LBE126:
 876              	.LBB128:
 877              	.LBB129:
  17:src/../h/../h/list.hpp **** 
 878              		.loc 2 17 99
 879 043c 23302501 		sd	s2,0(a0)
 880 0440 23340500 		sd	zero,8(a0)
 881 0444 23380500 		sd	zero,16(a0)
 882              	.LVL78:
 883              	.LBE129:
 884              	.LBE128:
  43:src/../h/../h/list.hpp ****             tail->next = elem;
 885              		.loc 2 43 13
 886 0448 97070000 		ld	a5,.LANCHOR0+8
 886      83B70700 
  43:src/../h/../h/list.hpp ****             tail->next = elem;
 887              		.loc 2 43 9
 888 0450 63800704 		beqz	a5,.L63
  44:src/../h/../h/list.hpp ****             tail = elem;
 889              		.loc 2 44 13
 890 0454 23B4A700 		sd	a0,8(a5)
  45:src/../h/../h/list.hpp ****         } else {
 891              		.loc 2 45 13
 892 0458 97070000 		sd	a0,.LANCHOR0+8,a5
 892      23B0A700 
 893              	.L64:
 894              	.LVL79:
 895              	.LBE125:
 896              	.LBE124:
 110:src/Semaphore.cpp ****         __asm__ volatile("li a0, 0xffffffffffffffff");           //unsuccessful alloc ret = -1
 897              		.loc 1 110 5 is_stmt 1
 110:src/Semaphore.cpp ****         __asm__ volatile("li a0, 0xffffffffffffffff");           //unsuccessful alloc ret = -1
 898              		.loc 1 110 11 is_stmt 0
 899 0460 83B70400 		ld	a5,0(s1)
 110:src/Semaphore.cpp ****         __asm__ volatile("li a0, 0xffffffffffffffff");           //unsuccessful alloc ret = -1
 900              		.loc 1 110 5
 901 0464 63800704 		beqz	a5,.L68
 113:src/Semaphore.cpp ****     }
 902              		.loc 1 113 9 is_stmt 1
 113:src/Semaphore.cpp ****     }
GAS LISTING /tmp/cc28tSsR.s 			page 25


 903              		.loc 1 113 37 is_stmt 0
 904              	 #APP
 905              	# 113 "src/Semaphore.cpp" 1
 906              		li a0, 0
 907              	# 0 "" 2
 908              	 #NO_APP
 909              	.L66:
 117:src/Semaphore.cpp **** }
 910              		.loc 1 117 5 is_stmt 1
 117:src/Semaphore.cpp **** }
 911              		.loc 1 117 24 is_stmt 0
 912 046c 97000000 		call	_ZN5Riscv12setA0onStackEv
 912      E7800000 
 913              	.LVL80:
 118:src/Semaphore.cpp **** 
 914              		.loc 1 118 1
 915 0474 83308102 		ld	ra,40(sp)
 916              		.cfi_remember_state
 917              		.cfi_restore 1
 918 0478 03340102 		ld	s0,32(sp)
 919              		.cfi_restore 8
 920              		.cfi_def_cfa 2, 48
 921 047c 83348101 		ld	s1,24(sp)
 922              		.cfi_restore 9
 923              	.LVL81:
 924 0480 03390101 		ld	s2,16(sp)
 925              		.cfi_restore 18
 926 0484 83398100 		ld	s3,8(sp)
 927              		.cfi_restore 19
 928 0488 13010103 		addi	sp,sp,48
 929              		.cfi_def_cfa_offset 0
 930 048c 67800000 		jr	ra
 931              	.LVL82:
 932              	.L63:
 933              		.cfi_restore_state
 934              	.LBB131:
 935              	.LBB130:
  47:src/../h/../h/list.hpp ****         }
 936              		.loc 2 47 13
 937 0490 97070000 		lla	a5,.LANCHOR0
 937      93870700 
 938 0498 23B4A700 		sd	a0,8(a5)
 939 049c 23B0A700 		sd	a0,0(a5)
 940 04a0 6FF01FFC 		j	.L64
 941              	.LVL83:
 942              	.L68:
 943              	.LBE130:
 944              	.LBE131:
 111:src/Semaphore.cpp ****     } else {
 945              		.loc 1 111 9 is_stmt 1
 111:src/Semaphore.cpp ****     } else {
 946              		.loc 1 111 54 is_stmt 0
 947              	 #APP
 948              	# 111 "src/Semaphore.cpp" 1
 949              		li a0, 0xffffffffffffffff
 950              	# 0 "" 2
 951              	 #NO_APP
GAS LISTING /tmp/cc28tSsR.s 			page 26


 952 04a8 6FF05FFC 		j	.L66
 953              		.cfi_endproc
 954              	.LFE46:
 956              		.align	2
 957              		.globl	_ZN11mySemaphore15prepareSemCloseEPS_
 959              	_ZN11mySemaphore15prepareSemCloseEPS_:
 960              	.LFB47:
 120:src/Semaphore.cpp ****     if (handle) {
 961              		.loc 1 120 56 is_stmt 1
 962              		.cfi_startproc
 963              	.LVL84:
 964 04ac 130101FE 		addi	sp,sp,-32
 965              		.cfi_def_cfa_offset 32
 966 04b0 233C1100 		sd	ra,24(sp)
 967 04b4 23388100 		sd	s0,16(sp)
 968 04b8 23349100 		sd	s1,8(sp)
 969 04bc 23302101 		sd	s2,0(sp)
 970              		.cfi_offset 1, -8
 971              		.cfi_offset 8, -16
 972              		.cfi_offset 9, -24
 973              		.cfi_offset 18, -32
 974 04c0 13040102 		addi	s0,sp,32
 975              		.cfi_def_cfa 8, 0
 121:src/Semaphore.cpp ****         List<mySemaphore>::Node *cur = allSemaphores.head;
 976              		.loc 1 121 5
 977              	.LBB132:
 978 04c4 6304050E 		beqz	a0,.L70
 979 04c8 93040500 		mv	s1,a0
 980              	.LBB133:
 122:src/Semaphore.cpp ****         List<mySemaphore>::Node *prev = nullptr;
 981              		.loc 1 122 9
 122:src/Semaphore.cpp ****         List<mySemaphore>::Node *prev = nullptr;
 982              		.loc 1 122 34 is_stmt 0
 983 04cc 97070000 		ld	a5,.LANCHOR0
 983      83B70700 
 984              	.LVL85:
 123:src/Semaphore.cpp ****         while (cur->data != handle) {
 985              		.loc 1 123 9 is_stmt 1
 123:src/Semaphore.cpp ****         while (cur->data != handle) {
 986              		.loc 1 123 34 is_stmt 0
 987 04d4 93060000 		li	a3,0
 988 04d8 6F00C000 		j	.L72
 989              	.LVL86:
 990              	.L82:
 125:src/Semaphore.cpp ****             cur = cur->next;
 991              		.loc 1 125 13 is_stmt 1
 126:src/Semaphore.cpp ****         }
 992              		.loc 1 126 13
 125:src/Semaphore.cpp ****             cur = cur->next;
 993              		.loc 1 125 18 is_stmt 0
 994 04dc 93860700 		mv	a3,a5
 126:src/Semaphore.cpp ****         }
 995              		.loc 1 126 17
 996 04e0 83B78700 		ld	a5,8(a5)
 997              	.LVL87:
 998              	.L72:
 124:src/Semaphore.cpp ****             prev = cur;
GAS LISTING /tmp/cc28tSsR.s 			page 27


 999              		.loc 1 124 9 is_stmt 1
 124:src/Semaphore.cpp ****             prev = cur;
 1000              		.loc 1 124 26
 124:src/Semaphore.cpp ****             prev = cur;
 1001              		.loc 1 124 21 is_stmt 0
 1002 04e4 03B70700 		ld	a4,0(a5)
 124:src/Semaphore.cpp ****             prev = cur;
 1003              		.loc 1 124 26
 1004 04e8 E31A97FE 		bne	a4,s1,.L82
 128:src/Semaphore.cpp ****             __asm__ volatile("li a0, 0xffffffffffffffff");
 1005              		.loc 1 128 9 is_stmt 1
 1006              	.LBB134:
 1007 04ec 63840702 		beqz	a5,.L83
 1008              	.LBB135:
 131:src/Semaphore.cpp ****                 prev->next = cur->next;
 1009              		.loc 1 131 13
 1010 04f0 63860602 		beqz	a3,.L75
 132:src/Semaphore.cpp ****             } else {
 1011              		.loc 1 132 17
 132:src/Semaphore.cpp ****             } else {
 1012              		.loc 1 132 35 is_stmt 0
 1013 04f4 03B78700 		ld	a4,8(a5)
 132:src/Semaphore.cpp ****             } else {
 1014              		.loc 1 132 28
 1015 04f8 23B4E600 		sd	a4,8(a3)
 1016              	.L76:
 136:src/Semaphore.cpp ****                 allSemaphores.tail = prev;
 1017              		.loc 1 136 13 is_stmt 1
 136:src/Semaphore.cpp ****                 allSemaphores.tail = prev;
 1018              		.loc 1 136 31 is_stmt 0
 1019 04fc 17070000 		ld	a4,.LANCHOR0+8
 1019      03370700 
 136:src/Semaphore.cpp ****                 allSemaphores.tail = prev;
 1020              		.loc 1 136 13
 1021 0504 6316F704 		bne	a4,a5,.L80
 137:src/Semaphore.cpp ****             }
 1022              		.loc 1 137 17 is_stmt 1
 137:src/Semaphore.cpp ****             }
 1023              		.loc 1 137 36 is_stmt 0
 1024 0508 97070000 		sd	a3,.LANCHOR0+8,a5
 1024      23B0D700 
 1025              	.LVL88:
 1026 0510 6F000004 		j	.L80
 1027              	.LVL89:
 1028              	.L83:
 1029              	.LBE135:
 129:src/Semaphore.cpp ****         } else {
 1030              		.loc 1 129 13 is_stmt 1
 129:src/Semaphore.cpp ****         } else {
 1031              		.loc 1 129 58 is_stmt 0
 1032              	 #APP
 1033              	# 129 "src/Semaphore.cpp" 1
 1034              		li a0, 0xffffffffffffffff
 1035              	# 0 "" 2
 1036              	 #NO_APP
 1037 0518 6F004007 		j	.L74
 1038              	.L75:
GAS LISTING /tmp/cc28tSsR.s 			page 28


 1039              	.LBB146:
 134:src/Semaphore.cpp ****             }
 1040              		.loc 1 134 17 is_stmt 1
 134:src/Semaphore.cpp ****             }
 1041              		.loc 1 134 43 is_stmt 0
 1042 051c 03B78700 		ld	a4,8(a5)
 134:src/Semaphore.cpp ****             }
 1043              		.loc 1 134 36
 1044 0520 17060000 		sd	a4,.LANCHOR0,a2
 1044      2330E600 
 1045 0528 6FF05FFD 		j	.L76
 1046              	.LVL90:
 1047              	.L84:
 1048              	.LBB136:
 1049              	.LBB137:
 1050              	.LBB138:
  56:src/../h/../h/list.hpp **** 
 1051              		.loc 2 56 22
 1052 052c 23B80400 		sd	zero,16(s1)
 1053              	.L79:
  58:src/../h/../h/list.hpp ****         delete elem;
 1054              		.loc 2 58 12
 1055 0530 03390500 		ld	s2,0(a0)
 1056              	.LVL91:
 1057              	.LBB139:
 1058              	.LBB140:
  24:src/../h/../h/list.hpp ****         }
 1059              		.loc 2 24 41
 1060 0534 97000000 		call	_ZN15MemoryAllocator11my_mem_freeEPKv
 1060      E7800000 
 1061              	.LVL92:
 1062              	.LBE140:
 1063              	.LBE139:
 1064              	.LBE138:
 1065              	.LBE137:
 142:src/Semaphore.cpp ****                 Scheduler::put(curTCB);
 1066              		.loc 1 142 17 is_stmt 1
 142:src/Semaphore.cpp ****                 Scheduler::put(curTCB);
 1067              		.loc 1 142 46 is_stmt 0
 1068 053c 9307F0FF 		li	a5,-1
 1069 0540 232AF902 		sw	a5,52(s2)
 143:src/Semaphore.cpp ****             }
 1070              		.loc 1 143 17 is_stmt 1
 143:src/Semaphore.cpp ****             }
 1071              		.loc 1 143 31 is_stmt 0
 1072 0544 13050900 		mv	a0,s2
 1073 0548 97000000 		call	_ZN9Scheduler3putEP3TCB
 1073      E7800000 
 1074              	.LVL93:
 1075              	.L80:
 1076              	.LBE136:
 140:src/Semaphore.cpp ****                 TCB* curTCB = handle->suspendedTCBs.removeFirst();
 1077              		.loc 1 140 13 is_stmt 1
 140:src/Semaphore.cpp ****                 TCB* curTCB = handle->suspendedTCBs.removeFirst();
 1078              		.loc 1 140 52
 1079              	.LBB143:
 1080              	.LBB144:
GAS LISTING /tmp/cc28tSsR.s 			page 29


  64:src/../h/../h/list.hpp ****         return head->data;
 1081              		.loc 2 64 14 is_stmt 0
 1082 0550 03B58400 		ld	a0,8(s1)
  64:src/../h/../h/list.hpp ****         return head->data;
 1083              		.loc 2 64 9
 1084 0554 630E0500 		beqz	a0,.L78
 1085              		.loc 2 65 22
 1086 0558 83370500 		ld	a5,0(a0)
 1087              	.LVL94:
 1088              	.LBE144:
 1089              	.LBE143:
 140:src/Semaphore.cpp ****                 TCB* curTCB = handle->suspendedTCBs.removeFirst();
 1090              		.loc 1 140 52
 1091 055c 638A0700 		beqz	a5,.L78
 1092              	.LBB145:
 141:src/Semaphore.cpp ****                 curTCB->returnedValFromWaits = SEMDEAD;
 1093              		.loc 1 141 17 is_stmt 1
 1094              	.LVL95:
 1095              	.LBB142:
 1096              	.LBB141:
  55:src/../h/../h/list.hpp ****         if (!head) { tail = 0; }
 1097              		.loc 2 55 22 is_stmt 0
 1098 0560 83378500 		ld	a5,8(a0)
  55:src/../h/../h/list.hpp ****         if (!head) { tail = 0; }
 1099              		.loc 2 55 9
 1100 0564 23B4F400 		sd	a5,8(s1)
  56:src/../h/../h/list.hpp **** 
 1101              		.loc 2 56 9
 1102 0568 E39407FC 		bnez	a5,.L79
 1103 056c 6FF01FFC 		j	.L84
 1104              	.LVL96:
 1105              	.L78:
 1106              	.LBE141:
 1107              	.LBE142:
 1108              	.LBE145:
 145:src/Semaphore.cpp ****             __asm__ volatile("li a0, 0");
 1109              		.loc 1 145 13 is_stmt 1 discriminator 1
 145:src/Semaphore.cpp ****             __asm__ volatile("li a0, 0");
 1110              		.loc 1 145 20 is_stmt 0 discriminator 1
 1111 0570 13850400 		mv	a0,s1
 1112 0574 97000000 		call	_ZN11mySemaphoreD1Ev
 1112      E7800000 
 1113              	.LVL97:
 1114 057c 13850400 		mv	a0,s1
 1115 0580 97000000 		call	_ZN11mySemaphoredlEPv
 1115      E7800000 
 1116              	.LVL98:
 146:src/Semaphore.cpp ****         }
 1117              		.loc 1 146 13 is_stmt 1 discriminator 1
 146:src/Semaphore.cpp ****         }
 1118              		.loc 1 146 41 is_stmt 0 discriminator 1
 1119              	 #APP
 1120              	# 146 "src/Semaphore.cpp" 1
 1121              		li a0, 0
 1122              	# 0 "" 2
 1123              	.LVL99:
 1124              	 #NO_APP
GAS LISTING /tmp/cc28tSsR.s 			page 30


 1125              	.L74:
 1126              	.LBE146:
 1127              	.LBE134:
 1128              	.LBE133:
 1129              	.LBE132:
 153:src/Semaphore.cpp **** }
 1130              		.loc 1 153 5 is_stmt 1
 153:src/Semaphore.cpp **** }
 1131              		.loc 1 153 24 is_stmt 0
 1132 058c 97000000 		call	_ZN5Riscv12setA0onStackEv
 1132      E7800000 
 1133              	.LVL100:
 154:src/Semaphore.cpp **** 
 1134              		.loc 1 154 1
 1135 0594 83308101 		ld	ra,24(sp)
 1136              		.cfi_remember_state
 1137              		.cfi_restore 1
 1138 0598 03340101 		ld	s0,16(sp)
 1139              		.cfi_restore 8
 1140              		.cfi_def_cfa 2, 32
 1141 059c 83348100 		ld	s1,8(sp)
 1142              		.cfi_restore 9
 1143 05a0 03390100 		ld	s2,0(sp)
 1144              		.cfi_restore 18
 1145 05a4 13010102 		addi	sp,sp,32
 1146              		.cfi_def_cfa_offset 0
 1147 05a8 67800000 		jr	ra
 1148              	.LVL101:
 1149              	.L70:
 1150              		.cfi_restore_state
 1151              	.LBB147:
 149:src/Semaphore.cpp ****     }
 1152              		.loc 1 149 9 is_stmt 1
 149:src/Semaphore.cpp ****     }
 1153              		.loc 1 149 54 is_stmt 0
 1154              	 #APP
 1155              	# 149 "src/Semaphore.cpp" 1
 1156              		li a0, 0xffffffffffffffff
 1157              	# 0 "" 2
 1158              	 #NO_APP
 1159 05b0 6FF0DFFD 		j	.L74
 1160              	.LBE147:
 1161              		.cfi_endproc
 1162              	.LFE47:
 1164              		.align	2
 1165              		.globl	_ZN11mySemaphore14prepareSemWaitEPS_
 1167              	_ZN11mySemaphore14prepareSemWaitEPS_:
 1168              	.LFB48:
 156:src/Semaphore.cpp ****     //init return
 1169              		.loc 1 156 51 is_stmt 1
 1170              		.cfi_startproc
 1171              	.LVL102:
 1172 05b4 130101FE 		addi	sp,sp,-32
 1173              		.cfi_def_cfa_offset 32
 1174 05b8 233C1100 		sd	ra,24(sp)
 1175 05bc 23388100 		sd	s0,16(sp)
 1176 05c0 23349100 		sd	s1,8(sp)
GAS LISTING /tmp/cc28tSsR.s 			page 31


 1177              		.cfi_offset 1, -8
 1178              		.cfi_offset 8, -16
 1179              		.cfi_offset 9, -24
 1180 05c4 13040102 		addi	s0,sp,32
 1181              		.cfi_def_cfa 8, 0
 158:src/Semaphore.cpp ****     id->wait();
 1182              		.loc 1 158 5
 158:src/Semaphore.cpp ****     id->wait();
 1183              		.loc 1 158 19 is_stmt 0
 1184 05c8 97040000 		lla	s1,_ZN3TCB7runningE
 1184      93840400 
 1185 05d0 83B70400 		ld	a5,0(s1)
 158:src/Semaphore.cpp ****     id->wait();
 1186              		.loc 1 158 40
 1187 05d4 23AA0702 		sw	zero,52(a5)
 159:src/Semaphore.cpp **** 
 1188              		.loc 1 159 5 is_stmt 1
 159:src/Semaphore.cpp **** 
 1189              		.loc 1 159 13 is_stmt 0
 1190 05d8 93050000 		li	a1,0
 1191 05dc 97000000 		call	_ZN11mySemaphore4waitEm
 1191      E7800000 
 1192              	.LVL103:
 162:src/Semaphore.cpp ****         __asm__ volatile("li a0, 0xffffffffffffffff");
 1193              		.loc 1 162 5 is_stmt 1
 162:src/Semaphore.cpp ****         __asm__ volatile("li a0, 0xffffffffffffffff");
 1194              		.loc 1 162 23 is_stmt 0
 1195 05e4 83B70400 		ld	a5,0(s1)
 1196 05e8 83A74703 		lw	a5,52(a5)
 162:src/Semaphore.cpp ****         __asm__ volatile("li a0, 0xffffffffffffffff");
 1197              		.loc 1 162 5
 1198 05ec 1307F0FF 		li	a4,-1
 1199 05f0 6386E702 		beq	a5,a4,.L90
 164:src/Semaphore.cpp ****         __asm__ volatile("li a0, 0xfffffffffffffffe");
 1200              		.loc 1 164 12 is_stmt 1
 1201 05f4 1307E0FF 		li	a4,-2
 1202 05f8 6386E702 		beq	a5,a4,.L91
 167:src/Semaphore.cpp ****     }
 1203              		.loc 1 167 9
 167:src/Semaphore.cpp ****     }
 1204              		.loc 1 167 37 is_stmt 0
 1205              	 #APP
 1206              	# 167 "src/Semaphore.cpp" 1
 1207              		li a0, 0
 1208              	# 0 "" 2
 1209              	 #NO_APP
 1210              	.L87:
 171:src/Semaphore.cpp **** }
 1211              		.loc 1 171 5 is_stmt 1
 171:src/Semaphore.cpp **** }
 1212              		.loc 1 171 24 is_stmt 0
 1213 0600 97000000 		call	_ZN5Riscv12setA0onStackEv
 1213      E7800000 
 1214              	.LVL104:
 172:src/Semaphore.cpp **** 
 1215              		.loc 1 172 1
 1216 0608 83308101 		ld	ra,24(sp)
GAS LISTING /tmp/cc28tSsR.s 			page 32


 1217              		.cfi_remember_state
 1218              		.cfi_restore 1
 1219 060c 03340101 		ld	s0,16(sp)
 1220              		.cfi_restore 8
 1221              		.cfi_def_cfa 2, 32
 1222 0610 83348100 		ld	s1,8(sp)
 1223              		.cfi_restore 9
 1224 0614 13010102 		addi	sp,sp,32
 1225              		.cfi_def_cfa_offset 0
 1226 0618 67800000 		jr	ra
 1227              	.L90:
 1228              		.cfi_restore_state
 163:src/Semaphore.cpp ****     } else if (TCB::running->returnedValFromWaits == TIMEOUT) {
 1229              		.loc 1 163 9 is_stmt 1
 163:src/Semaphore.cpp ****     } else if (TCB::running->returnedValFromWaits == TIMEOUT) {
 1230              		.loc 1 163 54 is_stmt 0
 1231              	 #APP
 1232              	# 163 "src/Semaphore.cpp" 1
 1233              		li a0, 0xffffffffffffffff
 1234              	# 0 "" 2
 1235              	 #NO_APP
 1236 0620 6FF01FFE 		j	.L87
 1237              	.L91:
 165:src/Semaphore.cpp ****     } else {
 1238              		.loc 1 165 9 is_stmt 1
 165:src/Semaphore.cpp ****     } else {
 1239              		.loc 1 165 54 is_stmt 0
 1240              	 #APP
 1241              	# 165 "src/Semaphore.cpp" 1
 1242              		li a0, 0xfffffffffffffffe
 1243              	# 0 "" 2
 1244              	 #NO_APP
 1245 0628 6FF09FFD 		j	.L87
 1246              		.cfi_endproc
 1247              	.LFE48:
 1249              		.align	2
 1250              		.globl	_ZN11mySemaphore16prepareSemSignalEPS_
 1252              	_ZN11mySemaphore16prepareSemSignalEPS_:
 1253              	.LFB49:
 174:src/Semaphore.cpp ****     if (id) {
 1254              		.loc 1 174 53 is_stmt 1
 1255              		.cfi_startproc
 1256              	.LVL105:
 1257 062c 130101FF 		addi	sp,sp,-16
 1258              		.cfi_def_cfa_offset 16
 1259 0630 23341100 		sd	ra,8(sp)
 1260 0634 23308100 		sd	s0,0(sp)
 1261              		.cfi_offset 1, -8
 1262              		.cfi_offset 8, -16
 1263 0638 13040101 		addi	s0,sp,16
 1264              		.cfi_def_cfa 8, 0
 175:src/Semaphore.cpp ****         id->signal();
 1265              		.loc 1 175 5
 1266 063c 63040502 		beqz	a0,.L93
 176:src/Semaphore.cpp ****         __asm__ volatile("li a0, 0");
 1267              		.loc 1 176 9
 176:src/Semaphore.cpp ****         __asm__ volatile("li a0, 0");
GAS LISTING /tmp/cc28tSsR.s 			page 33


 1268              		.loc 1 176 19 is_stmt 0
 1269 0640 97000000 		call	_ZN11mySemaphore6signalEv
 1269      E7800000 
 1270              	.LVL106:
 177:src/Semaphore.cpp ****     } else {
 1271              		.loc 1 177 9 is_stmt 1
 177:src/Semaphore.cpp ****     } else {
 1272              		.loc 1 177 37 is_stmt 0
 1273              	 #APP
 1274              	# 177 "src/Semaphore.cpp" 1
 1275              		li a0, 0
 1276              	# 0 "" 2
 1277              	 #NO_APP
 1278              	.L94:
 183:src/Semaphore.cpp **** }
 1279              		.loc 1 183 5 is_stmt 1
 183:src/Semaphore.cpp **** }
 1280              		.loc 1 183 24 is_stmt 0
 1281 064c 97000000 		call	_ZN5Riscv12setA0onStackEv
 1281      E7800000 
 1282              	.LVL107:
 184:src/Semaphore.cpp **** 
 1283              		.loc 1 184 1
 1284 0654 83308100 		ld	ra,8(sp)
 1285              		.cfi_remember_state
 1286              		.cfi_restore 1
 1287 0658 03340100 		ld	s0,0(sp)
 1288              		.cfi_restore 8
 1289              		.cfi_def_cfa 2, 16
 1290 065c 13010101 		addi	sp,sp,16
 1291              		.cfi_def_cfa_offset 0
 1292 0660 67800000 		jr	ra
 1293              	.LVL108:
 1294              	.L93:
 1295              		.cfi_restore_state
 179:src/Semaphore.cpp ****     }
 1296              		.loc 1 179 9 is_stmt 1
 179:src/Semaphore.cpp ****     }
 1297              		.loc 1 179 54 is_stmt 0
 1298              	 #APP
 1299              	# 179 "src/Semaphore.cpp" 1
 1300              		li a0, 0xffffffffffffffff
 1301              	# 0 "" 2
 1302              	 #NO_APP
 1303 0668 6FF05FFE 		j	.L94
 1304              		.cfi_endproc
 1305              	.LFE49:
 1307              		.align	2
 1308              		.globl	_ZN11mySemaphore19prepareSemTimedWaitEPS_m
 1310              	_ZN11mySemaphore19prepareSemTimedWaitEPS_m:
 1311              	.LFB50:
 186:src/Semaphore.cpp ****     id->wait(timeout);
 1312              		.loc 1 186 72 is_stmt 1
 1313              		.cfi_startproc
 1314              	.LVL109:
 1315 066c 130101FF 		addi	sp,sp,-16
 1316              		.cfi_def_cfa_offset 16
GAS LISTING /tmp/cc28tSsR.s 			page 34


 1317 0670 23341100 		sd	ra,8(sp)
 1318 0674 23308100 		sd	s0,0(sp)
 1319              		.cfi_offset 1, -8
 1320              		.cfi_offset 8, -16
 1321 0678 13040101 		addi	s0,sp,16
 1322              		.cfi_def_cfa 8, 0
 187:src/Semaphore.cpp **** 
 1323              		.loc 1 187 5
 187:src/Semaphore.cpp **** 
 1324              		.loc 1 187 13 is_stmt 0
 1325 067c 97000000 		call	_ZN11mySemaphore4waitEm
 1325      E7800000 
 1326              	.LVL110:
 190:src/Semaphore.cpp ****         __asm__ volatile("li a0, 0xffffffffffffffff");
 1327              		.loc 1 190 5 is_stmt 1
 190:src/Semaphore.cpp ****         __asm__ volatile("li a0, 0xffffffffffffffff");
 1328              		.loc 1 190 23 is_stmt 0
 1329 0684 97070000 		ld	a5,_ZN3TCB7runningE
 1329      83B70700 
 1330 068c 83A74703 		lw	a5,52(a5)
 190:src/Semaphore.cpp ****         __asm__ volatile("li a0, 0xffffffffffffffff");
 1331              		.loc 1 190 5
 1332 0690 1307F0FF 		li	a4,-1
 1333 0694 6384E702 		beq	a5,a4,.L101
 192:src/Semaphore.cpp ****         __asm__ volatile("li a0, 0xfffffffffffffffe");
 1334              		.loc 1 192 12 is_stmt 1
 1335 0698 1307E0FF 		li	a4,-2
 1336 069c 6384E702 		beq	a5,a4,.L102
 195:src/Semaphore.cpp ****     }
 1337              		.loc 1 195 9
 195:src/Semaphore.cpp ****     }
 1338              		.loc 1 195 37 is_stmt 0
 1339              	 #APP
 1340              	# 195 "src/Semaphore.cpp" 1
 1341              		li a0, 0
 1342              	# 0 "" 2
 1343              	 #NO_APP
 1344              	.L98:
 199:src/Semaphore.cpp **** }
 1345              		.loc 1 199 5 is_stmt 1
 199:src/Semaphore.cpp **** }
 1346              		.loc 1 199 24 is_stmt 0
 1347 06a4 97000000 		call	_ZN5Riscv12setA0onStackEv
 1347      E7800000 
 1348              	.LVL111:
 200:src/Semaphore.cpp **** 
 1349              		.loc 1 200 1
 1350 06ac 83308100 		ld	ra,8(sp)
 1351              		.cfi_remember_state
 1352              		.cfi_restore 1
 1353 06b0 03340100 		ld	s0,0(sp)
 1354              		.cfi_restore 8
 1355              		.cfi_def_cfa 2, 16
 1356 06b4 13010101 		addi	sp,sp,16
 1357              		.cfi_def_cfa_offset 0
 1358 06b8 67800000 		jr	ra
 1359              	.L101:
GAS LISTING /tmp/cc28tSsR.s 			page 35


 1360              		.cfi_restore_state
 191:src/Semaphore.cpp ****     } else if (TCB::running->returnedValFromWaits == TIMEOUT) {
 1361              		.loc 1 191 9 is_stmt 1
 191:src/Semaphore.cpp ****     } else if (TCB::running->returnedValFromWaits == TIMEOUT) {
 1362              		.loc 1 191 54 is_stmt 0
 1363              	 #APP
 1364              	# 191 "src/Semaphore.cpp" 1
 1365              		li a0, 0xffffffffffffffff
 1366              	# 0 "" 2
 1367              	 #NO_APP
 1368 06c0 6FF05FFE 		j	.L98
 1369              	.L102:
 193:src/Semaphore.cpp ****     } else {
 1370              		.loc 1 193 9 is_stmt 1
 193:src/Semaphore.cpp ****     } else {
 1371              		.loc 1 193 54 is_stmt 0
 1372              	 #APP
 1373              	# 193 "src/Semaphore.cpp" 1
 1374              		li a0, 0xfffffffffffffffe
 1375              	# 0 "" 2
 1376              	 #NO_APP
 1377 06c8 6FF0DFFD 		j	.L98
 1378              		.cfi_endproc
 1379              	.LFE50:
 1381              		.align	2
 1382              		.globl	_ZN11mySemaphore17prepareSemTryWaitEPS_
 1384              	_ZN11mySemaphore17prepareSemTryWaitEPS_:
 1385              	.LFB51:
 202:src/Semaphore.cpp ****     uint64 res;
 1386              		.loc 1 202 54 is_stmt 1
 1387              		.cfi_startproc
 1388              	.LVL112:
 1389 06cc 130101FF 		addi	sp,sp,-16
 1390              		.cfi_def_cfa_offset 16
 1391 06d0 23341100 		sd	ra,8(sp)
 1392 06d4 23308100 		sd	s0,0(sp)
 1393              		.cfi_offset 1, -8
 1394              		.cfi_offset 8, -16
 1395 06d8 13040101 		addi	s0,sp,16
 1396              		.cfi_def_cfa 8, 0
 203:src/Semaphore.cpp ****     if (id) {
 1397              		.loc 1 203 5
 204:src/Semaphore.cpp ****         res = id->tryWait();
 1398              		.loc 1 204 5
 1399 06dc 63040502 		beqz	a0,.L104
 205:src/Semaphore.cpp ****         __asm__ volatile("mv a0, %0" : : "r"(res));
 1400              		.loc 1 205 9
 205:src/Semaphore.cpp ****         __asm__ volatile("mv a0, %0" : : "r"(res));
 1401              		.loc 1 205 26 is_stmt 0
 1402 06e0 97000000 		call	_ZN11mySemaphore7tryWaitEv
 1402      E7800000 
 1403              	.LVL113:
 206:src/Semaphore.cpp ****     } else {
 1404              		.loc 1 206 9 is_stmt 1
 206:src/Semaphore.cpp ****     } else {
 1405              		.loc 1 206 51 is_stmt 0
 1406              	 #APP
GAS LISTING /tmp/cc28tSsR.s 			page 36


 1407              	# 206 "src/Semaphore.cpp" 1
 1408              		mv a0, a0
 1409              	# 0 "" 2
 1410              	.LVL114:
 1411              	 #NO_APP
 1412              	.L105:
 212:src/Semaphore.cpp **** }
 1413              		.loc 1 212 5 is_stmt 1
 212:src/Semaphore.cpp **** }
 1414              		.loc 1 212 24 is_stmt 0
 1415 06ec 97000000 		call	_ZN5Riscv12setA0onStackEv
 1415      E7800000 
 1416              	.LVL115:
 1417              		.loc 1 213 1
 1418 06f4 83308100 		ld	ra,8(sp)
 1419              		.cfi_remember_state
 1420              		.cfi_restore 1
 1421 06f8 03340100 		ld	s0,0(sp)
 1422              		.cfi_restore 8
 1423              		.cfi_def_cfa 2, 16
 1424 06fc 13010101 		addi	sp,sp,16
 1425              		.cfi_def_cfa_offset 0
 1426 0700 67800000 		jr	ra
 1427              	.LVL116:
 1428              	.L104:
 1429              		.cfi_restore_state
 208:src/Semaphore.cpp ****     }
 1430              		.loc 1 208 9 is_stmt 1
 208:src/Semaphore.cpp ****     }
 1431              		.loc 1 208 54 is_stmt 0
 1432              	 #APP
 1433              	# 208 "src/Semaphore.cpp" 1
 1434              		li a0, 0xffffffffffffffff
 1435              	# 0 "" 2
 1436              	 #NO_APP
 1437 0708 6FF05FFE 		j	.L105
 1438              		.cfi_endproc
 1439              	.LFE51:
 1441              		.align	2
 1443              	_GLOBAL__sub_I__ZN11mySemaphore13allSemaphoresE:
 1444              	.LFB73:
 1445              		.loc 1 213 1 is_stmt 1
 1446              		.cfi_startproc
 1447 070c 130101FF 		addi	sp,sp,-16
 1448              		.cfi_def_cfa_offset 16
 1449 0710 23341100 		sd	ra,8(sp)
 1450 0714 23308100 		sd	s0,0(sp)
 1451              		.cfi_offset 1, -8
 1452              		.cfi_offset 8, -16
 1453 0718 13040101 		addi	s0,sp,16
 1454              		.cfi_def_cfa 8, 0
 1455              		.loc 1 213 1 is_stmt 0
 1456 071c B7050100 		li	a1,65536
 1457 0720 9385F5FF 		addi	a1,a1,-1
 1458 0724 13051000 		li	a0,1
 1459 0728 97000000 		call	_Z41__static_initialization_and_destruction_0ii
 1459      E7800000 
GAS LISTING /tmp/cc28tSsR.s 			page 37


 1460              	.LVL117:
 1461 0730 83308100 		ld	ra,8(sp)
 1462              		.cfi_restore 1
 1463 0734 03340100 		ld	s0,0(sp)
 1464              		.cfi_restore 8
 1465              		.cfi_def_cfa 2, 16
 1466 0738 13010101 		addi	sp,sp,16
 1467              		.cfi_def_cfa_offset 0
 1468 073c 67800000 		jr	ra
 1469              		.cfi_endproc
 1470              	.LFE73:
 1472              		.section	.init_array,"aw"
 1473              		.align	3
 1474 0000 00000000 		.dword	_GLOBAL__sub_I__ZN11mySemaphore13allSemaphoresE
 1474      00000000 
 1475              		.globl	_ZN11mySemaphore13allSemaphoresE
 1476              		.bss
 1477              		.align	3
 1478              		.set	.LANCHOR0,. + 0
 1481              	_ZN11mySemaphore13allSemaphoresE:
 1482 0000 00000000 		.zero	16
 1482      00000000 
 1482      00000000 
 1482      00000000 
 1483              		.text
 1484              	.Letext0:
 1485              		.file 4 "src/../h/../lib/hw.h"
 1486              		.file 5 "src/../h/Semaphore.hpp"
 1487              		.file 6 "src/../h/../h/MemoryAllocator.hpp"
 1488              		.file 7 "src/../h/../h/Scheduler.hpp"
 1489              		.file 8 "src/../h/Riscv.hpp"
 1490              		.file 9 "src/../h/syscall_c.hpp"
 7520              		.align	3
 7523              	DW.ref.__gxx_personality_v0:
 7524 0000 00000000 		.dword	__gxx_personality_v0
 7524      00000000 
 7525              		.ident	"GCC: () 9.3.0"
GAS LISTING /tmp/cc28tSsR.s 			page 38


DEFINED SYMBOLS
                            *ABS*:0000000000000000 Semaphore.cpp
     /tmp/cc28tSsR.s:11     .text:0000000000000000 _Z41__static_initialization_and_destruction_0ii
     /tmp/cc28tSsR.s:15     .text:0000000000000000 .L0 
     /tmp/cc28tSsR.s:17     .text:0000000000000000 .L0 
     /tmp/cc28tSsR.s:18     .text:0000000000000004 .L0 
     /tmp/cc28tSsR.s:20     .text:0000000000000008 .L0 
     /tmp/cc28tSsR.s:22     .text:000000000000000c .L0 
     /tmp/cc28tSsR.s:24     .text:000000000000000c .L0 
     /tmp/cc28tSsR.s:28     .text:0000000000000018 .L0 
     /tmp/cc28tSsR.s:29     .text:0000000000000018 .L0 
     /tmp/cc28tSsR.s:30     .text:0000000000000018 .L0 
     /tmp/cc28tSsR.s:32     .text:000000000000001c .L0 
     /tmp/cc28tSsR.s:35     .text:0000000000000020 .L0 
     /tmp/cc28tSsR.s:37     .text:0000000000000020 .L0 
     /tmp/cc28tSsR.s:46     .text:000000000000002c .L0 
     /tmp/cc28tSsR.s:54     .text:000000000000003c .L0 
     /tmp/cc28tSsR.s:55     .text:0000000000000040 .L0 
     /tmp/cc28tSsR.s:61     .text:0000000000000040 _ZN11mySemaphorenwEm
     /tmp/cc28tSsR.s:64     .text:0000000000000040 .L0 
     /tmp/cc28tSsR.s:66     .text:0000000000000040 .L0 
     /tmp/cc28tSsR.s:67     .text:0000000000000044 .L0 
     /tmp/cc28tSsR.s:70     .text:000000000000004c .L0 
     /tmp/cc28tSsR.s:71     .text:000000000000004c .L0 
     /tmp/cc28tSsR.s:73     .text:0000000000000050 .L0 
     /tmp/cc28tSsR.s:75     .text:0000000000000050 .L0 
     /tmp/cc28tSsR.s:76     .text:0000000000000050 .L0 
     /tmp/cc28tSsR.s:79     .text:0000000000000054 .L0 
     /tmp/cc28tSsR.s:80     .text:0000000000000054 .L0 
     /tmp/cc28tSsR.s:85     .text:0000000000000060 .L0 
     /tmp/cc28tSsR.s:86     .text:0000000000000064 .L0 
     /tmp/cc28tSsR.s:88     .text:0000000000000068 .L0 
     /tmp/cc28tSsR.s:89     .text:0000000000000068 .L0 
     /tmp/cc28tSsR.s:91     .text:000000000000006c .L0 
     /tmp/cc28tSsR.s:93     .text:0000000000000070 .L0 
     /tmp/cc28tSsR.s:99     .text:0000000000000070 _ZN11mySemaphoredlEPv
     /tmp/cc28tSsR.s:102    .text:0000000000000070 .L0 
     /tmp/cc28tSsR.s:104    .text:0000000000000070 .L0 
     /tmp/cc28tSsR.s:105    .text:0000000000000074 .L0 
     /tmp/cc28tSsR.s:108    .text:000000000000007c .L0 
     /tmp/cc28tSsR.s:109    .text:000000000000007c .L0 
     /tmp/cc28tSsR.s:111    .text:0000000000000080 .L0 
     /tmp/cc28tSsR.s:113    .text:0000000000000080 .L0 
     /tmp/cc28tSsR.s:114    .text:0000000000000080 .L0 
     /tmp/cc28tSsR.s:117    .text:0000000000000088 .L0 
     /tmp/cc28tSsR.s:118    .text:000000000000008c .L0 
     /tmp/cc28tSsR.s:120    .text:0000000000000090 .L0 
     /tmp/cc28tSsR.s:121    .text:0000000000000090 .L0 
     /tmp/cc28tSsR.s:123    .text:0000000000000094 .L0 
     /tmp/cc28tSsR.s:125    .text:0000000000000098 .L0 
     /tmp/cc28tSsR.s:131    .text:0000000000000098 _ZN11mySemaphoreC2Ei
     /tmp/cc28tSsR.s:134    .text:0000000000000098 .L0 
     /tmp/cc28tSsR.s:136    .text:0000000000000098 .L0 
     /tmp/cc28tSsR.s:137    .text:000000000000009c .L0 
     /tmp/cc28tSsR.s:139    .text:00000000000000a0 .L0 
     /tmp/cc28tSsR.s:141    .text:00000000000000a4 .L0 
     /tmp/cc28tSsR.s:144    .text:00000000000000a4 .L0 
GAS LISTING /tmp/cc28tSsR.s 			page 39


     /tmp/cc28tSsR.s:150    .text:00000000000000ac .L0 
     /tmp/cc28tSsR.s:157    .text:00000000000000b4 .L0 
     /tmp/cc28tSsR.s:158    .text:00000000000000b8 .L0 
     /tmp/cc28tSsR.s:159    .text:00000000000000b8 .L0 
     /tmp/cc28tSsR.s:161    .text:00000000000000bc .L0 
     /tmp/cc28tSsR.s:163    .text:00000000000000c0 .L0 
     /tmp/cc28tSsR.s:131    .text:0000000000000098 _ZN11mySemaphoreC1Ei
     /tmp/cc28tSsR.s:171    .text:00000000000000c0 _ZN11mySemaphoreD2Ev
     /tmp/cc28tSsR.s:174    .text:00000000000000c0 .L0 
     /tmp/cc28tSsR.s:7523   .sdata.DW.ref.__gxx_personality_v0:0000000000000000 DW.ref.__gxx_personality_v0
     /tmp/cc28tSsR.s:178    .text:00000000000000c0 .L0 
     /tmp/cc28tSsR.s:179    .text:00000000000000c4 .L0 
     /tmp/cc28tSsR.s:184    .text:00000000000000d4 .L0 
     /tmp/cc28tSsR.s:185    .text:00000000000000d4 .L0 
     /tmp/cc28tSsR.s:186    .text:00000000000000d4 .L0 
     /tmp/cc28tSsR.s:187    .text:00000000000000d4 .L0 
     /tmp/cc28tSsR.s:189    .text:00000000000000d8 .L0 
     /tmp/cc28tSsR.s:199    .text:00000000000000e0 .L0 
     /tmp/cc28tSsR.s:205    .text:00000000000000e4 .L0 
     /tmp/cc28tSsR.s:213    .text:00000000000000ec .L0 
     /tmp/cc28tSsR.s:214    .text:00000000000000ec .L0 
     /tmp/cc28tSsR.s:217    .text:00000000000000f4 .L0 
     /tmp/cc28tSsR.s:218    .text:00000000000000f4 .L0 
     /tmp/cc28tSsR.s:224    .text:0000000000000100 .L0 
     /tmp/cc28tSsR.s:227    .text:0000000000000100 .L0 
     /tmp/cc28tSsR.s:228    .text:0000000000000100 .L0 
     /tmp/cc28tSsR.s:230    .text:0000000000000104 .L0 
     /tmp/cc28tSsR.s:232    .text:0000000000000108 .L0 
     /tmp/cc28tSsR.s:237    .text:000000000000010c .L0 
     /tmp/cc28tSsR.s:241    .text:0000000000000110 .L0 
     /tmp/cc28tSsR.s:244    .text:0000000000000110 .L0 
     /tmp/cc28tSsR.s:245    .text:0000000000000110 .L0 
     /tmp/cc28tSsR.s:247    .text:0000000000000114 .L0 
     /tmp/cc28tSsR.s:250    .text:0000000000000118 .L0 
     /tmp/cc28tSsR.s:252    .text:000000000000011c .L0 
     /tmp/cc28tSsR.s:254    .text:0000000000000120 .L0 
     /tmp/cc28tSsR.s:263    .text:0000000000000128 .L0 
     /tmp/cc28tSsR.s:264    .text:000000000000012c .L0 
     /tmp/cc28tSsR.s:266    .text:0000000000000130 .L0 
     /tmp/cc28tSsR.s:267    .text:0000000000000130 .L0 
     /tmp/cc28tSsR.s:269    .text:0000000000000134 .L0 
     /tmp/cc28tSsR.s:272    .text:0000000000000138 .L0 
     /tmp/cc28tSsR.s:274    .text:000000000000013c .L0 
     /tmp/cc28tSsR.s:276    .text:0000000000000140 .L0 
     /tmp/cc28tSsR.s:171    .text:00000000000000c0 _ZN11mySemaphoreD1Ev
     /tmp/cc28tSsR.s:292    .text:0000000000000140 _ZN11mySemaphore7tryWaitEv
     /tmp/cc28tSsR.s:295    .text:0000000000000140 .L0 
     /tmp/cc28tSsR.s:297    .text:0000000000000140 .L0 
     /tmp/cc28tSsR.s:298    .text:0000000000000144 .L0 
     /tmp/cc28tSsR.s:300    .text:0000000000000148 .L0 
     /tmp/cc28tSsR.s:302    .text:000000000000014c .L0 
     /tmp/cc28tSsR.s:304    .text:000000000000014c .L0 
     /tmp/cc28tSsR.s:305    .text:000000000000014c .L0 
     /tmp/cc28tSsR.s:307    .text:0000000000000150 .L0 
     /tmp/cc28tSsR.s:309    .text:0000000000000154 .L0 
     /tmp/cc28tSsR.s:313    .text:0000000000000158 .L0 
     /tmp/cc28tSsR.s:314    .text:000000000000015c .L0 
GAS LISTING /tmp/cc28tSsR.s 			page 40


     /tmp/cc28tSsR.s:315    .text:000000000000015c .L0 
     /tmp/cc28tSsR.s:316    .text:000000000000015c .L0 
     /tmp/cc28tSsR.s:318    .text:0000000000000160 .L0 
     /tmp/cc28tSsR.s:322    .text:0000000000000164 .L0 
     /tmp/cc28tSsR.s:324    .text:0000000000000164 .L0 
     /tmp/cc28tSsR.s:327    .text:000000000000016c .L0 
     /tmp/cc28tSsR.s:328    .text:000000000000016c .L0 
     /tmp/cc28tSsR.s:331    .text:0000000000000174 .L0 
     /tmp/cc28tSsR.s:337    .text:0000000000000174 _ZN11mySemaphore5blockEm
     /tmp/cc28tSsR.s:340    .text:0000000000000174 .L0 
     /tmp/cc28tSsR.s:342    .text:0000000000000174 .L0 
     /tmp/cc28tSsR.s:343    .text:0000000000000178 .L0 
     /tmp/cc28tSsR.s:349    .text:000000000000018c .L0 
     /tmp/cc28tSsR.s:350    .text:000000000000018c .L0 
     /tmp/cc28tSsR.s:351    .text:000000000000018c .L0 
     /tmp/cc28tSsR.s:352    .text:000000000000018c .L0 
     /tmp/cc28tSsR.s:353    .text:000000000000018c .L0 
     /tmp/cc28tSsR.s:355    .text:0000000000000190 .L0 
     /tmp/cc28tSsR.s:359    .text:0000000000000198 .L0 
     /tmp/cc28tSsR.s:360    .text:0000000000000198 .L0 
     /tmp/cc28tSsR.s:366    .text:00000000000001a0 .L0 
     /tmp/cc28tSsR.s:367    .text:00000000000001a0 .L0 
     /tmp/cc28tSsR.s:377    .text:00000000000001a8 .L0 
     /tmp/cc28tSsR.s:378    .text:00000000000001a8 .L0 
     /tmp/cc28tSsR.s:387    .text:00000000000001b4 .L0 
     /tmp/cc28tSsR.s:394    .text:00000000000001c0 .L0 
     /tmp/cc28tSsR.s:396    .text:00000000000001c4 .L0 
     /tmp/cc28tSsR.s:398    .text:00000000000001c8 .L0 
     /tmp/cc28tSsR.s:400    .text:00000000000001cc .L0 
     /tmp/cc28tSsR.s:406    .text:00000000000001d0 .L0 
     /tmp/cc28tSsR.s:407    .text:00000000000001d0 .L0 
     /tmp/cc28tSsR.s:410    .text:00000000000001d8 .L0 
     /tmp/cc28tSsR.s:411    .text:00000000000001dc .L0 
     /tmp/cc28tSsR.s:412    .text:00000000000001dc .L0 
     /tmp/cc28tSsR.s:414    .text:00000000000001e0 .L0 
     /tmp/cc28tSsR.s:415    .text:00000000000001e0 .L0 
     /tmp/cc28tSsR.s:417    .text:00000000000001e4 .L0 
     /tmp/cc28tSsR.s:420    .text:00000000000001e8 .L0 
     /tmp/cc28tSsR.s:423    .text:00000000000001ec .L0 
     /tmp/cc28tSsR.s:425    .text:00000000000001f0 .L0 
     /tmp/cc28tSsR.s:429    .text:00000000000001f4 .L0 
     /tmp/cc28tSsR.s:433    .text:00000000000001f4 .L0 
     /tmp/cc28tSsR.s:438    .text:0000000000000200 .L0 
     /tmp/cc28tSsR.s:444    .text:0000000000000200 _ZN11mySemaphore4waitEm
     /tmp/cc28tSsR.s:447    .text:0000000000000200 .L0 
     /tmp/cc28tSsR.s:449    .text:0000000000000200 .L0 
     /tmp/cc28tSsR.s:450    .text:0000000000000200 .L0 
     /tmp/cc28tSsR.s:451    .text:0000000000000200 .L0 
     /tmp/cc28tSsR.s:453    .text:0000000000000204 .L0 
     /tmp/cc28tSsR.s:455    .text:0000000000000208 .L0 
     /tmp/cc28tSsR.s:457    .text:000000000000020c .L0 
     /tmp/cc28tSsR.s:460    .text:0000000000000214 .L0 
     /tmp/cc28tSsR.s:461    .text:0000000000000214 .L0 
     /tmp/cc28tSsR.s:467    .text:000000000000021c .L0 
     /tmp/cc28tSsR.s:468    .text:0000000000000220 .L0 
     /tmp/cc28tSsR.s:471    .text:0000000000000228 .L0 
     /tmp/cc28tSsR.s:472    .text:0000000000000228 .L0 
GAS LISTING /tmp/cc28tSsR.s 			page 41


     /tmp/cc28tSsR.s:474    .text:000000000000022c .L0 
     /tmp/cc28tSsR.s:476    .text:000000000000022c .L0 
     /tmp/cc28tSsR.s:477    .text:000000000000022c .L0 
     /tmp/cc28tSsR.s:480    .text:0000000000000234 .L0 
     /tmp/cc28tSsR.s:481    .text:0000000000000234 .L0 
     /tmp/cc28tSsR.s:483    .text:000000000000023c .L0 
     /tmp/cc28tSsR.s:485    .text:0000000000000240 .L0 
     /tmp/cc28tSsR.s:486    .text:0000000000000240 .L0 
     /tmp/cc28tSsR.s:488    .text:0000000000000244 .L0 
     /tmp/cc28tSsR.s:490    .text:0000000000000248 .L0 
     /tmp/cc28tSsR.s:496    .text:0000000000000248 _ZN11mySemaphore7unblockEv
     /tmp/cc28tSsR.s:499    .text:0000000000000248 .L0 
     /tmp/cc28tSsR.s:501    .text:0000000000000248 .L0 
     /tmp/cc28tSsR.s:502    .text:000000000000024c .L0 
     /tmp/cc28tSsR.s:506    .text:0000000000000258 .L0 
     /tmp/cc28tSsR.s:507    .text:0000000000000258 .L0 
     /tmp/cc28tSsR.s:508    .text:0000000000000258 .L0 
     /tmp/cc28tSsR.s:510    .text:000000000000025c .L0 
     /tmp/cc28tSsR.s:516    .text:0000000000000260 .L0 
     /tmp/cc28tSsR.s:517    .text:0000000000000260 .L0 
     /tmp/cc28tSsR.s:519    .text:0000000000000264 .L0 
     /tmp/cc28tSsR.s:521    .text:0000000000000268 .L0 
     /tmp/cc28tSsR.s:529    .text:000000000000026c .L0 
     /tmp/cc28tSsR.s:530    .text:000000000000026c .L0 
     /tmp/cc28tSsR.s:533    .text:0000000000000270 .L0 
     /tmp/cc28tSsR.s:536    .text:0000000000000274 .L0 
     /tmp/cc28tSsR.s:538    .text:0000000000000278 .L0 
     /tmp/cc28tSsR.s:540    .text:000000000000027c .L0 
     /tmp/cc28tSsR.s:546    .text:0000000000000280 .L0 
     /tmp/cc28tSsR.s:554    .text:0000000000000288 .L0 
     /tmp/cc28tSsR.s:556    .text:000000000000028c .L0 
     /tmp/cc28tSsR.s:557    .text:000000000000028c .L0 
     /tmp/cc28tSsR.s:562    .text:0000000000000298 .L0 
     /tmp/cc28tSsR.s:563    .text:000000000000029c .L0 
     /tmp/cc28tSsR.s:564    .text:000000000000029c .L0 
     /tmp/cc28tSsR.s:566    .text:00000000000002a0 .L0 
     /tmp/cc28tSsR.s:567    .text:00000000000002a0 .L0 
     /tmp/cc28tSsR.s:569    .text:00000000000002a4 .L0 
     /tmp/cc28tSsR.s:572    .text:00000000000002a8 .L0 
     /tmp/cc28tSsR.s:576    .text:00000000000002ac .L0 
     /tmp/cc28tSsR.s:580    .text:00000000000002ac .L0 
     /tmp/cc28tSsR.s:584    .text:00000000000002b4 .L0 
     /tmp/cc28tSsR.s:590    .text:00000000000002b4 _ZN11mySemaphore6signalEv
     /tmp/cc28tSsR.s:593    .text:00000000000002b4 .L0 
     /tmp/cc28tSsR.s:595    .text:00000000000002b4 .L0 
     /tmp/cc28tSsR.s:596    .text:00000000000002b4 .L0 
     /tmp/cc28tSsR.s:597    .text:00000000000002b4 .L0 
     /tmp/cc28tSsR.s:599    .text:00000000000002b8 .L0 
     /tmp/cc28tSsR.s:602    .text:00000000000002c0 .L0 
     /tmp/cc28tSsR.s:604    .text:00000000000002c4 .L0 
     /tmp/cc28tSsR.s:606    .text:00000000000002c8 .L0 
     /tmp/cc28tSsR.s:607    .text:00000000000002c8 .L0 
     /tmp/cc28tSsR.s:613    .text:00000000000002d0 .L0 
     /tmp/cc28tSsR.s:614    .text:00000000000002d4 .L0 
     /tmp/cc28tSsR.s:617    .text:00000000000002dc .L0 
     /tmp/cc28tSsR.s:618    .text:00000000000002dc .L0 
     /tmp/cc28tSsR.s:620    .text:00000000000002e0 .L0 
GAS LISTING /tmp/cc28tSsR.s 			page 42


     /tmp/cc28tSsR.s:622    .text:00000000000002e0 .L0 
     /tmp/cc28tSsR.s:623    .text:00000000000002e0 .L0 
     /tmp/cc28tSsR.s:626    .text:00000000000002e8 .L0 
     /tmp/cc28tSsR.s:627    .text:00000000000002e8 .L0 
     /tmp/cc28tSsR.s:629    .text:00000000000002f0 .L0 
     /tmp/cc28tSsR.s:631    .text:00000000000002f4 .L0 
     /tmp/cc28tSsR.s:632    .text:00000000000002f4 .L0 
     /tmp/cc28tSsR.s:634    .text:00000000000002f8 .L0 
     /tmp/cc28tSsR.s:636    .text:00000000000002fc .L0 
     /tmp/cc28tSsR.s:642    .text:00000000000002fc _ZN11mySemaphore17tryToUnblockTimerEv
     /tmp/cc28tSsR.s:645    .text:00000000000002fc .L0 
     /tmp/cc28tSsR.s:646    .text:00000000000002fc .L0 
     /tmp/cc28tSsR.s:647    .text:0000000000000300 .L0 
     /tmp/cc28tSsR.s:655    .text:000000000000031c .L0 
     /tmp/cc28tSsR.s:656    .text:000000000000031c .L0 
     /tmp/cc28tSsR.s:657    .text:000000000000031c .L0 
     /tmp/cc28tSsR.s:658    .text:000000000000031c .L0 
     /tmp/cc28tSsR.s:659    .text:000000000000031c .L0 
     /tmp/cc28tSsR.s:660    .text:000000000000031c .L0 
     /tmp/cc28tSsR.s:661    .text:000000000000031c .L0 
     /tmp/cc28tSsR.s:663    .text:0000000000000320 .L0 
     /tmp/cc28tSsR.s:665    .text:0000000000000320 .L0 
     /tmp/cc28tSsR.s:666    .text:0000000000000320 .L0 
     /tmp/cc28tSsR.s:674    .text:000000000000032c .L0 
     /tmp/cc28tSsR.s:675    .text:000000000000032c .L0 
     /tmp/cc28tSsR.s:676    .text:000000000000032c .L0 
     /tmp/cc28tSsR.s:677    .text:000000000000032c .L0 
     /tmp/cc28tSsR.s:679    .text:0000000000000330 .L0 
     /tmp/cc28tSsR.s:682    .text:0000000000000334 .L0 
     /tmp/cc28tSsR.s:688    .text:0000000000000338 .L0 
     /tmp/cc28tSsR.s:689    .text:0000000000000338 .L0 
     /tmp/cc28tSsR.s:691    .text:000000000000033c .L0 
     /tmp/cc28tSsR.s:695    .text:0000000000000344 .L0 
     /tmp/cc28tSsR.s:696    .text:0000000000000344 .L0 
     /tmp/cc28tSsR.s:703    .text:000000000000034c .L0 
     /tmp/cc28tSsR.s:704    .text:000000000000034c .L0 
     /tmp/cc28tSsR.s:705    .text:000000000000034c .L0 
     /tmp/cc28tSsR.s:707    .text:0000000000000350 .L0 
     /tmp/cc28tSsR.s:712    .text:0000000000000354 .L0 
     /tmp/cc28tSsR.s:713    .text:0000000000000354 .L0 
     /tmp/cc28tSsR.s:716    .text:0000000000000358 .L0 
     /tmp/cc28tSsR.s:717    .text:0000000000000358 .L0 
     /tmp/cc28tSsR.s:719    .text:000000000000035c .L0 
     /tmp/cc28tSsR.s:722    .text:0000000000000360 .L0 
     /tmp/cc28tSsR.s:723    .text:0000000000000360 .L0 
     /tmp/cc28tSsR.s:725    .text:0000000000000364 .L0 
     /tmp/cc28tSsR.s:727    .text:0000000000000368 .L0 
     /tmp/cc28tSsR.s:731    .text:000000000000036c .L0 
     /tmp/cc28tSsR.s:732    .text:000000000000036c .L0 
     /tmp/cc28tSsR.s:733    .text:000000000000036c .L0 
     /tmp/cc28tSsR.s:735    .text:0000000000000370 .L0 
     /tmp/cc28tSsR.s:738    .text:0000000000000378 .L0 
     /tmp/cc28tSsR.s:739    .text:0000000000000378 .L0 
     /tmp/cc28tSsR.s:743    .text:0000000000000384 .L0 
     /tmp/cc28tSsR.s:745    .text:0000000000000388 .L0 
     /tmp/cc28tSsR.s:746    .text:0000000000000388 .L0 
     /tmp/cc28tSsR.s:748    .text:000000000000038c .L0 
GAS LISTING /tmp/cc28tSsR.s 			page 43


     /tmp/cc28tSsR.s:751    .text:0000000000000390 .L0 
     /tmp/cc28tSsR.s:752    .text:0000000000000390 .L0 
     /tmp/cc28tSsR.s:754    .text:0000000000000394 .L0 
     /tmp/cc28tSsR.s:757    .text:0000000000000398 .L0 
     /tmp/cc28tSsR.s:758    .text:0000000000000398 .L0 
     /tmp/cc28tSsR.s:763    .text:000000000000039c .L0 
     /tmp/cc28tSsR.s:764    .text:000000000000039c .L0 
     /tmp/cc28tSsR.s:770    .text:00000000000003a8 .L0 
     /tmp/cc28tSsR.s:771    .text:00000000000003a8 .L0 
     /tmp/cc28tSsR.s:774    .text:00000000000003ac .L0 
     /tmp/cc28tSsR.s:781    .text:00000000000003b0 .L0 
     /tmp/cc28tSsR.s:782    .text:00000000000003b0 .L0 
     /tmp/cc28tSsR.s:787    .text:00000000000003b4 .L0 
     /tmp/cc28tSsR.s:788    .text:00000000000003b4 .L0 
     /tmp/cc28tSsR.s:791    .text:00000000000003b8 .L0 
     /tmp/cc28tSsR.s:792    .text:00000000000003b8 .L0 
     /tmp/cc28tSsR.s:795    .text:00000000000003bc .L0 
     /tmp/cc28tSsR.s:796    .text:00000000000003bc .L0 
     /tmp/cc28tSsR.s:799    .text:00000000000003c0 .L0 
     /tmp/cc28tSsR.s:800    .text:00000000000003c0 .L0 
     /tmp/cc28tSsR.s:806    .text:00000000000003c8 .L0 
     /tmp/cc28tSsR.s:807    .text:00000000000003cc .L0 
     /tmp/cc28tSsR.s:809    .text:00000000000003d0 .L0 
     /tmp/cc28tSsR.s:810    .text:00000000000003d0 .L0 
     /tmp/cc28tSsR.s:812    .text:00000000000003d4 .L0 
     /tmp/cc28tSsR.s:814    .text:00000000000003d8 .L0 
     /tmp/cc28tSsR.s:816    .text:00000000000003dc .L0 
     /tmp/cc28tSsR.s:819    .text:00000000000003e0 .L0 
     /tmp/cc28tSsR.s:821    .text:00000000000003e4 .L0 
     /tmp/cc28tSsR.s:823    .text:00000000000003e8 .L0 
     /tmp/cc28tSsR.s:825    .text:00000000000003ec .L0 
     /tmp/cc28tSsR.s:831    .text:00000000000003ec _ZN11mySemaphore14prepareSemOpenEPPS_j
     /tmp/cc28tSsR.s:834    .text:00000000000003ec .L0 
     /tmp/cc28tSsR.s:836    .text:00000000000003ec .L0 
     /tmp/cc28tSsR.s:837    .text:00000000000003f0 .L0 
     /tmp/cc28tSsR.s:843    .text:0000000000000404 .L0 
     /tmp/cc28tSsR.s:844    .text:0000000000000404 .L0 
     /tmp/cc28tSsR.s:845    .text:0000000000000404 .L0 
     /tmp/cc28tSsR.s:846    .text:0000000000000404 .L0 
     /tmp/cc28tSsR.s:847    .text:0000000000000404 .L0 
     /tmp/cc28tSsR.s:849    .text:0000000000000408 .L0 
     /tmp/cc28tSsR.s:853    .text:0000000000000410 .L0 
     /tmp/cc28tSsR.s:854    .text:0000000000000410 .L0 
     /tmp/cc28tSsR.s:863    .text:000000000000042c .L0 
     /tmp/cc28tSsR.s:870    .text:0000000000000430 .L0 
     /tmp/cc28tSsR.s:871    .text:0000000000000430 .L0 
     /tmp/cc28tSsR.s:879    .text:000000000000043c .L0 
     /tmp/cc28tSsR.s:886    .text:0000000000000448 .L0 
     /tmp/cc28tSsR.s:888    .text:0000000000000450 .L0 
     /tmp/cc28tSsR.s:890    .text:0000000000000454 .L0 
     /tmp/cc28tSsR.s:892    .text:0000000000000458 .L0 
     /tmp/cc28tSsR.s:898    .text:0000000000000460 .L0 
     /tmp/cc28tSsR.s:899    .text:0000000000000460 .L0 
     /tmp/cc28tSsR.s:901    .text:0000000000000464 .L0 
     /tmp/cc28tSsR.s:903    .text:0000000000000468 .L0 
   src/Semaphore.cpp:113    .text:0000000000000468 .L0 
     /tmp/cc28tSsR.s:911    .text:000000000000046c .L0 
GAS LISTING /tmp/cc28tSsR.s 			page 44


     /tmp/cc28tSsR.s:912    .text:000000000000046c .L0 
     /tmp/cc28tSsR.s:915    .text:0000000000000474 .L0 
     /tmp/cc28tSsR.s:916    .text:0000000000000478 .L0 
     /tmp/cc28tSsR.s:917    .text:0000000000000478 .L0 
     /tmp/cc28tSsR.s:919    .text:000000000000047c .L0 
     /tmp/cc28tSsR.s:920    .text:000000000000047c .L0 
     /tmp/cc28tSsR.s:922    .text:0000000000000480 .L0 
     /tmp/cc28tSsR.s:925    .text:0000000000000484 .L0 
     /tmp/cc28tSsR.s:927    .text:0000000000000488 .L0 
     /tmp/cc28tSsR.s:929    .text:000000000000048c .L0 
     /tmp/cc28tSsR.s:933    .text:0000000000000490 .L0 
     /tmp/cc28tSsR.s:937    .text:0000000000000490 .L0 
     /tmp/cc28tSsR.s:946    .text:00000000000004a4 .L0 
   src/Semaphore.cpp:111    .text:00000000000004a4 .L0 
     /tmp/cc28tSsR.s:953    .text:00000000000004ac .L0 
     /tmp/cc28tSsR.s:959    .text:00000000000004ac _ZN11mySemaphore15prepareSemCloseEPS_
     /tmp/cc28tSsR.s:962    .text:00000000000004ac .L0 
     /tmp/cc28tSsR.s:964    .text:00000000000004ac .L0 
     /tmp/cc28tSsR.s:965    .text:00000000000004b0 .L0 
     /tmp/cc28tSsR.s:970    .text:00000000000004c0 .L0 
     /tmp/cc28tSsR.s:971    .text:00000000000004c0 .L0 
     /tmp/cc28tSsR.s:972    .text:00000000000004c0 .L0 
     /tmp/cc28tSsR.s:973    .text:00000000000004c0 .L0 
     /tmp/cc28tSsR.s:975    .text:00000000000004c4 .L0 
     /tmp/cc28tSsR.s:978    .text:00000000000004c4 .L0 
     /tmp/cc28tSsR.s:982    .text:00000000000004cc .L0 
     /tmp/cc28tSsR.s:983    .text:00000000000004cc .L0 
     /tmp/cc28tSsR.s:986    .text:00000000000004d4 .L0 
     /tmp/cc28tSsR.s:987    .text:00000000000004d4 .L0 
     /tmp/cc28tSsR.s:992    .text:00000000000004dc .L0 
     /tmp/cc28tSsR.s:993    .text:00000000000004dc .L0 
     /tmp/cc28tSsR.s:994    .text:00000000000004dc .L0 
     /tmp/cc28tSsR.s:996    .text:00000000000004e0 .L0 
     /tmp/cc28tSsR.s:1000   .text:00000000000004e4 .L0 
     /tmp/cc28tSsR.s:1001   .text:00000000000004e4 .L0 
     /tmp/cc28tSsR.s:1002   .text:00000000000004e4 .L0 
     /tmp/cc28tSsR.s:1004   .text:00000000000004e8 .L0 
     /tmp/cc28tSsR.s:1007   .text:00000000000004ec .L0 
     /tmp/cc28tSsR.s:1010   .text:00000000000004f0 .L0 
     /tmp/cc28tSsR.s:1012   .text:00000000000004f4 .L0 
     /tmp/cc28tSsR.s:1013   .text:00000000000004f4 .L0 
     /tmp/cc28tSsR.s:1015   .text:00000000000004f8 .L0 
     /tmp/cc28tSsR.s:1018   .text:00000000000004fc .L0 
     /tmp/cc28tSsR.s:1019   .text:00000000000004fc .L0 
     /tmp/cc28tSsR.s:1021   .text:0000000000000504 .L0 
     /tmp/cc28tSsR.s:1023   .text:0000000000000508 .L0 
     /tmp/cc28tSsR.s:1024   .text:0000000000000508 .L0 
     /tmp/cc28tSsR.s:1031   .text:0000000000000514 .L0 
   src/Semaphore.cpp:129    .text:0000000000000514 .L0 
     /tmp/cc28tSsR.s:1041   .text:000000000000051c .L0 
     /tmp/cc28tSsR.s:1042   .text:000000000000051c .L0 
     /tmp/cc28tSsR.s:1044   .text:0000000000000520 .L0 
     /tmp/cc28tSsR.s:1052   .text:000000000000052c .L0 
     /tmp/cc28tSsR.s:1055   .text:0000000000000530 .L0 
     /tmp/cc28tSsR.s:1060   .text:0000000000000534 .L0 
     /tmp/cc28tSsR.s:1067   .text:000000000000053c .L0 
     /tmp/cc28tSsR.s:1068   .text:000000000000053c .L0 
GAS LISTING /tmp/cc28tSsR.s 			page 45


     /tmp/cc28tSsR.s:1071   .text:0000000000000544 .L0 
     /tmp/cc28tSsR.s:1072   .text:0000000000000544 .L0 
     /tmp/cc28tSsR.s:1078   .text:0000000000000550 .L0 
     /tmp/cc28tSsR.s:1081   .text:0000000000000550 .L0 
     /tmp/cc28tSsR.s:1082   .text:0000000000000550 .L0 
     /tmp/cc28tSsR.s:1084   .text:0000000000000554 .L0 
     /tmp/cc28tSsR.s:1086   .text:0000000000000558 .L0 
     /tmp/cc28tSsR.s:1091   .text:000000000000055c .L0 
     /tmp/cc28tSsR.s:1097   .text:0000000000000560 .L0 
     /tmp/cc28tSsR.s:1098   .text:0000000000000560 .L0 
     /tmp/cc28tSsR.s:1100   .text:0000000000000564 .L0 
     /tmp/cc28tSsR.s:1102   .text:0000000000000568 .L0 
     /tmp/cc28tSsR.s:1110   .text:0000000000000570 .L0 
     /tmp/cc28tSsR.s:1111   .text:0000000000000570 .L0 
     /tmp/cc28tSsR.s:1118   .text:0000000000000588 .L0 
   src/Semaphore.cpp:146    .text:0000000000000588 .L0 
     /tmp/cc28tSsR.s:1131   .text:000000000000058c .L0 
     /tmp/cc28tSsR.s:1132   .text:000000000000058c .L0 
     /tmp/cc28tSsR.s:1135   .text:0000000000000594 .L0 
     /tmp/cc28tSsR.s:1136   .text:0000000000000598 .L0 
     /tmp/cc28tSsR.s:1137   .text:0000000000000598 .L0 
     /tmp/cc28tSsR.s:1139   .text:000000000000059c .L0 
     /tmp/cc28tSsR.s:1140   .text:000000000000059c .L0 
     /tmp/cc28tSsR.s:1142   .text:00000000000005a0 .L0 
     /tmp/cc28tSsR.s:1144   .text:00000000000005a4 .L0 
     /tmp/cc28tSsR.s:1146   .text:00000000000005a8 .L0 
     /tmp/cc28tSsR.s:1150   .text:00000000000005ac .L0 
     /tmp/cc28tSsR.s:1153   .text:00000000000005ac .L0 
   src/Semaphore.cpp:149    .text:00000000000005ac .L0 
     /tmp/cc28tSsR.s:1161   .text:00000000000005b4 .L0 
     /tmp/cc28tSsR.s:1167   .text:00000000000005b4 _ZN11mySemaphore14prepareSemWaitEPS_
     /tmp/cc28tSsR.s:1170   .text:00000000000005b4 .L0 
     /tmp/cc28tSsR.s:1172   .text:00000000000005b4 .L0 
     /tmp/cc28tSsR.s:1173   .text:00000000000005b8 .L0 
     /tmp/cc28tSsR.s:1177   .text:00000000000005c4 .L0 
     /tmp/cc28tSsR.s:1178   .text:00000000000005c4 .L0 
     /tmp/cc28tSsR.s:1179   .text:00000000000005c4 .L0 
     /tmp/cc28tSsR.s:1181   .text:00000000000005c8 .L0 
     /tmp/cc28tSsR.s:1183   .text:00000000000005c8 .L0 
     /tmp/cc28tSsR.s:1184   .text:00000000000005c8 .L0 
     /tmp/cc28tSsR.s:1187   .text:00000000000005d4 .L0 
     /tmp/cc28tSsR.s:1189   .text:00000000000005d8 .L0 
     /tmp/cc28tSsR.s:1190   .text:00000000000005d8 .L0 
     /tmp/cc28tSsR.s:1194   .text:00000000000005e4 .L0 
     /tmp/cc28tSsR.s:1195   .text:00000000000005e4 .L0 
     /tmp/cc28tSsR.s:1198   .text:00000000000005ec .L0 
     /tmp/cc28tSsR.s:1201   .text:00000000000005f4 .L0 
     /tmp/cc28tSsR.s:1204   .text:00000000000005fc .L0 
   src/Semaphore.cpp:167    .text:00000000000005fc .L0 
     /tmp/cc28tSsR.s:1212   .text:0000000000000600 .L0 
     /tmp/cc28tSsR.s:1213   .text:0000000000000600 .L0 
     /tmp/cc28tSsR.s:1216   .text:0000000000000608 .L0 
     /tmp/cc28tSsR.s:1217   .text:000000000000060c .L0 
     /tmp/cc28tSsR.s:1218   .text:000000000000060c .L0 
     /tmp/cc28tSsR.s:1220   .text:0000000000000610 .L0 
     /tmp/cc28tSsR.s:1221   .text:0000000000000610 .L0 
     /tmp/cc28tSsR.s:1223   .text:0000000000000614 .L0 
GAS LISTING /tmp/cc28tSsR.s 			page 46


     /tmp/cc28tSsR.s:1225   .text:0000000000000618 .L0 
     /tmp/cc28tSsR.s:1228   .text:000000000000061c .L0 
     /tmp/cc28tSsR.s:1230   .text:000000000000061c .L0 
   src/Semaphore.cpp:163    .text:000000000000061c .L0 
     /tmp/cc28tSsR.s:1239   .text:0000000000000624 .L0 
   src/Semaphore.cpp:165    .text:0000000000000624 .L0 
     /tmp/cc28tSsR.s:1246   .text:000000000000062c .L0 
     /tmp/cc28tSsR.s:1252   .text:000000000000062c _ZN11mySemaphore16prepareSemSignalEPS_
     /tmp/cc28tSsR.s:1255   .text:000000000000062c .L0 
     /tmp/cc28tSsR.s:1257   .text:000000000000062c .L0 
     /tmp/cc28tSsR.s:1258   .text:0000000000000630 .L0 
     /tmp/cc28tSsR.s:1261   .text:0000000000000638 .L0 
     /tmp/cc28tSsR.s:1262   .text:0000000000000638 .L0 
     /tmp/cc28tSsR.s:1264   .text:000000000000063c .L0 
     /tmp/cc28tSsR.s:1266   .text:000000000000063c .L0 
     /tmp/cc28tSsR.s:1268   .text:0000000000000640 .L0 
     /tmp/cc28tSsR.s:1269   .text:0000000000000640 .L0 
     /tmp/cc28tSsR.s:1272   .text:0000000000000648 .L0 
   src/Semaphore.cpp:177    .text:0000000000000648 .L0 
     /tmp/cc28tSsR.s:1280   .text:000000000000064c .L0 
     /tmp/cc28tSsR.s:1281   .text:000000000000064c .L0 
     /tmp/cc28tSsR.s:1284   .text:0000000000000654 .L0 
     /tmp/cc28tSsR.s:1285   .text:0000000000000658 .L0 
     /tmp/cc28tSsR.s:1286   .text:0000000000000658 .L0 
     /tmp/cc28tSsR.s:1288   .text:000000000000065c .L0 
     /tmp/cc28tSsR.s:1289   .text:000000000000065c .L0 
     /tmp/cc28tSsR.s:1291   .text:0000000000000660 .L0 
     /tmp/cc28tSsR.s:1295   .text:0000000000000664 .L0 
     /tmp/cc28tSsR.s:1297   .text:0000000000000664 .L0 
   src/Semaphore.cpp:179    .text:0000000000000664 .L0 
     /tmp/cc28tSsR.s:1304   .text:000000000000066c .L0 
     /tmp/cc28tSsR.s:1310   .text:000000000000066c _ZN11mySemaphore19prepareSemTimedWaitEPS_m
     /tmp/cc28tSsR.s:1313   .text:000000000000066c .L0 
     /tmp/cc28tSsR.s:1315   .text:000000000000066c .L0 
     /tmp/cc28tSsR.s:1316   .text:0000000000000670 .L0 
     /tmp/cc28tSsR.s:1319   .text:0000000000000678 .L0 
     /tmp/cc28tSsR.s:1320   .text:0000000000000678 .L0 
     /tmp/cc28tSsR.s:1322   .text:000000000000067c .L0 
     /tmp/cc28tSsR.s:1324   .text:000000000000067c .L0 
     /tmp/cc28tSsR.s:1325   .text:000000000000067c .L0 
     /tmp/cc28tSsR.s:1328   .text:0000000000000684 .L0 
     /tmp/cc28tSsR.s:1329   .text:0000000000000684 .L0 
     /tmp/cc28tSsR.s:1332   .text:0000000000000690 .L0 
     /tmp/cc28tSsR.s:1335   .text:0000000000000698 .L0 
     /tmp/cc28tSsR.s:1338   .text:00000000000006a0 .L0 
   src/Semaphore.cpp:195    .text:00000000000006a0 .L0 
     /tmp/cc28tSsR.s:1346   .text:00000000000006a4 .L0 
     /tmp/cc28tSsR.s:1347   .text:00000000000006a4 .L0 
     /tmp/cc28tSsR.s:1350   .text:00000000000006ac .L0 
     /tmp/cc28tSsR.s:1351   .text:00000000000006b0 .L0 
     /tmp/cc28tSsR.s:1352   .text:00000000000006b0 .L0 
     /tmp/cc28tSsR.s:1354   .text:00000000000006b4 .L0 
     /tmp/cc28tSsR.s:1355   .text:00000000000006b4 .L0 
     /tmp/cc28tSsR.s:1357   .text:00000000000006b8 .L0 
     /tmp/cc28tSsR.s:1360   .text:00000000000006bc .L0 
     /tmp/cc28tSsR.s:1362   .text:00000000000006bc .L0 
   src/Semaphore.cpp:191    .text:00000000000006bc .L0 
GAS LISTING /tmp/cc28tSsR.s 			page 47


     /tmp/cc28tSsR.s:1371   .text:00000000000006c4 .L0 
   src/Semaphore.cpp:193    .text:00000000000006c4 .L0 
     /tmp/cc28tSsR.s:1378   .text:00000000000006cc .L0 
     /tmp/cc28tSsR.s:1384   .text:00000000000006cc _ZN11mySemaphore17prepareSemTryWaitEPS_
     /tmp/cc28tSsR.s:1387   .text:00000000000006cc .L0 
     /tmp/cc28tSsR.s:1389   .text:00000000000006cc .L0 
     /tmp/cc28tSsR.s:1390   .text:00000000000006d0 .L0 
     /tmp/cc28tSsR.s:1393   .text:00000000000006d8 .L0 
     /tmp/cc28tSsR.s:1394   .text:00000000000006d8 .L0 
     /tmp/cc28tSsR.s:1396   .text:00000000000006dc .L0 
     /tmp/cc28tSsR.s:1398   .text:00000000000006dc .L0 
     /tmp/cc28tSsR.s:1399   .text:00000000000006dc .L0 
     /tmp/cc28tSsR.s:1401   .text:00000000000006e0 .L0 
     /tmp/cc28tSsR.s:1402   .text:00000000000006e0 .L0 
     /tmp/cc28tSsR.s:1405   .text:00000000000006e8 .L0 
   src/Semaphore.cpp:206    .text:00000000000006e8 .L0 
     /tmp/cc28tSsR.s:1414   .text:00000000000006ec .L0 
     /tmp/cc28tSsR.s:1415   .text:00000000000006ec .L0 
     /tmp/cc28tSsR.s:1418   .text:00000000000006f4 .L0 
     /tmp/cc28tSsR.s:1419   .text:00000000000006f8 .L0 
     /tmp/cc28tSsR.s:1420   .text:00000000000006f8 .L0 
     /tmp/cc28tSsR.s:1422   .text:00000000000006fc .L0 
     /tmp/cc28tSsR.s:1423   .text:00000000000006fc .L0 
     /tmp/cc28tSsR.s:1425   .text:0000000000000700 .L0 
     /tmp/cc28tSsR.s:1429   .text:0000000000000704 .L0 
     /tmp/cc28tSsR.s:1431   .text:0000000000000704 .L0 
   src/Semaphore.cpp:208    .text:0000000000000704 .L0 
     /tmp/cc28tSsR.s:1438   .text:000000000000070c .L0 
     /tmp/cc28tSsR.s:1443   .text:000000000000070c _GLOBAL__sub_I__ZN11mySemaphore13allSemaphoresE
     /tmp/cc28tSsR.s:1446   .text:000000000000070c .L0 
     /tmp/cc28tSsR.s:1447   .text:000000000000070c .L0 
     /tmp/cc28tSsR.s:1448   .text:0000000000000710 .L0 
     /tmp/cc28tSsR.s:1451   .text:0000000000000718 .L0 
     /tmp/cc28tSsR.s:1452   .text:0000000000000718 .L0 
     /tmp/cc28tSsR.s:1454   .text:000000000000071c .L0 
     /tmp/cc28tSsR.s:1456   .text:000000000000071c .L0 
     /tmp/cc28tSsR.s:1462   .text:0000000000000734 .L0 
     /tmp/cc28tSsR.s:1464   .text:0000000000000738 .L0 
     /tmp/cc28tSsR.s:1465   .text:0000000000000738 .L0 
     /tmp/cc28tSsR.s:1467   .text:000000000000073c .L0 
     /tmp/cc28tSsR.s:1469   .text:0000000000000740 .L0 
     /tmp/cc28tSsR.s:1481   .bss:0000000000000000 _ZN11mySemaphore13allSemaphoresE
     /tmp/cc28tSsR.s:1478   .bss:0000000000000000 .LANCHOR0
     /tmp/cc28tSsR.s:1491   .text:0000000000000740 .L0 
     /tmp/cc28tSsR.s:46     .text:000000000000002c .L0 
     /tmp/cc28tSsR.s:360    .text:0000000000000198 .L0 
     /tmp/cc28tSsR.s:666    .text:0000000000000320 .L0 
     /tmp/cc28tSsR.s:886    .text:0000000000000448 .L0 
     /tmp/cc28tSsR.s:892    .text:0000000000000458 .L0 
     /tmp/cc28tSsR.s:937    .text:0000000000000490 .L0 
     /tmp/cc28tSsR.s:983    .text:00000000000004cc .L0 
     /tmp/cc28tSsR.s:1019   .text:00000000000004fc .L0 
     /tmp/cc28tSsR.s:1024   .text:0000000000000508 .L0 
     /tmp/cc28tSsR.s:1044   .text:0000000000000520 .L0 
     /tmp/cc28tSsR.s:1184   .text:00000000000005c8 .L0 
     /tmp/cc28tSsR.s:1329   .text:0000000000000684 .L0 
     /tmp/cc28tSsR.s:34     .text:0000000000000020 .L4
GAS LISTING /tmp/cc28tSsR.s 			page 48


     /tmp/cc28tSsR.s:26     .text:0000000000000014 .L1
     /tmp/cc28tSsR.s:221    .text:0000000000000100 .L15
     /tmp/cc28tSsR.s:257    .text:0000000000000128 .L11
     /tmp/cc28tSsR.s:207    .text:00000000000000ec .L13
     /tmp/cc28tSsR.s:200    .text:00000000000000e4 .L14
     /tmp/cc28tSsR.s:193    .text:00000000000000e0 .L17
     /tmp/cc28tSsR.s:321    .text:0000000000000164 .L22
     /tmp/cc28tSsR.s:311    .text:0000000000000158 .L19
     /tmp/cc28tSsR.s:428    .text:00000000000001f4 .L24
     /tmp/cc28tSsR.s:401    .text:00000000000001d0 .L25
     /tmp/cc28tSsR.s:465    .text:000000000000021c .L33
     /tmp/cc28tSsR.s:522    .text:000000000000026c .L35
     /tmp/cc28tSsR.s:548    .text:0000000000000288 .L36
     /tmp/cc28tSsR.s:575    .text:00000000000002ac .L40
     /tmp/cc28tSsR.s:560    .text:0000000000000298 .L34
     /tmp/cc28tSsR.s:541    .text:0000000000000280 .L37
     /tmp/cc28tSsR.s:611    .text:00000000000002d0 .L47
     /tmp/cc28tSsR.s:784    .text:00000000000003b4 .L58
     /tmp/cc28tSsR.s:709    .text:0000000000000354 .L50
     /tmp/cc28tSsR.s:749    .text:0000000000000390 .L56
     /tmp/cc28tSsR.s:755    .text:0000000000000398 .L57
     /tmp/cc28tSsR.s:776    .text:00000000000003b0 .L51
     /tmp/cc28tSsR.s:670    .text:000000000000032c .L60
     /tmp/cc28tSsR.s:699    .text:000000000000034c .L54
     /tmp/cc28tSsR.s:684    .text:0000000000000338 .L55
     /tmp/cc28tSsR.s:693    .text:0000000000000344 .L61
     /tmp/cc28tSsR.s:803    .text:00000000000003c8 .L48
     /tmp/cc28tSsR.s:932    .text:0000000000000490 .L63
     /tmp/cc28tSsR.s:942    .text:00000000000004a4 .L68
     /tmp/cc28tSsR.s:893    .text:0000000000000460 .L64
     /tmp/cc28tSsR.s:909    .text:000000000000046c .L66
     /tmp/cc28tSsR.s:1149   .text:00000000000005ac .L70
     /tmp/cc28tSsR.s:998    .text:00000000000004e4 .L72
     /tmp/cc28tSsR.s:990    .text:00000000000004dc .L82
     /tmp/cc28tSsR.s:1028   .text:0000000000000514 .L83
     /tmp/cc28tSsR.s:1038   .text:000000000000051c .L75
     /tmp/cc28tSsR.s:1075   .text:0000000000000550 .L80
     /tmp/cc28tSsR.s:1125   .text:000000000000058c .L74
     /tmp/cc28tSsR.s:1016   .text:00000000000004fc .L76
     /tmp/cc28tSsR.s:1105   .text:0000000000000570 .L78
     /tmp/cc28tSsR.s:1053   .text:0000000000000530 .L79
     /tmp/cc28tSsR.s:1047   .text:000000000000052c .L84
     /tmp/cc28tSsR.s:1227   .text:000000000000061c .L90
     /tmp/cc28tSsR.s:1237   .text:0000000000000624 .L91
     /tmp/cc28tSsR.s:1210   .text:0000000000000600 .L87
     /tmp/cc28tSsR.s:1294   .text:0000000000000664 .L93
     /tmp/cc28tSsR.s:1278   .text:000000000000064c .L94
     /tmp/cc28tSsR.s:1359   .text:00000000000006bc .L101
     /tmp/cc28tSsR.s:1369   .text:00000000000006c4 .L102
     /tmp/cc28tSsR.s:1344   .text:00000000000006a4 .L98
     /tmp/cc28tSsR.s:1428   .text:0000000000000704 .L104
     /tmp/cc28tSsR.s:1412   .text:00000000000006ec .L105
     /tmp/cc28tSsR.s:4580   .debug_abbrev:0000000000000000 .Ldebug_abbrev0
     /tmp/cc28tSsR.s:7389   .debug_str:0000000000000e14 .LASF260
     /tmp/cc28tSsR.s:7083   .debug_str:000000000000035b .LASF261
     /tmp/cc28tSsR.s:7151   .debug_str:00000000000005ce .LASF262
     /tmp/cc28tSsR.s:8      .text:0000000000000000 .Ltext0
GAS LISTING /tmp/cc28tSsR.s 			page 49


     /tmp/cc28tSsR.s:1484   .text:0000000000000740 .Letext0
     /tmp/cc28tSsR.s:6979   .debug_line:0000000000000000 .Ldebug_line0
     /tmp/cc28tSsR.s:7159   .debug_str:0000000000000618 .LASF0
     /tmp/cc28tSsR.s:7203   .debug_str:00000000000007b0 .LASF1
     /tmp/cc28tSsR.s:7343   .debug_str:0000000000000cd3 .LASF2
     /tmp/cc28tSsR.s:7353   .debug_str:0000000000000d16 .LASF4
     /tmp/cc28tSsR.s:7175   .debug_str:00000000000006af .LASF3
     /tmp/cc28tSsR.s:6997   .debug_str:0000000000000095 .LASF5
     /tmp/cc28tSsR.s:7307   .debug_str:0000000000000baa .LASF6
     /tmp/cc28tSsR.s:7295   .debug_str:0000000000000b18 .LASF7
     /tmp/cc28tSsR.s:7191   .debug_str:000000000000074e .LASF8
     /tmp/cc28tSsR.s:7121   .debug_str:00000000000004d7 .LASF9
     /tmp/cc28tSsR.s:7131   .debug_str:0000000000000523 .LASF10
     /tmp/cc28tSsR.s:7041   .debug_str:000000000000022a .LASF11
     /tmp/cc28tSsR.s:7111   .debug_str:000000000000049a .LASF12
     /tmp/cc28tSsR.s:7059   .debug_str:000000000000028f .LASF13
     /tmp/cc28tSsR.s:7039   .debug_str:000000000000021a .LASF14
     /tmp/cc28tSsR.s:7397   .debug_str:0000000000000f00 .LASF15
     /tmp/cc28tSsR.s:7095   .debug_str:000000000000040e .LASF16
     /tmp/cc28tSsR.s:7383   .debug_str:0000000000000dd8 .LASF17
     /tmp/cc28tSsR.s:7407   .debug_str:0000000000000f45 .LASF114
     /tmp/cc28tSsR.s:7503   .debug_str:0000000000001278 .LASF18
     /tmp/cc28tSsR.s:7125   .debug_str:00000000000004ef .LASF20
     /tmp/cc28tSsR.s:6985   .debug_str:0000000000000025 .LASF38
     /tmp/cc28tSsR.s:7229   .debug_str:00000000000008ac .LASF75
     /tmp/cc28tSsR.s:7355   .debug_str:0000000000000d1d .LASF19
     /tmp/cc28tSsR.s:6993   .debug_str:000000000000007f .LASF21
     /tmp/cc28tSsR.s:7395   .debug_str:0000000000000ef3 .LASF22
     /tmp/cc28tSsR.s:7341   .debug_str:0000000000000caf .LASF23
     /tmp/cc28tSsR.s:7281   .debug_str:0000000000000a72 .LASF263
     /tmp/cc28tSsR.s:7163   .debug_str:000000000000063d .LASF26
     /tmp/cc28tSsR.s:7225   .debug_str:0000000000000877 .LASF28
     /tmp/cc28tSsR.s:7045   .debug_str:000000000000023e .LASF24
     /tmp/cc28tSsR.s:7261   .debug_str:000000000000099d .LASF25
     /tmp/cc28tSsR.s:7211   .debug_str:00000000000007ef .LASF27
     /tmp/cc28tSsR.s:7449   .debug_str:000000000000107e .LASF29
     /tmp/cc28tSsR.s:7207   .debug_str:00000000000007c9 .LASF30
     /tmp/cc28tSsR.s:7427   .debug_str:0000000000000fe6 .LASF32
     /tmp/cc28tSsR.s:7423   .debug_str:0000000000000fc9 .LASF64
     /tmp/cc28tSsR.s:7345   .debug_str:0000000000000ce1 .LASF31
     /tmp/cc28tSsR.s:7455   .debug_str:00000000000010ae .LASF33
     /tmp/cc28tSsR.s:7497   .debug_str:000000000000124c .LASF34
     /tmp/cc28tSsR.s:7483   .debug_str:00000000000011da .LASF35
     /tmp/cc28tSsR.s:7409   .debug_str:0000000000000f4d .LASF36
     /tmp/cc28tSsR.s:7403   .debug_str:0000000000000f27 .LASF37
     /tmp/cc28tSsR.s:7277   .debug_str:0000000000000a53 .LASF136
     /tmp/cc28tSsR.s:7379   .debug_str:0000000000000db6 .LASF39
     /tmp/cc28tSsR.s:7275   .debug_str:0000000000000a25 .LASF41
     /tmp/cc28tSsR.s:7005   .debug_str:00000000000000e8 .LASF54
     /tmp/cc28tSsR.s:7103   .debug_str:000000000000044d .LASF56
     /tmp/cc28tSsR.s:7153   .debug_str:00000000000005f5 .LASF40
     /tmp/cc28tSsR.s:7029   .debug_str:000000000000018c .LASF42
     /tmp/cc28tSsR.s:7369   .debug_str:0000000000000d73 .LASF43
     /tmp/cc28tSsR.s:7185   .debug_str:0000000000000706 .LASF50
     /tmp/cc28tSsR.s:6983   .debug_str:0000000000000020 .LASF44
     /tmp/cc28tSsR.s:7495   .debug_str:0000000000001246 .LASF45
     /tmp/cc28tSsR.s:7435   .debug_str:000000000000100f .LASF46
GAS LISTING /tmp/cc28tSsR.s 			page 50


     /tmp/cc28tSsR.s:7453   .debug_str:00000000000010a7 .LASF47
     /tmp/cc28tSsR.s:7167   .debug_str:0000000000000651 .LASF48
     /tmp/cc28tSsR.s:7431   .debug_str:0000000000000fff .LASF49
     /tmp/cc28tSsR.s:7367   .debug_str:0000000000000d62 .LASF51
     /tmp/cc28tSsR.s:7271   .debug_str:0000000000000a08 .LASF52
     /tmp/cc28tSsR.s:7013   .debug_str:0000000000000126 .LASF53
     /tmp/cc28tSsR.s:7303   .debug_str:0000000000000b77 .LASF55
     /tmp/cc28tSsR.s:7213   .debug_str:00000000000007fc .LASF57
     /tmp/cc28tSsR.s:7335   .debug_str:0000000000000c8f .LASF58
     /tmp/cc28tSsR.s:6989   .debug_str:000000000000003d .LASF59
     /tmp/cc28tSsR.s:7079   .debug_str:000000000000034d .LASF60
     /tmp/cc28tSsR.s:7053   .debug_str:000000000000026c .LASF61
     /tmp/cc28tSsR.s:7069   .debug_str:0000000000000301 .LASF62
     /tmp/cc28tSsR.s:6991   .debug_str:0000000000000057 .LASF63
     /tmp/cc28tSsR.s:7381   .debug_str:0000000000000dca .LASF65
     /tmp/cc28tSsR.s:7311   .debug_str:0000000000000bc2 .LASF66
     /tmp/cc28tSsR.s:7073   .debug_str:0000000000000316 .LASF67
     /tmp/cc28tSsR.s:7443   .debug_str:0000000000001048 .LASF68
     /tmp/cc28tSsR.s:7177   .debug_str:00000000000006c1 .LASF69
     /tmp/cc28tSsR.s:7249   .debug_str:0000000000000953 .LASF70
     /tmp/cc28tSsR.s:7273   .debug_str:0000000000000a10 .LASF71
     /tmp/cc28tSsR.s:7499   .debug_str:0000000000001253 .LASF72
     /tmp/cc28tSsR.s:7065   .debug_str:00000000000002d7 .LASF73
     /tmp/cc28tSsR.s:7509   .debug_str:000000000000129f .LASF74
     /tmp/cc28tSsR.s:7217   .debug_str:000000000000082a .LASF76
     /tmp/cc28tSsR.s:7451   .debug_str:0000000000001097 .LASF77
     /tmp/cc28tSsR.s:7021   .debug_str:000000000000014b .LASF78
     /tmp/cc28tSsR.s:7183   .debug_str:00000000000006f7 .LASF79
     /tmp/cc28tSsR.s:7241   .debug_str:0000000000000901 .LASF80
     /tmp/cc28tSsR.s:7293   .debug_str:0000000000000b07 .LASF81
     /tmp/cc28tSsR.s:7085   .debug_str:000000000000036d .LASF82
     /tmp/cc28tSsR.s:7399   .debug_str:0000000000000f0c .LASF83
     /tmp/cc28tSsR.s:7421   .debug_str:0000000000000f9e .LASF84
     /tmp/cc28tSsR.s:7105   .debug_str:000000000000046a .LASF85
     /tmp/cc28tSsR.s:7137   .debug_str:0000000000000542 .LASF86
     /tmp/cc28tSsR.s:7219   .debug_str:0000000000000851 .LASF87
     /tmp/cc28tSsR.s:7037   .debug_str:00000000000001f4 .LASF88
     /tmp/cc28tSsR.s:7215   .debug_str:0000000000000815 .LASF89
     /tmp/cc28tSsR.s:7035   .debug_str:00000000000001de .LASF90
     /tmp/cc28tSsR.s:7405   .debug_str:0000000000000f3d .LASF91
     /tmp/cc28tSsR.s:7171   .debug_str:000000000000066e .LASF92
     /tmp/cc28tSsR.s:7081   .debug_str:0000000000000356 .LASF93
     /tmp/cc28tSsR.s:7161   .debug_str:0000000000000625 .LASF94
     /tmp/cc28tSsR.s:7401   .debug_str:0000000000000f20 .LASF95
     /tmp/cc28tSsR.s:7089   .debug_str:00000000000003ca .LASF96
     /tmp/cc28tSsR.s:7157   .debug_str:0000000000000612 .LASF97
     /tmp/cc28tSsR.s:7257   .debug_str:000000000000097d .LASF98
     /tmp/cc28tSsR.s:6987   .debug_str:0000000000000035 .LASF99
     /tmp/cc28tSsR.s:7447   .debug_str:0000000000001063 .LASF100
     /tmp/cc28tSsR.s:7147   .debug_str:00000000000005b0 .LASF101
     /tmp/cc28tSsR.s:7419   .debug_str:0000000000000f93 .LASF102
     /tmp/cc28tSsR.s:7469   .debug_str:000000000000112e .LASF103
     /tmp/cc28tSsR.s:7231   .debug_str:00000000000008b9 .LASF104
     /tmp/cc28tSsR.s:7429   .debug_str:0000000000000ff6 .LASF105
     /tmp/cc28tSsR.s:7055   .debug_str:000000000000027f .LASF106
     /tmp/cc28tSsR.s:7253   .debug_str:000000000000096c .LASF107
     /tmp/cc28tSsR.s:7415   .debug_str:0000000000000f76 .LASF108
GAS LISTING /tmp/cc28tSsR.s 			page 51


     /tmp/cc28tSsR.s:7461   .debug_str:00000000000010e8 .LASF109
     /tmp/cc28tSsR.s:7441   .debug_str:000000000000103b .LASF110
     /tmp/cc28tSsR.s:7101   .debug_str:0000000000000445 .LASF111
     /tmp/cc28tSsR.s:7123   .debug_str:00000000000004e7 .LASF112
     /tmp/cc28tSsR.s:7289   .debug_str:0000000000000acf .LASF113
     /tmp/cc28tSsR.s:7285   .debug_str:0000000000000a9b .LASF115
     /tmp/cc28tSsR.s:7043   .debug_str:0000000000000239 .LASF116
     /tmp/cc28tSsR.s:7201   .debug_str:00000000000007ab .LASF117
     /tmp/cc28tSsR.s:7155   .debug_str:0000000000000606 .LASF118
     /tmp/cc28tSsR.s:7471   .debug_str:000000000000113c .LASF119
     /tmp/cc28tSsR.s:7049   .debug_str:0000000000000252 .LASF120
     /tmp/cc28tSsR.s:7291   .debug_str:0000000000000adf .LASF121
     /tmp/cc28tSsR.s:7015   .debug_str:000000000000012e .LASF122
     /tmp/cc28tSsR.s:7305   .debug_str:0000000000000b85 .LASF123
     /tmp/cc28tSsR.s:7267   .debug_str:00000000000009d6 .LASF124
     /tmp/cc28tSsR.s:7515   .debug_str:00000000000012d4 .LASF125
     /tmp/cc28tSsR.s:7377   .debug_str:0000000000000daa .LASF126
     /tmp/cc28tSsR.s:7481   .debug_str:00000000000011b4 .LASF127
     /tmp/cc28tSsR.s:7319   .debug_str:0000000000000bef .LASF128
     /tmp/cc28tSsR.s:7181   .debug_str:00000000000006e9 .LASF129
     /tmp/cc28tSsR.s:7221   .debug_str:0000000000000863 .LASF264
     /tmp/cc28tSsR.s:7165   .debug_str:0000000000000647 .LASF130
     /tmp/cc28tSsR.s:7087   .debug_str:0000000000000394 .LASF131
     /tmp/cc28tSsR.s:7127   .debug_str:00000000000004fb .LASF132
     /tmp/cc28tSsR.s:7233   .debug_str:00000000000008c7 .LASF133
     /tmp/cc28tSsR.s:7119   .debug_str:00000000000004cd .LASF134
     /tmp/cc28tSsR.s:7411   .debug_str:0000000000000f58 .LASF135
     /tmp/cc28tSsR.s:7491   .debug_str:000000000000122a .LASF265
     /tmp/cc28tSsR.s:7149   .debug_str:00000000000005b6 .LASF137
     /tmp/cc28tSsR.s:7457   .debug_str:00000000000010c0 .LASF138
     /tmp/cc28tSsR.s:7075   .debug_str:0000000000000326 .LASF139
     /tmp/cc28tSsR.s:7197   .debug_str:000000000000079d .LASF140
     /tmp/cc28tSsR.s:7309   .debug_str:0000000000000bb1 .LASF141
     /tmp/cc28tSsR.s:7243   .debug_str:0000000000000926 .LASF142
     /tmp/cc28tSsR.s:7003   .debug_str:00000000000000d0 .LASF143
     /tmp/cc28tSsR.s:7107   .debug_str:000000000000047c .LASF169
     /tmp/cc28tSsR.s:7109   .debug_str:0000000000000495 .LASF144
     /tmp/cc28tSsR.s:7135   .debug_str:000000000000053d .LASF145
     /tmp/cc28tSsR.s:7247   .debug_str:000000000000094e .LASF146
     /tmp/cc28tSsR.s:7385   .debug_str:0000000000000dee .LASF147
     /tmp/cc28tSsR.s:7093   .debug_str:00000000000003f7 .LASF148
     /tmp/cc28tSsR.s:7347   .debug_str:0000000000000ce9 .LASF173
     /tmp/cc28tSsR.s:7333   .debug_str:0000000000000c78 .LASF174
     /tmp/cc28tSsR.s:7337   .debug_str:0000000000000c9d .LASF149
     /tmp/cc28tSsR.s:7475   .debug_str:0000000000001174 .LASF150
     /tmp/cc28tSsR.s:7223   .debug_str:000000000000086f .LASF151
     /tmp/cc28tSsR.s:7063   .debug_str:00000000000002ba .LASF152
     /tmp/cc28tSsR.s:7357   .debug_str:0000000000000d22 .LASF153
     /tmp/cc28tSsR.s:7459   .debug_str:00000000000010ca .LASF154
     /tmp/cc28tSsR.s:7513   .debug_str:00000000000012ca .LASF155
     /tmp/cc28tSsR.s:7061   .debug_str:000000000000029f .LASF156
     /tmp/cc28tSsR.s:7373   .debug_str:0000000000000d97 .LASF157
     /tmp/cc28tSsR.s:7189   .debug_str:0000000000000731 .LASF158
     /tmp/cc28tSsR.s:7325   .debug_str:0000000000000c25 .LASF159
     /tmp/cc28tSsR.s:7489   .debug_str:0000000000001210 .LASF160
     /tmp/cc28tSsR.s:7259   .debug_str:0000000000000996 .LASF266
     /tmp/cc28tSsR.s:7375   .debug_str:0000000000000da2 .LASF161
GAS LISTING /tmp/cc28tSsR.s 			page 52


     /tmp/cc28tSsR.s:7051   .debug_str:0000000000000262 .LASF162
     /tmp/cc28tSsR.s:7199   .debug_str:00000000000007a2 .LASF163
     /tmp/cc28tSsR.s:7027   .debug_str:0000000000000183 .LASF164
     /tmp/cc28tSsR.s:7329   .debug_str:0000000000000c5e .LASF165
     /tmp/cc28tSsR.s:7505   .debug_str:0000000000001285 .LASF166
     /tmp/cc28tSsR.s:7195   .debug_str:0000000000000774 .LASF167
     /tmp/cc28tSsR.s:7227   .debug_str:000000000000088b .LASF168
     /tmp/cc28tSsR.s:7077   .debug_str:000000000000032b .LASF170
     /tmp/cc28tSsR.s:7511   .debug_str:00000000000012ae .LASF171
     /tmp/cc28tSsR.s:6981   .debug_str:0000000000000000 .LASF172
     /tmp/cc28tSsR.s:7209   .debug_str:00000000000007cf .LASF175
     /tmp/cc28tSsR.s:7287   .debug_str:0000000000000aa8 .LASF176
     /tmp/cc28tSsR.s:7173   .debug_str:0000000000000689 .LASF177
     /tmp/cc28tSsR.s:7467   .debug_str:0000000000001107 .LASF178
     /tmp/cc28tSsR.s:7283   .debug_str:0000000000000a77 .LASF179
     /tmp/cc28tSsR.s:7301   .debug_str:0000000000000b51 .LASF180
     /tmp/cc28tSsR.s:7269   .debug_str:00000000000009e5 .LASF181
     /tmp/cc28tSsR.s:7463   .debug_str:00000000000010f7 .LASF182
     /tmp/cc28tSsR.s:7279   .debug_str:0000000000000a6b .LASF183
     /tmp/cc28tSsR.s:7145   .debug_str:00000000000005a5 .LASF184
     /tmp/cc28tSsR.s:7265   .debug_str:00000000000009be .LASF185
     /tmp/cc28tSsR.s:7023   .debug_str:0000000000000171 .LASF186
     /tmp/cc28tSsR.s:7141   .debug_str:0000000000000579 .LASF187
     /tmp/cc28tSsR.s:7363   .debug_str:0000000000000d48 .LASF188
     /tmp/cc28tSsR.s:7097   .debug_str:0000000000000424 .LASF189
     /tmp/cc28tSsR.s:7251   .debug_str:000000000000095f .LASF190
     /tmp/cc28tSsR.s:7477   .debug_str:0000000000001192 .LASF191
     /tmp/cc28tSsR.s:7445   .debug_str:000000000000105a .LASF192
     /tmp/cc28tSsR.s:7437   .debug_str:0000000000001017 .LASF196
     /tmp/cc28tSsR.s:7339   .debug_str:0000000000000ca6 .LASF193
     /tmp/cc28tSsR.s:7425   .debug_str:0000000000000fd1 .LASF194
     /tmp/cc28tSsR.s:7313   .debug_str:0000000000000bce .LASF195
     /tmp/cc28tSsR.s:7321   .debug_str:0000000000000bfe .LASF197
     /tmp/cc28tSsR.s:7263   .debug_str:00000000000009b7 .LASF198
     /tmp/cc28tSsR.s:7193   .debug_str:0000000000000761 .LASF199
     /tmp/cc28tSsR.s:7479   .debug_str:00000000000011ac .LASF200
     /tmp/cc28tSsR.s:7393   .debug_str:0000000000000edf .LASF201
     /tmp/cc28tSsR.s:7255   .debug_str:0000000000000975 .LASF202
     /tmp/cc28tSsR.s:7115   .debug_str:00000000000004b4 .LASF203
     /tmp/cc28tSsR.s:7245   .debug_str:0000000000000946 .LASF204
     /tmp/cc28tSsR.s:7323   .debug_str:0000000000000c11 .LASF205
     /tmp/cc28tSsR.s:7507   .debug_str:0000000000001297 .LASF206
     /tmp/cc28tSsR.s:7473   .debug_str:0000000000001160 .LASF207
     /tmp/cc28tSsR.s:7391   .debug_str:0000000000000ed8 .LASF208
     /tmp/cc28tSsR.s:7359   .debug_str:0000000000000d2e .LASF209
     /tmp/cc28tSsR.s:7361   .debug_str:0000000000000d41 .LASF210
     /tmp/cc28tSsR.s:7091   .debug_str:00000000000003e4 .LASF211
     /tmp/cc28tSsR.s:7057   .debug_str:0000000000000289 .LASF212
     /tmp/cc28tSsR.s:7417   .debug_str:0000000000000f81 .LASF213
     /tmp/cc28tSsR.s:7433   .debug_str:0000000000001009 .LASF214
     /tmp/cc28tSsR.s:7143   .debug_str:0000000000000593 .LASF215
     /tmp/cc28tSsR.s:6999   .debug_str:000000000000009c .LASF216
     /tmp/cc28tSsR.s:7349   .debug_str:0000000000000cf3 .LASF217
     /tmp/cc28tSsR.s:7113   .debug_str:00000000000004a9 .LASF218
     /tmp/cc28tSsR.s:7501   .debug_str:0000000000001260 .LASF219
     /tmp/cc28tSsR.s:7465   .debug_str:00000000000010fd .LASF220
     /tmp/cc28tSsR.s:7485   .debug_str:00000000000011eb .LASF221
GAS LISTING /tmp/cc28tSsR.s 			page 53


     /tmp/cc28tSsR.s:7047   .debug_str:0000000000000248 .LASF222
     /tmp/cc28tSsR.s:7237   .debug_str:00000000000008e4 .LASF223
     /tmp/cc28tSsR.s:7439   .debug_str:000000000000102c .LASF224
     /tmp/cc28tSsR.s:7129   .debug_str:0000000000000507 .LASF225
     /tmp/cc28tSsR.s:7071   .debug_str:000000000000030f .LASF226
     /tmp/cc28tSsR.s:7169   .debug_str:0000000000000666 .LASF227
     /tmp/cc28tSsR.s:7017   .debug_str:000000000000013b .LASF228
     /tmp/cc28tSsR.s:7099   .debug_str:000000000000043f .LASF229
     /tmp/cc28tSsR.s:7205   .debug_str:00000000000007c3 .LASF230
     /tmp/cc28tSsR.s:7413   .debug_str:0000000000000f6c .LASF231
     /tmp/cc28tSsR.s:7235   .debug_str:00000000000008da .LASF232
     /tmp/cc28tSsR.s:7031   .debug_str:00000000000001a8 .LASF233
     /tmp/cc28tSsR.s:7365   .debug_str:0000000000000d56 .LASF234
     /tmp/cc28tSsR.s:7331   .debug_str:0000000000000c63 .LASF235
     /tmp/cc28tSsR.s:7187   .debug_str:000000000000070f .LASF236
     /tmp/cc28tSsR.s:7487   .debug_str:0000000000001201 .LASF237
     /tmp/cc28tSsR.s:7371   .debug_str:0000000000000d7b .LASF238
     /tmp/cc28tSsR.s:7297   .debug_str:0000000000000b2b .LASF267
     /tmp/cc28tSsR.s:7327   .debug_str:0000000000000c2e .LASF239
     /tmp/cc28tSsR.s:1444   .text:000000000000070c .LFB73
     /tmp/cc28tSsR.s:1470   .text:0000000000000740 .LFE73
     /tmp/cc28tSsR.s:1460   .text:0000000000000730 .LVL117
     /tmp/cc28tSsR.s:7033   .debug_str:00000000000001b4 .LASF240
     /tmp/cc28tSsR.s:12     .text:0000000000000000 .LFB72
     /tmp/cc28tSsR.s:56     .text:0000000000000040 .LFE72
     /tmp/cc28tSsR.s:7139   .debug_str:000000000000056a .LASF241
     /tmp/cc28tSsR.s:7351   .debug_str:0000000000000d0b .LASF242
     /tmp/cc28tSsR.s:41     .text:000000000000002c .LBB63
     /tmp/cc28tSsR.s:52     .text:000000000000003c .LBE63
     /tmp/cc28tSsR.s:6033   .debug_loc:0000000000000000 .LLST0
     /tmp/cc28tSsR.s:7117   .debug_str:00000000000004c8 .LASF244
     /tmp/cc28tSsR.s:7299   .debug_str:0000000000000b4c .LASF243
     /tmp/cc28tSsR.s:7001   .debug_str:00000000000000a7 .LASF245
     /tmp/cc28tSsR.s:7133   .debug_str:0000000000000531 .LASF247
     /tmp/cc28tSsR.s:7011   .debug_str:0000000000000106 .LASF246
     /tmp/cc28tSsR.s:7025   .debug_str:000000000000017e .LASF248
     /tmp/cc28tSsR.s:7387   .debug_str:0000000000000e01 .LASF249
     /tmp/cc28tSsR.s:7179   .debug_str:00000000000006cd .LASF250
     /tmp/cc28tSsR.s:1385   .text:00000000000006cc .LFB51
     /tmp/cc28tSsR.s:1439   .text:000000000000070c .LFE51
     /tmp/cc28tSsR.s:6042   .debug_loc:000000000000002c .LLST66
     /tmp/cc28tSsR.s:6060   .debug_loc:0000000000000078 .LLST67
     /tmp/cc28tSsR.s:1403   .text:00000000000006e8 .LVL113
     /tmp/cc28tSsR.s:1416   .text:00000000000006f4 .LVL115
     /tmp/cc28tSsR.s:1311   .text:000000000000066c .LFB50
     /tmp/cc28tSsR.s:1379   .text:00000000000006cc .LFE50
     /tmp/cc28tSsR.s:6067   .debug_loc:000000000000009b .LLST64
     /tmp/cc28tSsR.s:7493   .debug_str:000000000000123e .LASF251
     /tmp/cc28tSsR.s:6081   .debug_loc:00000000000000d4 .LLST65
     /tmp/cc28tSsR.s:1326   .text:0000000000000684 .LVL110
     /tmp/cc28tSsR.s:1348   .text:00000000000006ac .LVL111
     /tmp/cc28tSsR.s:1253   .text:000000000000062c .LFB49
     /tmp/cc28tSsR.s:1305   .text:000000000000066c .LFE49
     /tmp/cc28tSsR.s:6095   .debug_loc:000000000000010d .LLST63
     /tmp/cc28tSsR.s:1270   .text:0000000000000648 .LVL106
     /tmp/cc28tSsR.s:1282   .text:0000000000000654 .LVL107
     /tmp/cc28tSsR.s:1168   .text:00000000000005b4 .LFB48
GAS LISTING /tmp/cc28tSsR.s 			page 54


     /tmp/cc28tSsR.s:1247   .text:000000000000062c .LFE48
     /tmp/cc28tSsR.s:6113   .debug_loc:0000000000000159 .LLST62
     /tmp/cc28tSsR.s:1192   .text:00000000000005e4 .LVL103
     /tmp/cc28tSsR.s:1214   .text:0000000000000608 .LVL104
     /tmp/cc28tSsR.s:960    .text:00000000000004ac .LFB47
     /tmp/cc28tSsR.s:1162   .text:00000000000005b4 .LFE47
     /tmp/cc28tSsR.s:7239   .debug_str:00000000000008fa .LASF252
     /tmp/cc28tSsR.s:6127   .debug_loc:0000000000000192 .LLST53
     /tmp/cc28tSsR.s:980    .text:00000000000004cc .LBB133
     /tmp/cc28tSsR.s:1128   .text:000000000000058c .LBE133
     /tmp/cc28tSsR.s:6149   .debug_loc:00000000000001f1 .LLST54
     /tmp/cc28tSsR.s:7009   .debug_str:0000000000000101 .LASF253
     /tmp/cc28tSsR.s:6169   .debug_loc:000000000000024e .LLST55
     /tmp/cc28tSsR.s:6923   .debug_ranges:0000000000000000 .Ldebug_ranges0
     /tmp/cc28tSsR.s:7019   .debug_str:0000000000000144 .LASF254
     /tmp/cc28tSsR.s:6185   .debug_loc:0000000000000298 .LLST56
     /tmp/cc28tSsR.s:1049   .text:000000000000052c .LBB137
     /tmp/cc28tSsR.s:6192   .debug_loc:00000000000002bb .LLST57
     /tmp/cc28tSsR.s:6207   .debug_loc:00000000000002f5 .LLST58
     /tmp/cc28tSsR.s:6218   .debug_loc:000000000000032b .LLST59
     /tmp/cc28tSsR.s:1057   .text:0000000000000534 .LBB139
     /tmp/cc28tSsR.s:1063   .text:000000000000053c .LBE139
     /tmp/cc28tSsR.s:6225   .debug_loc:000000000000034e .LLST60
     /tmp/cc28tSsR.s:1061   .text:000000000000053c .LVL92
     /tmp/cc28tSsR.s:1074   .text:0000000000000550 .LVL93
     /tmp/cc28tSsR.s:1079   .text:0000000000000550 .LBB143
     /tmp/cc28tSsR.s:1089   .text:000000000000055c .LBE143
     /tmp/cc28tSsR.s:6232   .debug_loc:0000000000000371 .LLST61
     /tmp/cc28tSsR.s:1113   .text:000000000000057c .LVL97
     /tmp/cc28tSsR.s:1116   .text:0000000000000588 .LVL98
     /tmp/cc28tSsR.s:1133   .text:0000000000000594 .LVL100
     /tmp/cc28tSsR.s:832    .text:00000000000003ec .LFB46
     /tmp/cc28tSsR.s:954    .text:00000000000004ac .LFE46
     /tmp/cc28tSsR.s:6241   .debug_loc:0000000000000396 .LLST41
     /tmp/cc28tSsR.s:7315   .debug_str:0000000000000bd5 .LASF255
     /tmp/cc28tSsR.s:6263   .debug_loc:00000000000003f5 .LLST42
     /tmp/cc28tSsR.s:866    .text:0000000000000430 .LBB124
     /tmp/cc28tSsR.s:6277   .debug_loc:000000000000042e .LLST43
     /tmp/cc28tSsR.s:6290   .debug_loc:0000000000000466 .LLST44
     /tmp/cc28tSsR.s:6301   .debug_loc:000000000000049c .LLST45
     /tmp/cc28tSsR.s:6316   .debug_loc:00000000000004e4 .LLST46
     /tmp/cc28tSsR.s:868    .text:0000000000000430 .LBB126
     /tmp/cc28tSsR.s:875    .text:000000000000043c .LBE126
     /tmp/cc28tSsR.s:6327   .debug_loc:000000000000051a .LLST47
     /tmp/cc28tSsR.s:6335   .debug_loc:000000000000053e .LLST48
     /tmp/cc28tSsR.s:873    .text:000000000000043c .LVL77
     /tmp/cc28tSsR.s:876    .text:000000000000043c .LBB128
     /tmp/cc28tSsR.s:884    .text:0000000000000448 .LBE128
     /tmp/cc28tSsR.s:6343   .debug_loc:0000000000000562 .LLST49
     /tmp/cc28tSsR.s:6351   .debug_loc:0000000000000586 .LLST51
     /tmp/cc28tSsR.s:6358   .debug_loc:00000000000005a9 .LLST52
     /tmp/cc28tSsR.s:857    .text:000000000000041c .LVL74
     /tmp/cc28tSsR.s:861    .text:000000000000042c .LVL75
     /tmp/cc28tSsR.s:913    .text:0000000000000474 .LVL80
     /tmp/cc28tSsR.s:643    .text:00000000000002fc .LFB45
     /tmp/cc28tSsR.s:826    .text:00000000000003ec .LFE45
     /tmp/cc28tSsR.s:6365   .debug_loc:00000000000005cc .LLST35
GAS LISTING /tmp/cc28tSsR.s 			page 55


     /tmp/cc28tSsR.s:7007   .debug_str:00000000000000fa .LASF256
     /tmp/cc28tSsR.s:6372   .debug_loc:00000000000005ef .LLST36
     /tmp/cc28tSsR.s:6383   .debug_loc:0000000000000625 .LLST37
     /tmp/cc28tSsR.s:6416   .debug_loc:00000000000006bc .LLST38
     /tmp/cc28tSsR.s:6440   .debug_loc:000000000000072c .LLST39
     /tmp/cc28tSsR.s:761    .text:000000000000039c .LBB118
     /tmp/cc28tSsR.s:768    .text:00000000000003a8 .LBE118
     /tmp/cc28tSsR.s:6451   .debug_loc:0000000000000762 .LLST40
     /tmp/cc28tSsR.s:766    .text:00000000000003a8 .LVL64
     /tmp/cc28tSsR.s:741    .text:0000000000000384 .LVL62
     /tmp/cc28tSsR.s:497    .text:0000000000000248 .LFB44
     /tmp/cc28tSsR.s:585    .text:00000000000002b4 .LFE44
     /tmp/cc28tSsR.s:6458   .debug_loc:0000000000000785 .LLST28
     /tmp/cc28tSsR.s:6480   .debug_loc:00000000000007e4 .LLST29
     /tmp/cc28tSsR.s:514    .text:0000000000000260 .LBB106
     /tmp/cc28tSsR.s:525    .text:000000000000026c .LBE106
     /tmp/cc28tSsR.s:6491   .debug_loc:000000000000081a .LLST30
     /tmp/cc28tSsR.s:527    .text:000000000000026c .LBB108
     /tmp/cc28tSsR.s:6500   .debug_loc:000000000000083f .LLST31
     /tmp/cc28tSsR.s:6511   .debug_loc:0000000000000875 .LLST32
     /tmp/cc28tSsR.s:543    .text:0000000000000280 .LBB110
     /tmp/cc28tSsR.s:550    .text:0000000000000288 .LBE110
     /tmp/cc28tSsR.s:6519   .debug_loc:0000000000000899 .LLST33
     /tmp/cc28tSsR.s:547    .text:0000000000000288 .LVL47
     /tmp/cc28tSsR.s:559    .text:0000000000000298 .LVL48
     /tmp/cc28tSsR.s:338    .text:0000000000000174 .LFB43
     /tmp/cc28tSsR.s:439    .text:0000000000000200 .LFE43
     /tmp/cc28tSsR.s:6526   .debug_loc:00000000000008bc .LLST12
     /tmp/cc28tSsR.s:6548   .debug_loc:000000000000091b .LLST13
     /tmp/cc28tSsR.s:362    .text:00000000000001a0 .LBB90
     /tmp/cc28tSsR.s:371    .text:00000000000001a8 .LBE90
     /tmp/cc28tSsR.s:6570   .debug_loc:000000000000097a .LLST14
     /tmp/cc28tSsR.s:6578   .debug_loc:000000000000099e .LLST15
     /tmp/cc28tSsR.s:373    .text:00000000000001a8 .LBB92
     /tmp/cc28tSsR.s:6585   .debug_loc:00000000000009c1 .LLST16
     /tmp/cc28tSsR.s:6600   .debug_loc:0000000000000a0a .LLST17
     /tmp/cc28tSsR.s:6611   .debug_loc:0000000000000a40 .LLST18
     /tmp/cc28tSsR.s:6632   .debug_loc:0000000000000a8f .LLST19
     /tmp/cc28tSsR.s:375    .text:00000000000001a8 .LBB94
     /tmp/cc28tSsR.s:383    .text:00000000000001b4 .LBE94
     /tmp/cc28tSsR.s:6643   .debug_loc:0000000000000ac5 .LLST20
     /tmp/cc28tSsR.s:6651   .debug_loc:0000000000000ae9 .LLST21
     /tmp/cc28tSsR.s:381    .text:00000000000001b4 .LVL30
     /tmp/cc28tSsR.s:384    .text:00000000000001b4 .LBB96
     /tmp/cc28tSsR.s:392    .text:00000000000001c0 .LBE96
     /tmp/cc28tSsR.s:6659   .debug_loc:0000000000000b0d .LLST22
     /tmp/cc28tSsR.s:6666   .debug_loc:0000000000000b30 .LLST23
     /tmp/cc28tSsR.s:6674   .debug_loc:0000000000000b54 .LLST24
     /tmp/cc28tSsR.s:6681   .debug_loc:0000000000000b77 .LLST25
     /tmp/cc28tSsR.s:408    .text:00000000000001d8 .LVL33
     /tmp/cc28tSsR.s:591    .text:00000000000002b4 .LFB42
     /tmp/cc28tSsR.s:637    .text:00000000000002fc .LFE42
     /tmp/cc28tSsR.s:6688   .debug_loc:0000000000000b9a .LLST34
     /tmp/cc28tSsR.s:624    .text:00000000000002e8 .LVL54
     /tmp/cc28tSsR.s:445    .text:0000000000000200 .LFB41
     /tmp/cc28tSsR.s:491    .text:0000000000000248 .LFE41
     /tmp/cc28tSsR.s:6713   .debug_loc:0000000000000bfc .LLST26
GAS LISTING /tmp/cc28tSsR.s 			page 56


     /tmp/cc28tSsR.s:6738   .debug_loc:0000000000000c5e .LLST27
     /tmp/cc28tSsR.s:478    .text:0000000000000234 .LVL40
     /tmp/cc28tSsR.s:293    .text:0000000000000140 .LFB40
     /tmp/cc28tSsR.s:332    .text:0000000000000174 .LFE40
     /tmp/cc28tSsR.s:6752   .debug_loc:0000000000000c97 .LLST11
     /tmp/cc28tSsR.s:6995   .debug_str:000000000000008b .LASF257
     /tmp/cc28tSsR.s:7067   .debug_str:00000000000002ec .LASF258
     /tmp/cc28tSsR.s:172    .text:00000000000000c0 .LFB38
     /tmp/cc28tSsR.s:277    .text:0000000000000140 .LFE38
     /tmp/cc28tSsR.s:6777   .debug_loc:0000000000000cf9 .LLST5
     /tmp/cc28tSsR.s:220    .text:0000000000000100 .LVL16
     /tmp/cc28tSsR.s:6795   .debug_loc:0000000000000d45 .LLST6
     /tmp/cc28tSsR.s:196    .text:00000000000000e0 .LBB81
     /tmp/cc28tSsR.s:6806   .debug_loc:0000000000000d7b .LLST7
     /tmp/cc28tSsR.s:6817   .debug_loc:0000000000000db1 .LLST8
     /tmp/cc28tSsR.s:202    .text:00000000000000e4 .LBB83
     /tmp/cc28tSsR.s:209    .text:00000000000000ec .LBE83
     /tmp/cc28tSsR.s:6825   .debug_loc:0000000000000dd5 .LLST9
     /tmp/cc28tSsR.s:206    .text:00000000000000ec .LVL15
     /tmp/cc28tSsR.s:225    .text:0000000000000100 .LBB87
     /tmp/cc28tSsR.s:235    .text:000000000000010c .LBE87
     /tmp/cc28tSsR.s:6832   .debug_loc:0000000000000df8 .LLST10
     /tmp/cc28tSsR.s:7317   .debug_str:0000000000000bda .LASF259
     /tmp/cc28tSsR.s:132    .text:0000000000000098 .LFB35
     /tmp/cc28tSsR.s:164    .text:00000000000000c0 .LFE35
     /tmp/cc28tSsR.s:147    .text:00000000000000ac .LBB67
     /tmp/cc28tSsR.s:154    .text:00000000000000b4 .LBE67
     /tmp/cc28tSsR.s:6841   .debug_loc:0000000000000e1d .LLST4
     /tmp/cc28tSsR.s:100    .text:0000000000000070 .LFB33
     /tmp/cc28tSsR.s:126    .text:0000000000000098 .LFE33
     /tmp/cc28tSsR.s:6850   .debug_loc:0000000000000e42 .LLST3
     /tmp/cc28tSsR.s:115    .text:0000000000000088 .LVL8
     /tmp/cc28tSsR.s:62     .text:0000000000000040 .LFB32
     /tmp/cc28tSsR.s:94     .text:0000000000000070 .LFE32
     /tmp/cc28tSsR.s:6864   .debug_loc:0000000000000e7b .LLST1
     /tmp/cc28tSsR.s:6884   .debug_loc:0000000000000eca .LLST2
     /tmp/cc28tSsR.s:83     .text:0000000000000060 .LVL6
     /tmp/cc28tSsR.s:40     .text:000000000000002c .LVL1
     /tmp/cc28tSsR.s:49     .text:000000000000003c .LVL2
     /tmp/cc28tSsR.s:1388   .text:00000000000006cc .LVL112
     /tmp/cc28tSsR.s:1427   .text:0000000000000704 .LVL116
     /tmp/cc28tSsR.s:1410   .text:00000000000006ec .LVL114
     /tmp/cc28tSsR.s:1314   .text:000000000000066c .LVL109
     /tmp/cc28tSsR.s:1256   .text:000000000000062c .LVL105
     /tmp/cc28tSsR.s:1293   .text:0000000000000664 .LVL108
     /tmp/cc28tSsR.s:1171   .text:00000000000005b4 .LVL102
     /tmp/cc28tSsR.s:963    .text:00000000000004ac .LVL84
     /tmp/cc28tSsR.s:1046   .text:000000000000052c .LVL90
     /tmp/cc28tSsR.s:1123   .text:000000000000058c .LVL99
     /tmp/cc28tSsR.s:1148   .text:00000000000005ac .LVL101
     /tmp/cc28tSsR.s:984    .text:00000000000004d4 .LVL85
     /tmp/cc28tSsR.s:989    .text:00000000000004dc .LVL86
     /tmp/cc28tSsR.s:997    .text:00000000000004e4 .LVL87
     /tmp/cc28tSsR.s:1025   .text:0000000000000510 .LVL88
     /tmp/cc28tSsR.s:1027   .text:0000000000000514 .LVL89
     /tmp/cc28tSsR.s:1094   .text:0000000000000560 .LVL95
     /tmp/cc28tSsR.s:1104   .text:0000000000000570 .LVL96
GAS LISTING /tmp/cc28tSsR.s 			page 57


     /tmp/cc28tSsR.s:1056   .text:0000000000000534 .LVL91
     /tmp/cc28tSsR.s:1087   .text:000000000000055c .LVL94
     /tmp/cc28tSsR.s:835    .text:00000000000003ec .LVL72
     /tmp/cc28tSsR.s:855    .text:0000000000000414 .LVL73
     /tmp/cc28tSsR.s:923    .text:0000000000000480 .LVL81
     /tmp/cc28tSsR.s:931    .text:0000000000000490 .LVL82
     /tmp/cc28tSsR.s:865    .text:0000000000000430 .LVL76
     /tmp/cc28tSsR.s:894    .text:0000000000000460 .LVL79
     /tmp/cc28tSsR.s:941    .text:00000000000004a4 .LVL83
     /tmp/cc28tSsR.s:882    .text:0000000000000448 .LVL78
     /tmp/cc28tSsR.s:667    .text:0000000000000328 .LVL55
     /tmp/cc28tSsR.s:817    .text:00000000000003dc .LVL71
     /tmp/cc28tSsR.s:669    .text:000000000000032c .LVL56
     /tmp/cc28tSsR.s:783    .text:00000000000003b4 .LVL67
     /tmp/cc28tSsR.s:793    .text:00000000000003bc .LVL68
     /tmp/cc28tSsR.s:802    .text:00000000000003c8 .LVL70
     /tmp/cc28tSsR.s:680    .text:0000000000000334 .LVL57
     /tmp/cc28tSsR.s:698    .text:000000000000034c .LVL59
     /tmp/cc28tSsR.s:708    .text:0000000000000354 .LVL60
     /tmp/cc28tSsR.s:759    .text:000000000000039c .LVL63
     /tmp/cc28tSsR.s:775    .text:00000000000003b0 .LVL66
     /tmp/cc28tSsR.s:797    .text:00000000000003c0 .LVL69
     /tmp/cc28tSsR.s:683    .text:0000000000000338 .LVL58
     /tmp/cc28tSsR.s:730    .text:000000000000036c .LVL61
     /tmp/cc28tSsR.s:772    .text:00000000000003ac .LVL65
     /tmp/cc28tSsR.s:500    .text:0000000000000248 .LVL41
     /tmp/cc28tSsR.s:531    .text:0000000000000270 .LVL44
     /tmp/cc28tSsR.s:574    .text:00000000000002ac .LVL50
     /tmp/cc28tSsR.s:523    .text:000000000000026c .LVL43
     /tmp/cc28tSsR.s:570    .text:00000000000002a4 .LVL49
     /tmp/cc28tSsR.s:513    .text:0000000000000260 .LVL42
     /tmp/cc28tSsR.s:534    .text:0000000000000274 .LVL45
     /tmp/cc28tSsR.s:542    .text:0000000000000280 .LVL46
     /tmp/cc28tSsR.s:341    .text:0000000000000174 .LVL26
     /tmp/cc28tSsR.s:379    .text:00000000000001ac .LVL29
     /tmp/cc28tSsR.s:418    .text:00000000000001e4 .LVL34
     /tmp/cc28tSsR.s:427    .text:00000000000001f4 .LVL36
     /tmp/cc28tSsR.s:421    .text:00000000000001e8 .LVL35
     /tmp/cc28tSsR.s:361    .text:00000000000001a0 .LVL27
     /tmp/cc28tSsR.s:369    .text:00000000000001a8 .LVL28
     /tmp/cc28tSsR.s:402    .text:00000000000001d0 .LVL32
     /tmp/cc28tSsR.s:390    .text:00000000000001c0 .LVL31
     /tmp/cc28tSsR.s:594    .text:00000000000002b4 .LVL51
     /tmp/cc28tSsR.s:608    .text:00000000000002cc .LVL52
     /tmp/cc28tSsR.s:610    .text:00000000000002d0 .LVL53
     /tmp/cc28tSsR.s:448    .text:0000000000000200 .LVL37
     /tmp/cc28tSsR.s:462    .text:0000000000000218 .LVL38
     /tmp/cc28tSsR.s:464    .text:000000000000021c .LVL39
     /tmp/cc28tSsR.s:296    .text:0000000000000140 .LVL22
     /tmp/cc28tSsR.s:310    .text:0000000000000158 .LVL23
     /tmp/cc28tSsR.s:320    .text:0000000000000164 .LVL24
     /tmp/cc28tSsR.s:329    .text:0000000000000170 .LVL25
     /tmp/cc28tSsR.s:177    .text:00000000000000c0 .LVL12
     /tmp/cc28tSsR.s:192    .text:00000000000000e0 .LVL13
     /tmp/cc28tSsR.s:270    .text:0000000000000134 .LVL21
     /tmp/cc28tSsR.s:240    .text:0000000000000110 .LVL18
     /tmp/cc28tSsR.s:256    .text:0000000000000128 .LVL20
GAS LISTING /tmp/cc28tSsR.s 			page 58


     /tmp/cc28tSsR.s:248    .text:0000000000000118 .LVL19
     /tmp/cc28tSsR.s:201    .text:00000000000000e4 .LVL14
     /tmp/cc28tSsR.s:233    .text:000000000000010c .LVL17
     /tmp/cc28tSsR.s:146    .text:00000000000000ac .LVL10
     /tmp/cc28tSsR.s:152    .text:00000000000000b4 .LVL11
     /tmp/cc28tSsR.s:103    .text:0000000000000070 .LVL7
     /tmp/cc28tSsR.s:65     .text:0000000000000040 .LVL3
     /tmp/cc28tSsR.s:77     .text:0000000000000054 .LVL4
     /tmp/cc28tSsR.s:81     .text:0000000000000058 .LVL5
     /tmp/cc28tSsR.s:1492   .debug_info:0000000000000000 .Ldebug_info0
     /tmp/cc28tSsR.s:195    .text:00000000000000e0 .LBB80
     /tmp/cc28tSsR.s:222    .text:0000000000000100 .LBE80
     /tmp/cc28tSsR.s:238    .text:0000000000000110 .LBB89
     /tmp/cc28tSsR.s:260    .text:0000000000000128 .LBE89
     /tmp/cc28tSsR.s:211    .text:00000000000000ec .LBE81
     /tmp/cc28tSsR.s:242    .text:0000000000000110 .LBB86
     /tmp/cc28tSsR.s:259    .text:0000000000000128 .LBE86
     /tmp/cc28tSsR.s:404    .text:00000000000001d0 .LBE92
     /tmp/cc28tSsR.s:430    .text:00000000000001f4 .LBB99
     /tmp/cc28tSsR.s:437    .text:0000000000000200 .LBE99
     /tmp/cc28tSsR.s:552    .text:0000000000000288 .LBE108
     /tmp/cc28tSsR.s:577    .text:00000000000002ac .LBB113
     /tmp/cc28tSsR.s:583    .text:00000000000002b4 .LBE113
     /tmp/cc28tSsR.s:671    .text:000000000000032c .LBB114
     /tmp/cc28tSsR.s:785    .text:00000000000003b4 .LBE114
     /tmp/cc28tSsR.s:789    .text:00000000000003b8 .LBB123
     /tmp/cc28tSsR.s:804    .text:00000000000003c8 .LBE123
     /tmp/cc28tSsR.s:686    .text:0000000000000338 .LBB117
     /tmp/cc28tSsR.s:700    .text:000000000000034c .LBE117
     /tmp/cc28tSsR.s:728    .text:000000000000036c .LBB120
     /tmp/cc28tSsR.s:777    .text:00000000000003b0 .LBE120
     /tmp/cc28tSsR.s:896    .text:0000000000000460 .LBE124
     /tmp/cc28tSsR.s:934    .text:0000000000000490 .LBB131
     /tmp/cc28tSsR.s:944    .text:00000000000004a4 .LBE131
     /tmp/cc28tSsR.s:1048   .text:000000000000052c .LBB136
     /tmp/cc28tSsR.s:1076   .text:0000000000000550 .LBE136
     /tmp/cc28tSsR.s:1092   .text:0000000000000560 .LBB145
     /tmp/cc28tSsR.s:1108   .text:0000000000000570 .LBE145
     /tmp/cc28tSsR.s:1065   .text:000000000000053c .LBE137
     /tmp/cc28tSsR.s:1095   .text:0000000000000560 .LBB142
     /tmp/cc28tSsR.s:1107   .text:0000000000000570 .LBE142
     /tmp/cc28tSsR.s:280    .gcc_except_table:0000000000000000 .LLSDA38

UNDEFINED SYMBOLS
_ZN15MemoryAllocator12my_mem_allocEm
_ZN15MemoryAllocator11my_mem_freeEPKv
_ZN9Scheduler3putEP3TCB
__gxx_personality_v0
_ZN3TCB7runningE
_ZN3TCB8dispatchEv
_ZN5Riscv12setA0onStackEv
