GAS LISTING /tmp/ccHTRVXI.s 			page 1


   1              		.file	"SleepingQueue.cpp"
   2              		.option nopic
   3              		.option norelax
   4              		.attribute arch, "rv64i2p0_m2p0_a2p0"
   5              		.attribute unaligned_access, 0
   6              		.attribute stack_align, 16
   7              		.text
   8              	.Ltext0:
   9              		.align	2
  10              		.globl	_ZN13SleepingQueue14getTimeToSleepEP3TCB
  12              	_ZN13SleepingQueue14getTimeToSleepEP3TCB:
  13              	.LFB16:
  14              		.file 1 "src/SleepingQueue.cpp"
   1:src/SleepingQueue.cpp **** 
   2:src/SleepingQueue.cpp **** #include "../h/SleepingQueue.hpp"
   3:src/SleepingQueue.cpp **** 
   4:src/SleepingQueue.cpp **** List<TCB>::Node *SleepingQueue::headSleepingTCBs = nullptr;
   5:src/SleepingQueue.cpp **** 
   6:src/SleepingQueue.cpp **** //not used
   7:src/SleepingQueue.cpp **** uint64 SleepingQueue::getTimeToSleep(TCB *id) {
  15              		.loc 1 7 47
  16              		.cfi_startproc
  17              	.LVL0:
  18 0000 130101FF 		addi	sp,sp,-16
  19              		.cfi_def_cfa_offset 16
  20 0004 23348100 		sd	s0,8(sp)
  21              		.cfi_offset 8, -8
  22 0008 13040101 		addi	s0,sp,16
  23              		.cfi_def_cfa 8, 0
   8:src/SleepingQueue.cpp ****     List<TCB>::Node* cur = SleepingQueue::headSleepingTCBs;
  24              		.loc 1 8 5
  25              		.loc 1 8 22 is_stmt 0
  26 000c 97070000 		ld	a5,_ZN13SleepingQueue16headSleepingTCBsE
  26      83B70700 
  27              	.LVL1:
  28              	.L3:
   9:src/SleepingQueue.cpp ****     while (cur) {
  29              		.loc 1 9 5 is_stmt 1
  30              		.loc 1 9 12
  31 0014 638A0700 		beqz	a5,.L4
  10:src/SleepingQueue.cpp ****         if (id == cur->data) {
  32              		.loc 1 10 9
  33              		.loc 1 10 24 is_stmt 0
  34 0018 03B70700 		ld	a4,0(a5)
  35              		.loc 1 10 9
  36 001c E31CA7FE 		bne	a4,a0,.L3
  11:src/SleepingQueue.cpp ****             return cur->timeBlockOrSleep;
  37              		.loc 1 11 13 is_stmt 1
  38              		.loc 1 11 25 is_stmt 0
  39 0020 03B50701 		ld	a0,16(a5)
  40              	.LVL2:
  41 0024 6F008000 		j	.L1
  42              	.LVL3:
  43              	.L4:
  12:src/SleepingQueue.cpp ****         }
  13:src/SleepingQueue.cpp ****     }
  14:src/SleepingQueue.cpp ****     return 0;
GAS LISTING /tmp/ccHTRVXI.s 			page 2


  44              		.loc 1 14 12
  45 0028 13050000 		li	a0,0
  46              	.LVL4:
  47              	.L1:
  15:src/SleepingQueue.cpp **** }
  48              		.loc 1 15 1
  49 002c 03348100 		ld	s0,8(sp)
  50              		.cfi_restore 8
  51              		.cfi_def_cfa 2, 16
  52 0030 13010101 		addi	sp,sp,16
  53              		.cfi_def_cfa_offset 0
  54 0034 67800000 		jr	ra
  55              		.cfi_endproc
  56              	.LFE16:
  58              		.align	2
  59              		.globl	_ZN13SleepingQueue10setToSleepEm
  61              	_ZN13SleepingQueue10setToSleepEm:
  62              	.LFB17:
  16:src/SleepingQueue.cpp **** 
  17:src/SleepingQueue.cpp **** int SleepingQueue::setToSleep(time_t time) {
  63              		.loc 1 17 44 is_stmt 1
  64              		.cfi_startproc
  65              	.LVL5:
  18:src/SleepingQueue.cpp ****     if (time == 0) return 0;
  66              		.loc 1 18 5
  67 0038 63160500 		bnez	a0,.L17
  19:src/SleepingQueue.cpp ****     TCB::running->setStatus(SLEEPING);
  20:src/SleepingQueue.cpp ****     //List<TCB>::Node *node = (List<TCB>::Node *) __mem_alloc(24);
  21:src/SleepingQueue.cpp ****     //List<TCB>::Node *node = new List<TCB>::Node(TCB::running, nullptr, time);
  22:src/SleepingQueue.cpp ****     List<TCB>::Node *node = (List<TCB>::Node*) MemoryAllocator::my_mem_alloc(1);
  23:src/SleepingQueue.cpp ****     node->data = TCB::running;
  24:src/SleepingQueue.cpp ****     node->timeBlockOrSleep = time;
  25:src/SleepingQueue.cpp ****     node->next = nullptr;
  26:src/SleepingQueue.cpp **** 
  27:src/SleepingQueue.cpp ****     List<TCB>::Node *cur = headSleepingTCBs;
  28:src/SleepingQueue.cpp ****     List<TCB>::Node *prev = nullptr;
  29:src/SleepingQueue.cpp **** 
  30:src/SleepingQueue.cpp ****     for (; cur; prev = cur, cur = cur->next) {
  31:src/SleepingQueue.cpp ****         if (node->timeBlockOrSleep < cur->timeBlockOrSleep) {
  32:src/SleepingQueue.cpp ****             cur->timeBlockOrSleep -= node->timeBlockOrSleep;
  33:src/SleepingQueue.cpp ****             break;
  34:src/SleepingQueue.cpp ****         } else {
  35:src/SleepingQueue.cpp ****             node->timeBlockOrSleep -= cur->timeBlockOrSleep;
  36:src/SleepingQueue.cpp ****         }
  37:src/SleepingQueue.cpp ****     }
  38:src/SleepingQueue.cpp ****     if (cur) {
  39:src/SleepingQueue.cpp ****         node->next = cur;
  40:src/SleepingQueue.cpp ****     }
  41:src/SleepingQueue.cpp ****     if (prev) {
  42:src/SleepingQueue.cpp ****         prev->next = node;
  43:src/SleepingQueue.cpp ****     } else {
  44:src/SleepingQueue.cpp ****         headSleepingTCBs = node;
  45:src/SleepingQueue.cpp ****     }
  46:src/SleepingQueue.cpp ****     return 0;
  47:src/SleepingQueue.cpp **** }
  68              		.loc 1 47 1 is_stmt 0
  69 003c 13050000 		li	a0,0
GAS LISTING /tmp/ccHTRVXI.s 			page 3


  70              	.LVL6:
  71 0040 67800000 		ret
  72              	.LVL7:
  73              	.L17:
  17:src/SleepingQueue.cpp ****     if (time == 0) return 0;
  74              		.loc 1 17 44
  75 0044 130101FE 		addi	sp,sp,-32
  76              		.cfi_def_cfa_offset 32
  77 0048 233C1100 		sd	ra,24(sp)
  78 004c 23388100 		sd	s0,16(sp)
  79 0050 23349100 		sd	s1,8(sp)
  80 0054 23302101 		sd	s2,0(sp)
  81              		.cfi_offset 1, -8
  82              		.cfi_offset 8, -16
  83              		.cfi_offset 9, -24
  84              		.cfi_offset 18, -32
  85 0058 13040102 		addi	s0,sp,32
  86              		.cfi_def_cfa 8, 0
  87 005c 93040500 		mv	s1,a0
  19:src/SleepingQueue.cpp ****     TCB::running->setStatus(SLEEPING);
  88              		.loc 1 19 5 is_stmt 1
  19:src/SleepingQueue.cpp ****     TCB::running->setStatus(SLEEPING);
  89              		.loc 1 19 28 is_stmt 0
  90 0060 17090000 		lla	s2,_ZN3TCB7runningE
  90      13090900 
  91 0068 83370900 		ld	a5,0(s2)
  92              	.LVL8:
  93              	.LBB9:
  94              	.LBB10:
  95              		.file 2 "src/../h/TCB.hpp"
   1:src/../h/TCB.hpp **** 
   2:src/../h/TCB.hpp **** #ifndef PROJECT_BASE_TCB_HPP
   3:src/../h/TCB.hpp **** #define PROJECT_BASE_TCB_HPP
   4:src/../h/TCB.hpp **** 
   5:src/../h/TCB.hpp **** #include "../lib/hw.h"
   6:src/../h/TCB.hpp **** #include "Scheduler.hpp"
   7:src/../h/TCB.hpp **** #include "print.hpp"
   8:src/../h/TCB.hpp **** 
   9:src/../h/TCB.hpp **** //IZ KNJIGE - iskoriscena stanja niti + TCB klasa je vecim delom implementirana na vezbama
  10:src/../h/TCB.hpp **** enum Status {RUNNING, SUSPENDED, SLEEPING, FINISHED};
  11:src/../h/TCB.hpp **** 
  12:src/../h/TCB.hpp **** class TCB {
  13:src/../h/TCB.hpp **** public:
  14:src/../h/TCB.hpp ****     void* operator new(size_t size);
  15:src/../h/TCB.hpp ****     void operator delete(void *p);
  16:src/../h/TCB.hpp **** 
  17:src/../h/TCB.hpp ****     ~TCB() { delete[] stack; }
  18:src/../h/TCB.hpp ****     using Body = void (*) (void*);
  19:src/../h/TCB.hpp ****     static TCB* createThread(Body body, void* arg, void* stack, uint64 timeSlice);
  20:src/../h/TCB.hpp **** 
  21:src/../h/TCB.hpp ****     Status getStatus() { return status; }
  22:src/../h/TCB.hpp ****     void setStatus(Status s) { status = s; }
  96              		.loc 2 22 32 is_stmt 1
  97              		.loc 2 22 39 is_stmt 0
  98 006c 13072000 		li	a4,2
  99 0070 23A8E702 		sw	a4,48(a5)
 100              	.LVL9:
GAS LISTING /tmp/ccHTRVXI.s 			page 4


 101              	.LBE10:
 102              	.LBE9:
  22:src/SleepingQueue.cpp ****     node->data = TCB::running;
 103              		.loc 1 22 5 is_stmt 1
  22:src/SleepingQueue.cpp ****     node->data = TCB::running;
 104              		.loc 1 22 77 is_stmt 0
 105 0074 13051000 		li	a0,1
 106              	.LVL10:
 107 0078 97000000 		call	_ZN15MemoryAllocator12my_mem_allocEm
 107      E7800000 
 108              	.LVL11:
 109 0080 13060500 		mv	a2,a0
 110              	.LVL12:
  23:src/SleepingQueue.cpp ****     node->timeBlockOrSleep = time;
 111              		.loc 1 23 5 is_stmt 1
  23:src/SleepingQueue.cpp ****     node->timeBlockOrSleep = time;
 112              		.loc 1 23 16 is_stmt 0
 113 0084 83370900 		ld	a5,0(s2)
 114 0088 2330F500 		sd	a5,0(a0)
  24:src/SleepingQueue.cpp ****     node->next = nullptr;
 115              		.loc 1 24 5 is_stmt 1
  24:src/SleepingQueue.cpp ****     node->next = nullptr;
 116              		.loc 1 24 28 is_stmt 0
 117 008c 23389500 		sd	s1,16(a0)
  25:src/SleepingQueue.cpp **** 
 118              		.loc 1 25 5 is_stmt 1
  25:src/SleepingQueue.cpp **** 
 119              		.loc 1 25 16 is_stmt 0
 120 0090 23340500 		sd	zero,8(a0)
  27:src/SleepingQueue.cpp ****     List<TCB>::Node *prev = nullptr;
 121              		.loc 1 27 5 is_stmt 1
  27:src/SleepingQueue.cpp ****     List<TCB>::Node *prev = nullptr;
 122              		.loc 1 27 22 is_stmt 0
 123 0094 97070000 		ld	a5,_ZN13SleepingQueue16headSleepingTCBsE
 123      83B70700 
 124              	.LVL13:
  28:src/SleepingQueue.cpp **** 
 125              		.loc 1 28 5 is_stmt 1
  28:src/SleepingQueue.cpp **** 
 126              		.loc 1 28 22 is_stmt 0
 127 009c 93050000 		li	a1,0
 128 00a0 6F004001 		j	.L10
 129              	.LVL14:
 130              	.L9:
  35:src/SleepingQueue.cpp ****         }
 131              		.loc 1 35 13 is_stmt 1
  35:src/SleepingQueue.cpp ****         }
 132              		.loc 1 35 36 is_stmt 0
 133 00a4 3307D740 		sub	a4,a4,a3
 134 00a8 2338E600 		sd	a4,16(a2)
  30:src/SleepingQueue.cpp ****         if (node->timeBlockOrSleep < cur->timeBlockOrSleep) {
 135              		.loc 1 30 5 is_stmt 1
 136              	.LVL15:
  30:src/SleepingQueue.cpp ****         if (node->timeBlockOrSleep < cur->timeBlockOrSleep) {
 137              		.loc 1 30 22 is_stmt 0
 138 00ac 93850700 		mv	a1,a5
  30:src/SleepingQueue.cpp ****         if (node->timeBlockOrSleep < cur->timeBlockOrSleep) {
GAS LISTING /tmp/ccHTRVXI.s 			page 5


 139              		.loc 1 30 33
 140 00b0 83B78700 		ld	a5,8(a5)
 141              	.LVL16:
 142              	.L10:
  30:src/SleepingQueue.cpp ****         if (node->timeBlockOrSleep < cur->timeBlockOrSleep) {
 143              		.loc 1 30 5 is_stmt 1 discriminator 1
  30:src/SleepingQueue.cpp ****         if (node->timeBlockOrSleep < cur->timeBlockOrSleep) {
 144              		.loc 1 30 12 discriminator 1
 145 00b4 638C0700 		beqz	a5,.L8
  31:src/SleepingQueue.cpp ****             cur->timeBlockOrSleep -= node->timeBlockOrSleep;
 146              		.loc 1 31 9
  31:src/SleepingQueue.cpp ****             cur->timeBlockOrSleep -= node->timeBlockOrSleep;
 147              		.loc 1 31 19 is_stmt 0
 148 00b8 03370601 		ld	a4,16(a2)
  31:src/SleepingQueue.cpp ****             cur->timeBlockOrSleep -= node->timeBlockOrSleep;
 149              		.loc 1 31 43
 150 00bc 83B60701 		ld	a3,16(a5)
  31:src/SleepingQueue.cpp ****             cur->timeBlockOrSleep -= node->timeBlockOrSleep;
 151              		.loc 1 31 9
 152 00c0 E372D7FE 		bgeu	a4,a3,.L9
  32:src/SleepingQueue.cpp ****             break;
 153              		.loc 1 32 13 is_stmt 1
  32:src/SleepingQueue.cpp ****             break;
 154              		.loc 1 32 35 is_stmt 0
 155 00c4 3387E640 		sub	a4,a3,a4
 156 00c8 23B8E700 		sd	a4,16(a5)
  33:src/SleepingQueue.cpp ****         } else {
 157              		.loc 1 33 13 is_stmt 1
 158              	.L8:
  38:src/SleepingQueue.cpp ****         node->next = cur;
 159              		.loc 1 38 5
 160 00cc 63840700 		beqz	a5,.L11
  39:src/SleepingQueue.cpp ****     }
 161              		.loc 1 39 9
  39:src/SleepingQueue.cpp ****     }
 162              		.loc 1 39 20 is_stmt 0
 163 00d0 2334F600 		sd	a5,8(a2)
 164              	.L11:
  41:src/SleepingQueue.cpp ****         prev->next = node;
 165              		.loc 1 41 5 is_stmt 1
 166 00d4 63820502 		beqz	a1,.L12
  42:src/SleepingQueue.cpp ****     } else {
 167              		.loc 1 42 9
  42:src/SleepingQueue.cpp ****     } else {
 168              		.loc 1 42 20 is_stmt 0
 169 00d8 23B4C500 		sd	a2,8(a1)
 170              	.LVL17:
 171              	.L7:
 172              		.loc 1 47 1
 173 00dc 13050000 		li	a0,0
 174              	.LVL18:
 175 00e0 83308101 		ld	ra,24(sp)
 176              		.cfi_remember_state
 177              		.cfi_restore 1
 178 00e4 03340101 		ld	s0,16(sp)
 179              		.cfi_restore 8
 180              		.cfi_def_cfa 2, 32
GAS LISTING /tmp/ccHTRVXI.s 			page 6


 181 00e8 83348100 		ld	s1,8(sp)
 182              		.cfi_restore 9
 183              	.LVL19:
 184 00ec 03390100 		ld	s2,0(sp)
 185              		.cfi_restore 18
 186 00f0 13010102 		addi	sp,sp,32
 187              		.cfi_def_cfa_offset 0
 188 00f4 67800000 		jr	ra
 189              	.LVL20:
 190              	.L12:
 191              		.cfi_restore_state
  44:src/SleepingQueue.cpp ****     }
 192              		.loc 1 44 9 is_stmt 1
  44:src/SleepingQueue.cpp ****     }
 193              		.loc 1 44 26 is_stmt 0
 194 00f8 97070000 		sd	a2,_ZN13SleepingQueue16headSleepingTCBsE,a5
 194      23B0C700 
 195              	.LVL21:
 196 0100 6FF0DFFD 		j	.L7
 197              		.cfi_endproc
 198              	.LFE17:
 200              		.align	2
 201              		.globl	_ZN13SleepingQueue10wakeUpTCBsEv
 203              	_ZN13SleepingQueue10wakeUpTCBsEv:
 204              	.LFB18:
  48:src/SleepingQueue.cpp **** 
  49:src/SleepingQueue.cpp **** void SleepingQueue::wakeUpTCBs() {
 205              		.loc 1 49 34 is_stmt 1
 206              		.cfi_startproc
 207 0104 130101FE 		addi	sp,sp,-32
 208              		.cfi_def_cfa_offset 32
 209 0108 233C1100 		sd	ra,24(sp)
 210 010c 23388100 		sd	s0,16(sp)
 211 0110 23349100 		sd	s1,8(sp)
 212 0114 23302101 		sd	s2,0(sp)
 213              		.cfi_offset 1, -8
 214              		.cfi_offset 8, -16
 215              		.cfi_offset 9, -24
 216              		.cfi_offset 18, -32
 217 0118 13040102 		addi	s0,sp,32
 218              		.cfi_def_cfa 8, 0
  50:src/SleepingQueue.cpp ****     if (!headSleepingTCBs) {
 219              		.loc 1 50 5
 220              		.loc 1 50 9 is_stmt 0
 221 011c 97040000 		ld	s1,_ZN13SleepingQueue16headSleepingTCBsE
 221      83B40400 
 222              		.loc 1 50 5
 223 0124 638C0400 		beqz	s1,.L18
  51:src/SleepingQueue.cpp ****         return;
  52:src/SleepingQueue.cpp ****     }
  53:src/SleepingQueue.cpp ****     List<TCB>::Node* cur = headSleepingTCBs;
 224              		.loc 1 53 5 is_stmt 1
 225              	.LVL22:
  54:src/SleepingQueue.cpp ****     if (cur->timeBlockOrSleep > 0 && (--cur->timeBlockOrSleep) == 0) {
 226              		.loc 1 54 5
 227              	.LBB11:
 228              		.loc 1 54 14 is_stmt 0
GAS LISTING /tmp/ccHTRVXI.s 			page 7


 229 0128 83B70401 		ld	a5,16(s1)
 230              		.loc 1 54 35
 231 012c 63880700 		beqz	a5,.L18
 232              		.loc 1 54 39 discriminator 1
 233 0130 9387F7FF 		addi	a5,a5,-1
 234              		.loc 1 54 35 discriminator 1
 235 0134 23B8F400 		sd	a5,16(s1)
 236 0138 63800702 		beqz	a5,.L20
 237              	.LVL23:
 238              	.L18:
 239              	.LBE11:
  55:src/SleepingQueue.cpp ****         while (cur && cur->timeBlockOrSleep == 0) {
  56:src/SleepingQueue.cpp ****             Scheduler::put(cur->data);
  57:src/SleepingQueue.cpp ****             List<TCB>::Node* prev = cur;
  58:src/SleepingQueue.cpp ****             cur = cur->next;
  59:src/SleepingQueue.cpp ****             delete prev;
  60:src/SleepingQueue.cpp ****         }
  61:src/SleepingQueue.cpp ****         headSleepingTCBs = cur;
  62:src/SleepingQueue.cpp ****     }
  63:src/SleepingQueue.cpp **** }
 240              		.loc 1 63 1
 241 013c 83308101 		ld	ra,24(sp)
 242              		.cfi_remember_state
 243              		.cfi_restore 1
 244 0140 03340101 		ld	s0,16(sp)
 245              		.cfi_restore 8
 246              		.cfi_def_cfa 2, 32
 247 0144 83348100 		ld	s1,8(sp)
 248              		.cfi_restore 9
 249 0148 03390100 		ld	s2,0(sp)
 250              		.cfi_restore 18
 251 014c 13010102 		addi	sp,sp,32
 252              		.cfi_def_cfa_offset 0
 253 0150 67800000 		jr	ra
 254              	.LVL24:
 255              	.L22:
 256              		.cfi_restore_state
  49:src/SleepingQueue.cpp ****     if (!headSleepingTCBs) {
 257              		.loc 1 49 34
 258 0154 93040900 		mv	s1,s2
 259              	.LVL25:
 260              	.L20:
 261              	.LBB16:
 262              	.LBB12:
  55:src/SleepingQueue.cpp ****         while (cur && cur->timeBlockOrSleep == 0) {
 263              		.loc 1 55 9 is_stmt 1
  55:src/SleepingQueue.cpp ****         while (cur && cur->timeBlockOrSleep == 0) {
 264              		.loc 1 55 20
 265 0158 63880402 		beqz	s1,.L21
  55:src/SleepingQueue.cpp ****         while (cur && cur->timeBlockOrSleep == 0) {
 266              		.loc 1 55 28 is_stmt 0 discriminator 1
 267 015c 83B70401 		ld	a5,16(s1)
  55:src/SleepingQueue.cpp ****         while (cur && cur->timeBlockOrSleep == 0) {
 268              		.loc 1 55 20 discriminator 1
 269 0160 63940702 		bnez	a5,.L21
 270              	.LBB13:
  56:src/SleepingQueue.cpp ****             List<TCB>::Node* prev = cur;
GAS LISTING /tmp/ccHTRVXI.s 			page 8


 271              		.loc 1 56 13 is_stmt 1
  56:src/SleepingQueue.cpp ****             List<TCB>::Node* prev = cur;
 272              		.loc 1 56 27 is_stmt 0
 273 0164 03B50400 		ld	a0,0(s1)
 274 0168 97000000 		call	_ZN9Scheduler3putEP3TCB
 274      E7800000 
 275              	.LVL26:
  57:src/SleepingQueue.cpp ****             cur = cur->next;
 276              		.loc 1 57 13 is_stmt 1
  58:src/SleepingQueue.cpp ****             delete prev;
 277              		.loc 1 58 13
  58:src/SleepingQueue.cpp ****             delete prev;
 278              		.loc 1 58 17 is_stmt 0
 279 0170 03B98400 		ld	s2,8(s1)
 280              	.LVL27:
  59:src/SleepingQueue.cpp ****         }
 281              		.loc 1 59 13 is_stmt 1
  59:src/SleepingQueue.cpp ****         }
 282              		.loc 1 59 24 is_stmt 0
 283 0174 E38004FE 		beqz	s1,.L22
 284              	.LVL28:
 285              	.LBB14:
 286              	.LBB15:
 287              		.file 3 "src/../h/list.hpp"
   1:src/../h/list.hpp **** 
   2:src/../h/list.hpp **** #ifndef PROJECT_BASE_LIST_HPP
   3:src/../h/list.hpp **** #define PROJECT_BASE_LIST_HPP
   4:src/../h/list.hpp **** 
   5:src/../h/list.hpp **** #include "MemoryAllocator.hpp"
   6:src/../h/list.hpp **** #include "../h/print.hpp"
   7:src/../h/list.hpp **** 
   8:src/../h/list.hpp **** 
   9:src/../h/list.hpp **** //dato na vezbama! - dodato je polje za vreme i preklopljeni su operatori new i delete
  10:src/../h/list.hpp **** template<typename T>
  11:src/../h/list.hpp **** class List {
  12:src/../h/list.hpp **** private:
  13:src/../h/list.hpp ****     struct Node {
  14:src/../h/list.hpp ****         T *data;
  15:src/../h/list.hpp ****         Node *next;
  16:src/../h/list.hpp ****         time_t timeBlockOrSleep;
  17:src/../h/list.hpp ****         Node(T *data, Node *next, uint64 time = 0) : data(data), next(next), timeBlockOrSleep(time)
  18:src/../h/list.hpp **** 
  19:src/../h/list.hpp ****         void* operator new(size_t size) {
  20:src/../h/list.hpp ****             size_t numofBlocks = (size + MemoryAllocator::HEADER_SIZE + MEM_BLOCK_SIZE - 1)/MEM_BLO
  21:src/../h/list.hpp ****             return MemoryAllocator::my_mem_alloc(numofBlocks);
  22:src/../h/list.hpp ****         }
  23:src/../h/list.hpp ****         void operator delete(void *p) {
  24:src/../h/list.hpp ****             MemoryAllocator::my_mem_free(p);
 288              		.loc 3 24 41 discriminator 1
 289 0178 13850400 		mv	a0,s1
 290 017c 97000000 		call	_ZN15MemoryAllocator11my_mem_freeEPKv
 290      E7800000 
 291              	.LVL29:
  25:src/../h/list.hpp ****         }
 292              		.loc 3 25 9 discriminator 1
 293 0184 6FF01FFD 		j	.L22
 294              	.LVL30:
GAS LISTING /tmp/ccHTRVXI.s 			page 9


 295              	.L21:
 296              	.LBE15:
 297              	.LBE14:
 298              	.LBE13:
  61:src/SleepingQueue.cpp ****     }
 299              		.loc 1 61 9 is_stmt 1
  61:src/SleepingQueue.cpp ****     }
 300              		.loc 1 61 26 is_stmt 0
 301 0188 97070000 		sd	s1,_ZN13SleepingQueue16headSleepingTCBsE,a5
 301      23B09700 
 302              	.LBE12:
 303 0190 6FF0DFFA 		j	.L18
 304              	.LBE16:
 305              		.cfi_endproc
 306              	.LFE18:
 308              		.globl	_ZN13SleepingQueue16headSleepingTCBsE
 309              		.section	.sbss,"aw",@nobits
 310              		.align	3
 313              	_ZN13SleepingQueue16headSleepingTCBsE:
 314 0000 00000000 		.zero	8
 314      00000000 
 315              		.text
 316              	.Letext0:
 317              		.file 4 "src/../h/../lib/hw.h"
 318              		.file 5 "src/../h/MemoryAllocator.hpp"
 319              		.file 6 "src/../h/Scheduler.hpp"
 320              		.file 7 "src/../h/SleepingQueue.hpp"
GAS LISTING /tmp/ccHTRVXI.s 			page 10

