GAS LISTING /tmp/ccMYxqV9.s 			page 1


   1              		.file	"syscall_cpp.cpp"
   2              		.option nopic
   3              		.option norelax
   4              		.attribute arch, "rv64i2p0_m2p0_a2p0"
   5              		.attribute unaligned_access, 0
   6              		.attribute stack_align, 16
   7              		.text
   8              	.Ltext0:
   9              		.section	.text._ZN6Thread3runEv,"axG",@progbits,_ZN6Thread3runEv,comdat
  10              		.align	2
  11              		.weak	_ZN6Thread3runEv
  13              	_ZN6Thread3runEv:
  14              	.LFB16:
  15              		.file 1 "src/../h/syscall_cpp.hpp"
   1:src/../h/syscall_cpp.hpp **** 
   2:src/../h/syscall_cpp.hpp **** #ifndef PROJECT_BASE_SYSCALL_CPP_HPP
   3:src/../h/syscall_cpp.hpp **** #define PROJECT_BASE_SYSCALL_CPP_HPP
   4:src/../h/syscall_cpp.hpp **** 
   5:src/../h/syscall_cpp.hpp **** #include "syscall_c.hpp"
   6:src/../h/syscall_cpp.hpp **** #include "../lib/hw.h"
   7:src/../h/syscall_cpp.hpp **** 
   8:src/../h/syscall_cpp.hpp **** 
   9:src/../h/syscall_cpp.hpp **** void* operator new (size_t);
  10:src/../h/syscall_cpp.hpp **** void operator delete (void*) noexcept;
  11:src/../h/syscall_cpp.hpp **** 
  12:src/../h/syscall_cpp.hpp **** 
  13:src/../h/syscall_cpp.hpp **** class Thread {
  14:src/../h/syscall_cpp.hpp **** public:
  15:src/../h/syscall_cpp.hpp ****     Thread (void (*body)(void*), void* arg);
  16:src/../h/syscall_cpp.hpp ****     virtual ~Thread ();
  17:src/../h/syscall_cpp.hpp ****     int start ();
  18:src/../h/syscall_cpp.hpp ****     static void dispatch ();
  19:src/../h/syscall_cpp.hpp ****     static int sleep (time_t);
  20:src/../h/syscall_cpp.hpp **** 
  21:src/../h/syscall_cpp.hpp **** protected:
  22:src/../h/syscall_cpp.hpp ****     Thread ();
  23:src/../h/syscall_cpp.hpp ****     virtual void run () { }
  16              		.loc 1 23 18
  17              		.cfi_startproc
  18              	.LVL0:
  19 0000 130101FF 		addi	sp,sp,-16
  20              		.cfi_def_cfa_offset 16
  21 0004 23348100 		sd	s0,8(sp)
  22              		.cfi_offset 8, -8
  23 0008 13040101 		addi	s0,sp,16
  24              		.cfi_def_cfa 8, 0
  25              		.loc 1 23 27 is_stmt 0
  26 000c 03348100 		ld	s0,8(sp)
  27              		.cfi_restore 8
  28              		.cfi_def_cfa 2, 16
  29 0010 13010101 		addi	sp,sp,16
  30              		.cfi_def_cfa_offset 0
  31 0014 67800000 		jr	ra
  32              		.cfi_endproc
  33              	.LFE16:
  35              		.section	.text._ZN14PeriodicThread18periodicActivationEv,"axG",@progbits,_ZN14PeriodicThread18peri
  36              		.align	2
GAS LISTING /tmp/ccMYxqV9.s 			page 2


  37              		.weak	_ZN14PeriodicThread18periodicActivationEv
  39              	_ZN14PeriodicThread18periodicActivationEv:
  40              	.LFB17:
  24:src/../h/syscall_cpp.hpp **** public:
  25:src/../h/syscall_cpp.hpp ****     thread_t myHandle;
  26:src/../h/syscall_cpp.hpp ****     void (*body)(void*);
  27:src/../h/syscall_cpp.hpp ****     void* arg;
  28:src/../h/syscall_cpp.hpp ****     static void startWrapper(void*);
  29:src/../h/syscall_cpp.hpp **** };
  30:src/../h/syscall_cpp.hpp **** 
  31:src/../h/syscall_cpp.hpp **** 
  32:src/../h/syscall_cpp.hpp **** class Semaphore {
  33:src/../h/syscall_cpp.hpp **** public:
  34:src/../h/syscall_cpp.hpp ****     Semaphore (unsigned init = 1);
  35:src/../h/syscall_cpp.hpp ****     virtual ~Semaphore ();
  36:src/../h/syscall_cpp.hpp **** 
  37:src/../h/syscall_cpp.hpp ****     int wait();
  38:src/../h/syscall_cpp.hpp **** 
  39:src/../h/syscall_cpp.hpp ****     int signal();
  40:src/../h/syscall_cpp.hpp **** 
  41:src/../h/syscall_cpp.hpp ****     int timedWait(time_t);
  42:src/../h/syscall_cpp.hpp **** 
  43:src/../h/syscall_cpp.hpp ****     int tryWait();
  44:src/../h/syscall_cpp.hpp **** 
  45:src/../h/syscall_cpp.hpp **** private:
  46:src/../h/syscall_cpp.hpp ****     sem_t myHandle;
  47:src/../h/syscall_cpp.hpp **** };
  48:src/../h/syscall_cpp.hpp **** 
  49:src/../h/syscall_cpp.hpp **** 
  50:src/../h/syscall_cpp.hpp **** class PeriodicThread : public Thread {
  51:src/../h/syscall_cpp.hpp **** public:
  52:src/../h/syscall_cpp.hpp ****     void terminate ();
  53:src/../h/syscall_cpp.hpp **** 
  54:src/../h/syscall_cpp.hpp **** protected:
  55:src/../h/syscall_cpp.hpp ****     PeriodicThread (time_t period);
  56:src/../h/syscall_cpp.hpp **** 
  57:src/../h/syscall_cpp.hpp ****     virtual void periodicActivation () {}
  41              		.loc 1 57 18 is_stmt 1
  42              		.cfi_startproc
  43              	.LVL1:
  44 0000 130101FF 		addi	sp,sp,-16
  45              		.cfi_def_cfa_offset 16
  46 0004 23348100 		sd	s0,8(sp)
  47              		.cfi_offset 8, -8
  48 0008 13040101 		addi	s0,sp,16
  49              		.cfi_def_cfa 8, 0
  50              		.loc 1 57 41 is_stmt 0
  51 000c 03348100 		ld	s0,8(sp)
  52              		.cfi_restore 8
  53              		.cfi_def_cfa 2, 16
  54 0010 13010101 		addi	sp,sp,16
  55              		.cfi_def_cfa_offset 0
  56 0014 67800000 		jr	ra
  57              		.cfi_endproc
  58              	.LFE17:
  60              		.text
  61              		.align	2
GAS LISTING /tmp/ccMYxqV9.s 			page 3


  62              		.globl	_ZN6Thread12startWrapperEPv
  64              	_ZN6Thread12startWrapperEPv:
  65              	.LFB35:
  66              		.file 2 "src/syscall_cpp.cpp"
   1:src/syscall_cpp.cpp **** 
   2:src/syscall_cpp.cpp **** #include "../h/syscall_cpp.hpp"
   3:src/syscall_cpp.cpp **** #include "../lib/console.h"
   4:src/syscall_cpp.cpp **** 
   5:src/syscall_cpp.cpp **** void *operator new(size_t n) {
   6:src/syscall_cpp.cpp ****     return mem_alloc(n);
   7:src/syscall_cpp.cpp **** }
   8:src/syscall_cpp.cpp **** 
   9:src/syscall_cpp.cpp **** void *operator new[](size_t n) {
  10:src/syscall_cpp.cpp ****     return mem_alloc(n);
  11:src/syscall_cpp.cpp **** }
  12:src/syscall_cpp.cpp **** 
  13:src/syscall_cpp.cpp **** void operator delete(void *p) noexcept {
  14:src/syscall_cpp.cpp ****     mem_free(p);
  15:src/syscall_cpp.cpp **** }
  16:src/syscall_cpp.cpp **** 
  17:src/syscall_cpp.cpp **** void operator delete[](void *p) noexcept {
  18:src/syscall_cpp.cpp ****     mem_free(p);
  19:src/syscall_cpp.cpp **** }
  20:src/syscall_cpp.cpp **** 
  21:src/syscall_cpp.cpp **** Thread::Thread(void (*body)(void *), void *arg): body(body), arg(arg) {}
  22:src/syscall_cpp.cpp **** 
  23:src/syscall_cpp.cpp **** Thread::~Thread() {
  24:src/syscall_cpp.cpp ****     delete myHandle;
  25:src/syscall_cpp.cpp **** }
  26:src/syscall_cpp.cpp **** 
  27:src/syscall_cpp.cpp **** int Thread::start () {
  28:src/syscall_cpp.cpp ****     if (body) {
  29:src/syscall_cpp.cpp ****         return thread_create(&myHandle, body, arg);
  30:src/syscall_cpp.cpp ****     } else {
  31:src/syscall_cpp.cpp ****         return thread_create(&myHandle, startWrapper, this);
  32:src/syscall_cpp.cpp ****     }
  33:src/syscall_cpp.cpp **** }
  34:src/syscall_cpp.cpp **** 
  35:src/syscall_cpp.cpp **** void Thread::dispatch() {
  36:src/syscall_cpp.cpp ****     thread_dispatch();
  37:src/syscall_cpp.cpp **** }
  38:src/syscall_cpp.cpp **** 
  39:src/syscall_cpp.cpp **** int Thread::sleep(time_t time) {
  40:src/syscall_cpp.cpp ****     return time_sleep(time);
  41:src/syscall_cpp.cpp **** }
  42:src/syscall_cpp.cpp **** 
  43:src/syscall_cpp.cpp **** Thread::Thread(): body(nullptr), arg(nullptr) {}
  44:src/syscall_cpp.cpp **** 
  45:src/syscall_cpp.cpp **** void Thread::startWrapper(void* t) {
  67              		.loc 2 45 36 is_stmt 1
  68              		.cfi_startproc
  69              	.LVL2:
  70 0000 130101FF 		addi	sp,sp,-16
  71              		.cfi_def_cfa_offset 16
  72 0004 23341100 		sd	ra,8(sp)
  73 0008 23308100 		sd	s0,0(sp)
  74              		.cfi_offset 1, -8
GAS LISTING /tmp/ccMYxqV9.s 			page 4


  75              		.cfi_offset 8, -16
  76 000c 13040101 		addi	s0,sp,16
  77              		.cfi_def_cfa 8, 0
  46:src/syscall_cpp.cpp ****     Thread* thr = (Thread*) t;
  78              		.loc 2 46 5
  79              	.LVL3:
  47:src/syscall_cpp.cpp ****     thr->run();
  80              		.loc 2 47 5
  81              		.loc 2 47 14 is_stmt 0
  82 0010 83370500 		ld	a5,0(a0)
  83 0014 83B70701 		ld	a5,16(a5)
  84              		.loc 2 47 13
  85 0018 E7800700 		jalr	a5
  86              	.LVL4:
  48:src/syscall_cpp.cpp **** }
  87              		.loc 2 48 1
  88 001c 83308100 		ld	ra,8(sp)
  89              		.cfi_restore 1
  90 0020 03340100 		ld	s0,0(sp)
  91              		.cfi_restore 8
  92              		.cfi_def_cfa 2, 16
  93 0024 13010101 		addi	sp,sp,16
  94              		.cfi_def_cfa_offset 0
  95 0028 67800000 		jr	ra
  96              		.cfi_endproc
  97              	.LFE35:
  99              		.align	2
 100              		.globl	_ZN9SemaphoreD2Ev
 102              	_ZN9SemaphoreD2Ev:
 103              	.LFB40:
  49:src/syscall_cpp.cpp **** 
  50:src/syscall_cpp.cpp **** 
  51:src/syscall_cpp.cpp **** Semaphore::Semaphore(unsigned int init) {
  52:src/syscall_cpp.cpp ****     sem_open(&myHandle, init);
  53:src/syscall_cpp.cpp **** }
  54:src/syscall_cpp.cpp **** 
  55:src/syscall_cpp.cpp **** Semaphore::~Semaphore() {
 104              		.loc 2 55 1 is_stmt 1
 105              		.cfi_startproc
 106              		.cfi_personality 0x9b,DW.ref.__gxx_personality_v0
 107              		.cfi_lsda 0x1b,.LLSDA40
 108              	.LVL5:
 109 002c 130101FF 		addi	sp,sp,-16
 110              		.cfi_def_cfa_offset 16
 111 0030 23341100 		sd	ra,8(sp)
 112 0034 23308100 		sd	s0,0(sp)
 113              		.cfi_offset 1, -8
 114              		.cfi_offset 8, -16
 115 0038 13040101 		addi	s0,sp,16
 116              		.cfi_def_cfa 8, 0
 117              	.LBB13:
 118              		.loc 2 55 23 is_stmt 0
 119 003c 97070000 		lla	a5,_ZTV9Semaphore+16
 119      93870700 
 120 0044 2330F500 		sd	a5,0(a0)
  56:src/syscall_cpp.cpp ****     sem_close(myHandle);
 121              		.loc 2 56 5 is_stmt 1
GAS LISTING /tmp/ccMYxqV9.s 			page 5


 122              		.loc 2 56 14 is_stmt 0
 123 0048 03358500 		ld	a0,8(a0)
 124              	.LVL6:
 125 004c 97000000 		call	_Z9sem_closeP11mySemaphore
 125      E7800000 
 126              	.LVL7:
 127              	.LBE13:
  57:src/syscall_cpp.cpp **** }
 128              		.loc 2 57 1
 129 0054 83308100 		ld	ra,8(sp)
 130              		.cfi_restore 1
 131 0058 03340100 		ld	s0,0(sp)
 132              		.cfi_restore 8
 133              		.cfi_def_cfa 2, 16
 134 005c 13010101 		addi	sp,sp,16
 135              		.cfi_def_cfa_offset 0
 136 0060 67800000 		jr	ra
 137              		.cfi_endproc
 138              	.LFE40:
 139              		.globl	__gxx_personality_v0
 140              		.section	.gcc_except_table,"aw",@progbits
 141              	.LLSDA40:
 142 0000 FF       		.byte	0xff
 143 0001 FF       		.byte	0xff
 144 0002 03       		.byte	0x3
 145 0003 00       		.byte	0
 146              		.text
 148              		.globl	_ZN9SemaphoreD1Ev
 149              		.set	_ZN9SemaphoreD1Ev,_ZN9SemaphoreD2Ev
 150              		.align	2
 151              		.globl	_Znwm
 153              	_Znwm:
 154              	.LFB18:
   5:src/syscall_cpp.cpp ****     return mem_alloc(n);
 155              		.loc 2 5 30 is_stmt 1
 156              		.cfi_startproc
 157              	.LVL8:
 158 0064 130101FF 		addi	sp,sp,-16
 159              		.cfi_def_cfa_offset 16
 160 0068 23341100 		sd	ra,8(sp)
 161 006c 23308100 		sd	s0,0(sp)
 162              		.cfi_offset 1, -8
 163              		.cfi_offset 8, -16
 164 0070 13040101 		addi	s0,sp,16
 165              		.cfi_def_cfa 8, 0
   6:src/syscall_cpp.cpp **** }
 166              		.loc 2 6 5
   6:src/syscall_cpp.cpp **** }
 167              		.loc 2 6 21 is_stmt 0
 168 0074 97000000 		call	_Z9mem_allocm
 168      E7800000 
 169              	.LVL9:
   7:src/syscall_cpp.cpp **** 
 170              		.loc 2 7 1
 171 007c 83308100 		ld	ra,8(sp)
 172              		.cfi_restore 1
 173 0080 03340100 		ld	s0,0(sp)
GAS LISTING /tmp/ccMYxqV9.s 			page 6


 174              		.cfi_restore 8
 175              		.cfi_def_cfa 2, 16
 176 0084 13010101 		addi	sp,sp,16
 177              		.cfi_def_cfa_offset 0
 178 0088 67800000 		jr	ra
 179              		.cfi_endproc
 180              	.LFE18:
 182              		.align	2
 183              		.globl	_Znam
 185              	_Znam:
 186              	.LFB19:
   9:src/syscall_cpp.cpp ****     return mem_alloc(n);
 187              		.loc 2 9 32 is_stmt 1
 188              		.cfi_startproc
 189              	.LVL10:
 190 008c 130101FF 		addi	sp,sp,-16
 191              		.cfi_def_cfa_offset 16
 192 0090 23341100 		sd	ra,8(sp)
 193 0094 23308100 		sd	s0,0(sp)
 194              		.cfi_offset 1, -8
 195              		.cfi_offset 8, -16
 196 0098 13040101 		addi	s0,sp,16
 197              		.cfi_def_cfa 8, 0
  10:src/syscall_cpp.cpp **** }
 198              		.loc 2 10 5
  10:src/syscall_cpp.cpp **** }
 199              		.loc 2 10 21 is_stmt 0
 200 009c 97000000 		call	_Z9mem_allocm
 200      E7800000 
 201              	.LVL11:
  11:src/syscall_cpp.cpp **** 
 202              		.loc 2 11 1
 203 00a4 83308100 		ld	ra,8(sp)
 204              		.cfi_restore 1
 205 00a8 03340100 		ld	s0,0(sp)
 206              		.cfi_restore 8
 207              		.cfi_def_cfa 2, 16
 208 00ac 13010101 		addi	sp,sp,16
 209              		.cfi_def_cfa_offset 0
 210 00b0 67800000 		jr	ra
 211              		.cfi_endproc
 212              	.LFE19:
 214              		.align	2
 215              		.globl	_ZdlPv
 217              	_ZdlPv:
 218              	.LFB20:
  13:src/syscall_cpp.cpp ****     mem_free(p);
 219              		.loc 2 13 40 is_stmt 1
 220              		.cfi_startproc
 221              		.cfi_personality 0x9b,DW.ref.__gxx_personality_v0
 222              		.cfi_lsda 0x1b,.LLSDA20
 223              	.LVL12:
 224 00b4 130101FF 		addi	sp,sp,-16
 225              		.cfi_def_cfa_offset 16
 226 00b8 23341100 		sd	ra,8(sp)
 227 00bc 23308100 		sd	s0,0(sp)
 228              		.cfi_offset 1, -8
GAS LISTING /tmp/ccMYxqV9.s 			page 7


 229              		.cfi_offset 8, -16
 230 00c0 13040101 		addi	s0,sp,16
 231              		.cfi_def_cfa 8, 0
  14:src/syscall_cpp.cpp **** }
 232              		.loc 2 14 5
  14:src/syscall_cpp.cpp **** }
 233              		.loc 2 14 13 is_stmt 0
 234 00c4 97000000 		call	_Z8mem_freePv
 234      E7800000 
 235              	.LVL13:
  15:src/syscall_cpp.cpp **** 
 236              		.loc 2 15 1
 237 00cc 83308100 		ld	ra,8(sp)
 238              		.cfi_restore 1
 239 00d0 03340100 		ld	s0,0(sp)
 240              		.cfi_restore 8
 241              		.cfi_def_cfa 2, 16
 242 00d4 13010101 		addi	sp,sp,16
 243              		.cfi_def_cfa_offset 0
 244 00d8 67800000 		jr	ra
 245              		.cfi_endproc
 246              	.LFE20:
 247              		.section	.gcc_except_table
 248              	.LLSDA20:
 249 0004 FF       		.byte	0xff
 250 0005 FF       		.byte	0xff
 251 0006 03       		.byte	0x3
 252 0007 00       		.byte	0
 253              		.text
 255              		.align	2
 256              		.globl	_ZN9SemaphoreD0Ev
 258              	_ZN9SemaphoreD0Ev:
 259              	.LFB42:
  55:src/syscall_cpp.cpp ****     sem_close(myHandle);
 260              		.loc 2 55 1 is_stmt 1
 261              		.cfi_startproc
 262              	.LVL14:
 263 00dc 130101FE 		addi	sp,sp,-32
 264              		.cfi_def_cfa_offset 32
 265 00e0 233C1100 		sd	ra,24(sp)
 266 00e4 23388100 		sd	s0,16(sp)
 267 00e8 23349100 		sd	s1,8(sp)
 268              		.cfi_offset 1, -8
 269              		.cfi_offset 8, -16
 270              		.cfi_offset 9, -24
 271 00ec 13040102 		addi	s0,sp,32
 272              		.cfi_def_cfa 8, 0
 273 00f0 93040500 		mv	s1,a0
 274              		.loc 2 57 1 is_stmt 0
 275 00f4 97000000 		call	_ZN9SemaphoreD1Ev
 275      E7800000 
 276              	.LVL15:
 277 00fc 13850400 		mv	a0,s1
 278 0100 97000000 		call	_ZdlPv
 278      E7800000 
 279              	.LVL16:
 280 0108 83308101 		ld	ra,24(sp)
GAS LISTING /tmp/ccMYxqV9.s 			page 8


 281              		.cfi_restore 1
 282 010c 03340101 		ld	s0,16(sp)
 283              		.cfi_restore 8
 284              		.cfi_def_cfa 2, 32
 285 0110 83348100 		ld	s1,8(sp)
 286              		.cfi_restore 9
 287              	.LVL17:
 288 0114 13010102 		addi	sp,sp,32
 289              		.cfi_def_cfa_offset 0
 290 0118 67800000 		jr	ra
 291              		.cfi_endproc
 292              	.LFE42:
 294              		.align	2
 295              		.globl	_ZdaPv
 297              	_ZdaPv:
 298              	.LFB21:
  17:src/syscall_cpp.cpp ****     mem_free(p);
 299              		.loc 2 17 42 is_stmt 1
 300              		.cfi_startproc
 301              		.cfi_personality 0x9b,DW.ref.__gxx_personality_v0
 302              		.cfi_lsda 0x1b,.LLSDA21
 303              	.LVL18:
 304 011c 130101FF 		addi	sp,sp,-16
 305              		.cfi_def_cfa_offset 16
 306 0120 23341100 		sd	ra,8(sp)
 307 0124 23308100 		sd	s0,0(sp)
 308              		.cfi_offset 1, -8
 309              		.cfi_offset 8, -16
 310 0128 13040101 		addi	s0,sp,16
 311              		.cfi_def_cfa 8, 0
  18:src/syscall_cpp.cpp **** }
 312              		.loc 2 18 5
  18:src/syscall_cpp.cpp **** }
 313              		.loc 2 18 13 is_stmt 0
 314 012c 97000000 		call	_Z8mem_freePv
 314      E7800000 
 315              	.LVL19:
  19:src/syscall_cpp.cpp **** 
 316              		.loc 2 19 1
 317 0134 83308100 		ld	ra,8(sp)
 318              		.cfi_restore 1
 319 0138 03340100 		ld	s0,0(sp)
 320              		.cfi_restore 8
 321              		.cfi_def_cfa 2, 16
 322 013c 13010101 		addi	sp,sp,16
 323              		.cfi_def_cfa_offset 0
 324 0140 67800000 		jr	ra
 325              		.cfi_endproc
 326              	.LFE21:
 327              		.section	.gcc_except_table
 328              	.LLSDA21:
 329 0008 FF       		.byte	0xff
 330 0009 FF       		.byte	0xff
 331 000a 03       		.byte	0x3
 332 000b 00       		.byte	0
 333              		.text
 335              		.align	2
GAS LISTING /tmp/ccMYxqV9.s 			page 9


 336              		.globl	_ZN6ThreadD2Ev
 338              	_ZN6ThreadD2Ev:
 339              	.LFB26:
  23:src/syscall_cpp.cpp ****     delete myHandle;
 340              		.loc 2 23 1 is_stmt 1
 341              		.cfi_startproc
 342              		.cfi_personality 0x9b,DW.ref.__gxx_personality_v0
 343              		.cfi_lsda 0x1b,.LLSDA26
 344              	.LVL20:
 345 0144 130101FE 		addi	sp,sp,-32
 346              		.cfi_def_cfa_offset 32
 347 0148 233C1100 		sd	ra,24(sp)
 348 014c 23388100 		sd	s0,16(sp)
 349 0150 23349100 		sd	s1,8(sp)
 350              		.cfi_offset 1, -8
 351              		.cfi_offset 8, -16
 352              		.cfi_offset 9, -24
 353 0154 13040102 		addi	s0,sp,32
 354              		.cfi_def_cfa 8, 0
 355              	.LBB14:
  23:src/syscall_cpp.cpp ****     delete myHandle;
 356              		.loc 2 23 17 is_stmt 0
 357 0158 97070000 		lla	a5,_ZTV6Thread+16
 357      93870700 
 358 0160 2330F500 		sd	a5,0(a0)
  24:src/syscall_cpp.cpp **** }
 359              		.loc 2 24 5 is_stmt 1
  24:src/syscall_cpp.cpp **** }
 360              		.loc 2 24 12 is_stmt 0
 361 0164 83348500 		ld	s1,8(a0)
  24:src/syscall_cpp.cpp **** }
 362              		.loc 2 24 20
 363 0168 63800402 		beqz	s1,.L19
 364              	.LVL21:
 365              	.LBB15:
 366              	.LBB16:
 367              		.file 3 "src/../h/../h/../h/TCB.hpp"
   1:src/../h/../h/../h/TCB.hpp **** 
   2:src/../h/../h/../h/TCB.hpp **** #ifndef PROJECT_BASE_TCB_HPP
   3:src/../h/../h/../h/TCB.hpp **** #define PROJECT_BASE_TCB_HPP
   4:src/../h/../h/../h/TCB.hpp **** 
   5:src/../h/../h/../h/TCB.hpp **** #include "../lib/hw.h"
   6:src/../h/../h/../h/TCB.hpp **** #include "Scheduler.hpp"
   7:src/../h/../h/../h/TCB.hpp **** #include "print.hpp"
   8:src/../h/../h/../h/TCB.hpp **** 
   9:src/../h/../h/../h/TCB.hpp **** //IZ KNJIGE - iskoriscena stanja niti + TCB klasa je vecim delom implementirana na vezbama
  10:src/../h/../h/../h/TCB.hpp **** enum Status {RUNNING, SUSPENDED, SLEEPING, FINISHED};
  11:src/../h/../h/../h/TCB.hpp **** 
  12:src/../h/../h/../h/TCB.hpp **** class TCB {
  13:src/../h/../h/../h/TCB.hpp **** public:
  14:src/../h/../h/../h/TCB.hpp ****     void* operator new(size_t size);
  15:src/../h/../h/../h/TCB.hpp ****     void operator delete(void *p);
  16:src/../h/../h/../h/TCB.hpp **** 
  17:src/../h/../h/../h/TCB.hpp ****     ~TCB() { delete[] stack; }
 368              		.loc 3 17 14 is_stmt 1
 369              		.loc 3 17 23 is_stmt 0
 370 016c 03B58401 		ld	a0,24(s1)
GAS LISTING /tmp/ccMYxqV9.s 			page 10


 371              	.LVL22:
 372              		.loc 3 17 28
 373 0170 63060500 		beqz	a0,.L21
 374              		.loc 3 17 23
 375 0174 97000000 		call	_ZdaPv
 375      E7800000 
 376              	.LVL23:
 377              	.L21:
 378              	.LBE16:
 379              	.LBE15:
  24:src/syscall_cpp.cpp **** }
 380              		.loc 2 24 12
 381 017c 13850400 		mv	a0,s1
 382 0180 97000000 		call	_ZN3TCBdlEPv
 382      E7800000 
 383              	.LVL24:
 384              	.L19:
 385              	.LBE14:
  25:src/syscall_cpp.cpp **** 
 386              		.loc 2 25 1
 387 0188 83308101 		ld	ra,24(sp)
 388              		.cfi_restore 1
 389 018c 03340101 		ld	s0,16(sp)
 390              		.cfi_restore 8
 391              		.cfi_def_cfa 2, 32
 392 0190 83348100 		ld	s1,8(sp)
 393              		.cfi_restore 9
 394 0194 13010102 		addi	sp,sp,32
 395              		.cfi_def_cfa_offset 0
 396 0198 67800000 		jr	ra
 397              		.cfi_endproc
 398              	.LFE26:
 399              		.section	.gcc_except_table
 400              	.LLSDA26:
 401 000c FF       		.byte	0xff
 402 000d FF       		.byte	0xff
 403 000e 03       		.byte	0x3
 404 000f 00       		.byte	0
 405              		.text
 407              		.globl	_ZN6ThreadD1Ev
 408              		.set	_ZN6ThreadD1Ev,_ZN6ThreadD2Ev
 409              		.align	2
 410              		.globl	_ZN6ThreadD0Ev
 412              	_ZN6ThreadD0Ev:
 413              	.LFB28:
  23:src/syscall_cpp.cpp ****     delete myHandle;
 414              		.loc 2 23 1 is_stmt 1
 415              		.cfi_startproc
 416              	.LVL25:
 417 019c 130101FE 		addi	sp,sp,-32
 418              		.cfi_def_cfa_offset 32
 419 01a0 233C1100 		sd	ra,24(sp)
 420 01a4 23388100 		sd	s0,16(sp)
 421 01a8 23349100 		sd	s1,8(sp)
 422              		.cfi_offset 1, -8
 423              		.cfi_offset 8, -16
 424              		.cfi_offset 9, -24
GAS LISTING /tmp/ccMYxqV9.s 			page 11


 425 01ac 13040102 		addi	s0,sp,32
 426              		.cfi_def_cfa 8, 0
 427 01b0 93040500 		mv	s1,a0
  25:src/syscall_cpp.cpp **** 
 428              		.loc 2 25 1 is_stmt 0
 429 01b4 97000000 		call	_ZN6ThreadD1Ev
 429      E7800000 
 430              	.LVL26:
 431 01bc 13850400 		mv	a0,s1
 432 01c0 97000000 		call	_ZdlPv
 432      E7800000 
 433              	.LVL27:
 434 01c8 83308101 		ld	ra,24(sp)
 435              		.cfi_restore 1
 436 01cc 03340101 		ld	s0,16(sp)
 437              		.cfi_restore 8
 438              		.cfi_def_cfa 2, 32
 439 01d0 83348100 		ld	s1,8(sp)
 440              		.cfi_restore 9
 441              	.LVL28:
 442 01d4 13010102 		addi	sp,sp,32
 443              		.cfi_def_cfa_offset 0
 444 01d8 67800000 		jr	ra
 445              		.cfi_endproc
 446              	.LFE28:
 448              		.section	.text._ZN14PeriodicThreadD2Ev,"axG",@progbits,_ZN14PeriodicThreadD5Ev,comdat
 449              		.align	2
 450              		.weak	_ZN14PeriodicThreadD2Ev
 452              	_ZN14PeriodicThreadD2Ev:
 453              	.LFB58:
  50:src/../h/syscall_cpp.hpp **** public:
 454              		.loc 1 50 7 is_stmt 1
 455              		.cfi_startproc
 456              	.LVL29:
 457 0000 130101FF 		addi	sp,sp,-16
 458              		.cfi_def_cfa_offset 16
 459 0004 23341100 		sd	ra,8(sp)
 460 0008 23308100 		sd	s0,0(sp)
 461              		.cfi_offset 1, -8
 462              		.cfi_offset 8, -16
 463 000c 13040101 		addi	s0,sp,16
 464              		.cfi_def_cfa 8, 0
 465              	.LBB17:
  50:src/../h/syscall_cpp.hpp **** public:
 466              		.loc 1 50 7 is_stmt 0
 467 0010 97070000 		lla	a5,_ZTV14PeriodicThread+16
 467      93870700 
 468 0018 2330F500 		sd	a5,0(a0)
 469 001c 97000000 		call	_ZN6ThreadD2Ev
 469      E7800000 
 470              	.LVL30:
 471              	.LBE17:
 472 0024 83308100 		ld	ra,8(sp)
 473              		.cfi_restore 1
 474 0028 03340100 		ld	s0,0(sp)
 475              		.cfi_restore 8
 476              		.cfi_def_cfa 2, 16
GAS LISTING /tmp/ccMYxqV9.s 			page 12


 477 002c 13010101 		addi	sp,sp,16
 478              		.cfi_def_cfa_offset 0
 479 0030 67800000 		jr	ra
 480              		.cfi_endproc
 481              	.LFE58:
 483              		.weak	_ZN14PeriodicThreadD1Ev
 484              		.set	_ZN14PeriodicThreadD1Ev,_ZN14PeriodicThreadD2Ev
 485              		.section	.text._ZN14PeriodicThreadD0Ev,"axG",@progbits,_ZN14PeriodicThreadD5Ev,comdat
 486              		.align	2
 487              		.weak	_ZN14PeriodicThreadD0Ev
 489              	_ZN14PeriodicThreadD0Ev:
 490              	.LFB60:
  50:src/../h/syscall_cpp.hpp **** public:
 491              		.loc 1 50 7 is_stmt 1
 492              		.cfi_startproc
 493              	.LVL31:
 494 0000 130101FE 		addi	sp,sp,-32
 495              		.cfi_def_cfa_offset 32
 496 0004 233C1100 		sd	ra,24(sp)
 497 0008 23388100 		sd	s0,16(sp)
 498 000c 23349100 		sd	s1,8(sp)
 499              		.cfi_offset 1, -8
 500              		.cfi_offset 8, -16
 501              		.cfi_offset 9, -24
 502 0010 13040102 		addi	s0,sp,32
 503              		.cfi_def_cfa 8, 0
 504 0014 93040500 		mv	s1,a0
 505              	.LVL32:
 506              	.LBB18:
 507              	.LBB19:
  50:src/../h/syscall_cpp.hpp **** public:
 508              		.loc 1 50 7 is_stmt 0
 509 0018 97070000 		lla	a5,_ZTV14PeriodicThread+16
 509      93870700 
 510 0020 2330F500 		sd	a5,0(a0)
 511 0024 97000000 		call	_ZN6ThreadD2Ev
 511      E7800000 
 512              	.LVL33:
 513              	.LBE19:
 514              	.LBE18:
 515 002c 13850400 		mv	a0,s1
 516 0030 97000000 		call	_ZdlPv
 516      E7800000 
 517              	.LVL34:
 518 0038 83308101 		ld	ra,24(sp)
 519              		.cfi_restore 1
 520 003c 03340101 		ld	s0,16(sp)
 521              		.cfi_restore 8
 522              		.cfi_def_cfa 2, 32
 523 0040 83348100 		ld	s1,8(sp)
 524              		.cfi_restore 9
 525              	.LVL35:
 526 0044 13010102 		addi	sp,sp,32
 527              		.cfi_def_cfa_offset 0
 528 0048 67800000 		jr	ra
 529              		.cfi_endproc
 530              	.LFE60:
GAS LISTING /tmp/ccMYxqV9.s 			page 13


 532              		.text
 533              		.align	2
 534              		.globl	_ZN6ThreadC2EPFvPvES0_
 536              	_ZN6ThreadC2EPFvPvES0_:
 537              	.LFB23:
  21:src/syscall_cpp.cpp **** 
 538              		.loc 2 21 1 is_stmt 1
 539              		.cfi_startproc
 540              	.LVL36:
 541 01dc 130101FF 		addi	sp,sp,-16
 542              		.cfi_def_cfa_offset 16
 543 01e0 23348100 		sd	s0,8(sp)
 544              		.cfi_offset 8, -8
 545 01e4 13040101 		addi	s0,sp,16
 546              		.cfi_def_cfa 8, 0
 547              	.LBB20:
  21:src/syscall_cpp.cpp **** 
 548              		.loc 2 21 69 is_stmt 0
 549 01e8 97070000 		lla	a5,_ZTV6Thread+16
 549      93870700 
 550 01f0 2330F500 		sd	a5,0(a0)
 551 01f4 2338B500 		sd	a1,16(a0)
 552 01f8 233CC500 		sd	a2,24(a0)
 553              	.LBE20:
  21:src/syscall_cpp.cpp **** 
 554              		.loc 2 21 72
 555 01fc 03348100 		ld	s0,8(sp)
 556              		.cfi_restore 8
 557              		.cfi_def_cfa 2, 16
 558 0200 13010101 		addi	sp,sp,16
 559              		.cfi_def_cfa_offset 0
 560 0204 67800000 		jr	ra
 561              		.cfi_endproc
 562              	.LFE23:
 564              		.globl	_ZN6ThreadC1EPFvPvES0_
 565              		.set	_ZN6ThreadC1EPFvPvES0_,_ZN6ThreadC2EPFvPvES0_
 566              		.align	2
 567              		.globl	_ZN6Thread5startEv
 569              	_ZN6Thread5startEv:
 570              	.LFB29:
  27:src/syscall_cpp.cpp ****     if (body) {
 571              		.loc 2 27 22 is_stmt 1
 572              		.cfi_startproc
 573              	.LVL37:
 574 0208 130101FF 		addi	sp,sp,-16
 575              		.cfi_def_cfa_offset 16
 576 020c 23341100 		sd	ra,8(sp)
 577 0210 23308100 		sd	s0,0(sp)
 578              		.cfi_offset 1, -8
 579              		.cfi_offset 8, -16
 580 0214 13040101 		addi	s0,sp,16
 581              		.cfi_def_cfa 8, 0
  28:src/syscall_cpp.cpp ****         return thread_create(&myHandle, body, arg);
 582              		.loc 2 28 5
  28:src/syscall_cpp.cpp ****         return thread_create(&myHandle, body, arg);
 583              		.loc 2 28 9 is_stmt 0
 584 0218 83350501 		ld	a1,16(a0)
GAS LISTING /tmp/ccMYxqV9.s 			page 14


  28:src/syscall_cpp.cpp ****         return thread_create(&myHandle, body, arg);
 585              		.loc 2 28 5
 586 021c 63820502 		beqz	a1,.L32
  29:src/syscall_cpp.cpp ****     } else {
 587              		.loc 2 29 9 is_stmt 1
  29:src/syscall_cpp.cpp ****     } else {
 588              		.loc 2 29 29 is_stmt 0
 589 0220 03368501 		ld	a2,24(a0)
 590 0224 13058500 		addi	a0,a0,8
 591              	.LVL38:
 592 0228 97000000 		call	_Z13thread_createPP3TCBPFvPvES2_
 592      E7800000 
 593              	.LVL39:
 594              	.L33:
  33:src/syscall_cpp.cpp **** 
 595              		.loc 2 33 1
 596 0230 83308100 		ld	ra,8(sp)
 597              		.cfi_remember_state
 598              		.cfi_restore 1
 599 0234 03340100 		ld	s0,0(sp)
 600              		.cfi_restore 8
 601              		.cfi_def_cfa 2, 16
 602 0238 13010101 		addi	sp,sp,16
 603              		.cfi_def_cfa_offset 0
 604 023c 67800000 		jr	ra
 605              	.LVL40:
 606              	.L32:
 607              		.cfi_restore_state
  31:src/syscall_cpp.cpp ****     }
 608              		.loc 2 31 9 is_stmt 1
  31:src/syscall_cpp.cpp ****     }
 609              		.loc 2 31 29 is_stmt 0
 610 0240 13060500 		mv	a2,a0
 611 0244 97050000 		lla	a1,_ZN6Thread12startWrapperEPv
 611      93850500 
 612 024c 13058500 		addi	a0,a0,8
 613              	.LVL41:
 614 0250 97000000 		call	_Z13thread_createPP3TCBPFvPvES2_
 614      E7800000 
 615              	.LVL42:
  31:src/syscall_cpp.cpp ****     }
 616              		.loc 2 31 59
 617 0258 6FF09FFD 		j	.L33
 618              		.cfi_endproc
 619              	.LFE29:
 621              		.align	2
 622              		.globl	_ZN6Thread8dispatchEv
 624              	_ZN6Thread8dispatchEv:
 625              	.LFB30:
  35:src/syscall_cpp.cpp ****     thread_dispatch();
 626              		.loc 2 35 25 is_stmt 1
 627              		.cfi_startproc
 628 025c 130101FF 		addi	sp,sp,-16
 629              		.cfi_def_cfa_offset 16
 630 0260 23341100 		sd	ra,8(sp)
 631 0264 23308100 		sd	s0,0(sp)
 632              		.cfi_offset 1, -8
GAS LISTING /tmp/ccMYxqV9.s 			page 15


 633              		.cfi_offset 8, -16
 634 0268 13040101 		addi	s0,sp,16
 635              		.cfi_def_cfa 8, 0
  36:src/syscall_cpp.cpp **** }
 636              		.loc 2 36 5
  36:src/syscall_cpp.cpp **** }
 637              		.loc 2 36 20 is_stmt 0
 638 026c 97000000 		call	_Z15thread_dispatchv
 638      E7800000 
 639              	.LVL43:
  37:src/syscall_cpp.cpp **** 
 640              		.loc 2 37 1
 641 0274 83308100 		ld	ra,8(sp)
 642              		.cfi_restore 1
 643 0278 03340100 		ld	s0,0(sp)
 644              		.cfi_restore 8
 645              		.cfi_def_cfa 2, 16
 646 027c 13010101 		addi	sp,sp,16
 647              		.cfi_def_cfa_offset 0
 648 0280 67800000 		jr	ra
 649              		.cfi_endproc
 650              	.LFE30:
 652              		.align	2
 653              		.globl	_ZN6Thread5sleepEm
 655              	_ZN6Thread5sleepEm:
 656              	.LFB31:
  39:src/syscall_cpp.cpp ****     return time_sleep(time);
 657              		.loc 2 39 32 is_stmt 1
 658              		.cfi_startproc
 659              	.LVL44:
 660 0284 130101FF 		addi	sp,sp,-16
 661              		.cfi_def_cfa_offset 16
 662 0288 23341100 		sd	ra,8(sp)
 663 028c 23308100 		sd	s0,0(sp)
 664              		.cfi_offset 1, -8
 665              		.cfi_offset 8, -16
 666 0290 13040101 		addi	s0,sp,16
 667              		.cfi_def_cfa 8, 0
  40:src/syscall_cpp.cpp **** }
 668              		.loc 2 40 5
  40:src/syscall_cpp.cpp **** }
 669              		.loc 2 40 22 is_stmt 0
 670 0294 97000000 		call	_Z10time_sleepm
 670      E7800000 
 671              	.LVL45:
  41:src/syscall_cpp.cpp **** 
 672              		.loc 2 41 1
 673 029c 83308100 		ld	ra,8(sp)
 674              		.cfi_restore 1
 675 02a0 03340100 		ld	s0,0(sp)
 676              		.cfi_restore 8
 677              		.cfi_def_cfa 2, 16
 678 02a4 13010101 		addi	sp,sp,16
 679              		.cfi_def_cfa_offset 0
 680 02a8 67800000 		jr	ra
 681              		.cfi_endproc
 682              	.LFE31:
GAS LISTING /tmp/ccMYxqV9.s 			page 16


 684              		.align	2
 685              		.globl	_ZN14PeriodicThread12startWrapperEPv
 687              	_ZN14PeriodicThread12startWrapperEPv:
 688              	.LFB54:
  58:src/syscall_cpp.cpp **** 
  59:src/syscall_cpp.cpp **** int Semaphore::wait() {
  60:src/syscall_cpp.cpp ****     return sem_wait(myHandle);
  61:src/syscall_cpp.cpp **** }
  62:src/syscall_cpp.cpp **** 
  63:src/syscall_cpp.cpp **** int Semaphore::signal() {
  64:src/syscall_cpp.cpp ****     return sem_signal(myHandle);
  65:src/syscall_cpp.cpp **** }
  66:src/syscall_cpp.cpp **** 
  67:src/syscall_cpp.cpp **** int Semaphore::timedWait(time_t time) {
  68:src/syscall_cpp.cpp ****     return sem_timedwait(myHandle, time);
  69:src/syscall_cpp.cpp **** }
  70:src/syscall_cpp.cpp **** 
  71:src/syscall_cpp.cpp **** int Semaphore::tryWait() {
  72:src/syscall_cpp.cpp ****     return sem_trywait(myHandle);
  73:src/syscall_cpp.cpp **** }
  74:src/syscall_cpp.cpp **** 
  75:src/syscall_cpp.cpp **** 
  76:src/syscall_cpp.cpp **** void PeriodicThread::terminate() {
  77:src/syscall_cpp.cpp ****     period = 0xFFFFFFFF;
  78:src/syscall_cpp.cpp **** }
  79:src/syscall_cpp.cpp **** 
  80:src/syscall_cpp.cpp **** struct PeriodicArgs {
  81:src/syscall_cpp.cpp ****     time_t time;
  82:src/syscall_cpp.cpp ****     void* handler;
  83:src/syscall_cpp.cpp ****     PeriodicArgs(time_t time, void* handler) : time(time), handler(handler){}
  84:src/syscall_cpp.cpp **** };
  85:src/syscall_cpp.cpp **** 
  86:src/syscall_cpp.cpp **** PeriodicThread::PeriodicThread(time_t period) : Thread(PeriodicThread::startWrapper, new PeriodicAr
  87:src/syscall_cpp.cpp **** 
  88:src/syscall_cpp.cpp **** 
  89:src/syscall_cpp.cpp **** void PeriodicThread::startWrapper(void *arg) {
 689              		.loc 2 89 46 is_stmt 1
 690              		.cfi_startproc
 691              	.LVL46:
 692 02ac 130101FE 		addi	sp,sp,-32
 693              		.cfi_def_cfa_offset 32
 694 02b0 233C1100 		sd	ra,24(sp)
 695 02b4 23388100 		sd	s0,16(sp)
 696 02b8 23349100 		sd	s1,8(sp)
 697 02bc 23302101 		sd	s2,0(sp)
 698              		.cfi_offset 1, -8
 699              		.cfi_offset 8, -16
 700              		.cfi_offset 9, -24
 701              		.cfi_offset 18, -32
 702 02c0 13040102 		addi	s0,sp,32
 703              		.cfi_def_cfa 8, 0
 704 02c4 13090500 		mv	s2,a0
  90:src/syscall_cpp.cpp ****     PeriodicArgs* parg = (PeriodicArgs*) arg;
 705              		.loc 2 90 5
 706              	.LVL47:
  91:src/syscall_cpp.cpp ****     PeriodicThread* thr = (PeriodicThread*) parg->handler;
 707              		.loc 2 91 5
GAS LISTING /tmp/ccMYxqV9.s 			page 17


 708              		.loc 2 91 21 is_stmt 0
 709 02c8 83348500 		ld	s1,8(a0)
 710              	.LVL48:
 711              	.L41:
  92:src/syscall_cpp.cpp ****     while (1) {
 712              		.loc 2 92 5 is_stmt 1
  93:src/syscall_cpp.cpp ****         if (thr->period == 0xFFFFFFFF) {        //stop signal
 713              		.loc 2 93 9
 714              		.loc 2 93 18 is_stmt 0
 715 02cc 03B70402 		ld	a4,32(s1)
 716              		.loc 2 93 9
 717 02d0 9307F0FF 		li	a5,-1
 718 02d4 93D70702 		srli	a5,a5,32
 719 02d8 6302F702 		beq	a4,a5,.L39
  94:src/syscall_cpp.cpp ****             break;
  95:src/syscall_cpp.cpp ****         }
  96:src/syscall_cpp.cpp ****         thr->periodicActivation();
 720              		.loc 2 96 9 is_stmt 1
 721              		.loc 2 96 33 is_stmt 0
 722 02dc 83B70400 		ld	a5,0(s1)
 723 02e0 83B78701 		ld	a5,24(a5)
 724              		.loc 2 96 32
 725 02e4 13850400 		mv	a0,s1
 726 02e8 E7800700 		jalr	a5
 727              	.LVL49:
  97:src/syscall_cpp.cpp ****         Thread::sleep(parg->time);
 728              		.loc 2 97 9 is_stmt 1
 729              		.loc 2 97 22 is_stmt 0
 730 02ec 03350900 		ld	a0,0(s2)
 731 02f0 97000000 		call	_ZN6Thread5sleepEm
 731      E7800000 
 732              	.LVL50:
  92:src/syscall_cpp.cpp ****         if (thr->period == 0xFFFFFFFF) {        //stop signal
 733              		.loc 2 92 5 is_stmt 1
  93:src/syscall_cpp.cpp ****             break;
 734              		.loc 2 93 9 is_stmt 0
 735 02f8 6FF05FFD 		j	.L41
 736              	.L39:
  98:src/syscall_cpp.cpp ****     }
  99:src/syscall_cpp.cpp **** }
 737              		.loc 2 99 1
 738 02fc 83308101 		ld	ra,24(sp)
 739              		.cfi_restore 1
 740 0300 03340101 		ld	s0,16(sp)
 741              		.cfi_restore 8
 742              		.cfi_def_cfa 2, 32
 743 0304 83348100 		ld	s1,8(sp)
 744              		.cfi_restore 9
 745              	.LVL51:
 746 0308 03390100 		ld	s2,0(sp)
 747              		.cfi_restore 18
 748              	.LVL52:
 749 030c 13010102 		addi	sp,sp,32
 750              		.cfi_def_cfa_offset 0
 751 0310 67800000 		jr	ra
 752              		.cfi_endproc
 753              	.LFE54:
GAS LISTING /tmp/ccMYxqV9.s 			page 18


 755              		.align	2
 756              		.globl	_ZN6ThreadC2Ev
 758              	_ZN6ThreadC2Ev:
 759              	.LFB33:
  43:src/syscall_cpp.cpp **** 
 760              		.loc 2 43 1 is_stmt 1
 761              		.cfi_startproc
 762              	.LVL53:
 763 0314 130101FF 		addi	sp,sp,-16
 764              		.cfi_def_cfa_offset 16
 765 0318 23348100 		sd	s0,8(sp)
 766              		.cfi_offset 8, -8
 767 031c 13040101 		addi	s0,sp,16
 768              		.cfi_def_cfa 8, 0
 769              	.LBB21:
  43:src/syscall_cpp.cpp **** 
 770              		.loc 2 43 45 is_stmt 0
 771 0320 97070000 		lla	a5,_ZTV6Thread+16
 771      93870700 
 772 0328 2330F500 		sd	a5,0(a0)
 773 032c 23380500 		sd	zero,16(a0)
 774 0330 233C0500 		sd	zero,24(a0)
 775              	.LBE21:
  43:src/syscall_cpp.cpp **** 
 776              		.loc 2 43 48
 777 0334 03348100 		ld	s0,8(sp)
 778              		.cfi_restore 8
 779              		.cfi_def_cfa 2, 16
 780 0338 13010101 		addi	sp,sp,16
 781              		.cfi_def_cfa_offset 0
 782 033c 67800000 		jr	ra
 783              		.cfi_endproc
 784              	.LFE33:
 786              		.globl	_ZN6ThreadC1Ev
 787              		.set	_ZN6ThreadC1Ev,_ZN6ThreadC2Ev
 788              		.align	2
 789              		.globl	_ZN9SemaphoreC2Ej
 791              	_ZN9SemaphoreC2Ej:
 792              	.LFB37:
  51:src/syscall_cpp.cpp ****     sem_open(&myHandle, init);
 793              		.loc 2 51 1 is_stmt 1
 794              		.cfi_startproc
 795              	.LVL54:
 796 0340 130101FF 		addi	sp,sp,-16
 797              		.cfi_def_cfa_offset 16
 798 0344 23341100 		sd	ra,8(sp)
 799 0348 23308100 		sd	s0,0(sp)
 800              		.cfi_offset 1, -8
 801              		.cfi_offset 8, -16
 802 034c 13040101 		addi	s0,sp,16
 803              		.cfi_def_cfa 8, 0
 804              	.LBB22:
  51:src/syscall_cpp.cpp ****     sem_open(&myHandle, init);
 805              		.loc 2 51 39 is_stmt 0
 806 0350 97070000 		lla	a5,_ZTV9Semaphore+16
 806      93870700 
 807 0358 2330F500 		sd	a5,0(a0)
GAS LISTING /tmp/ccMYxqV9.s 			page 19


  52:src/syscall_cpp.cpp **** }
 808              		.loc 2 52 5 is_stmt 1
  52:src/syscall_cpp.cpp **** }
 809              		.loc 2 52 13 is_stmt 0
 810 035c 13058500 		addi	a0,a0,8
 811              	.LVL55:
 812 0360 97000000 		call	_Z8sem_openPP11mySemaphorej
 812      E7800000 
 813              	.LVL56:
 814              	.LBE22:
  53:src/syscall_cpp.cpp **** 
 815              		.loc 2 53 1
 816 0368 83308100 		ld	ra,8(sp)
 817              		.cfi_restore 1
 818 036c 03340100 		ld	s0,0(sp)
 819              		.cfi_restore 8
 820              		.cfi_def_cfa 2, 16
 821 0370 13010101 		addi	sp,sp,16
 822              		.cfi_def_cfa_offset 0
 823 0374 67800000 		jr	ra
 824              		.cfi_endproc
 825              	.LFE37:
 827              		.globl	_ZN9SemaphoreC1Ej
 828              		.set	_ZN9SemaphoreC1Ej,_ZN9SemaphoreC2Ej
 829              		.align	2
 830              		.globl	_ZN9Semaphore4waitEv
 832              	_ZN9Semaphore4waitEv:
 833              	.LFB43:
  59:src/syscall_cpp.cpp ****     return sem_wait(myHandle);
 834              		.loc 2 59 23 is_stmt 1
 835              		.cfi_startproc
 836              	.LVL57:
 837 0378 130101FF 		addi	sp,sp,-16
 838              		.cfi_def_cfa_offset 16
 839 037c 23341100 		sd	ra,8(sp)
 840 0380 23308100 		sd	s0,0(sp)
 841              		.cfi_offset 1, -8
 842              		.cfi_offset 8, -16
 843 0384 13040101 		addi	s0,sp,16
 844              		.cfi_def_cfa 8, 0
  60:src/syscall_cpp.cpp **** }
 845              		.loc 2 60 5
  60:src/syscall_cpp.cpp **** }
 846              		.loc 2 60 20 is_stmt 0
 847 0388 03358500 		ld	a0,8(a0)
 848              	.LVL58:
 849 038c 97000000 		call	_Z8sem_waitP11mySemaphore
 849      E7800000 
 850              	.LVL59:
  61:src/syscall_cpp.cpp **** 
 851              		.loc 2 61 1
 852 0394 83308100 		ld	ra,8(sp)
 853              		.cfi_restore 1
 854 0398 03340100 		ld	s0,0(sp)
 855              		.cfi_restore 8
 856              		.cfi_def_cfa 2, 16
 857 039c 13010101 		addi	sp,sp,16
GAS LISTING /tmp/ccMYxqV9.s 			page 20


 858              		.cfi_def_cfa_offset 0
 859 03a0 67800000 		jr	ra
 860              		.cfi_endproc
 861              	.LFE43:
 863              		.align	2
 864              		.globl	_ZN9Semaphore6signalEv
 866              	_ZN9Semaphore6signalEv:
 867              	.LFB44:
  63:src/syscall_cpp.cpp ****     return sem_signal(myHandle);
 868              		.loc 2 63 25 is_stmt 1
 869              		.cfi_startproc
 870              	.LVL60:
 871 03a4 130101FF 		addi	sp,sp,-16
 872              		.cfi_def_cfa_offset 16
 873 03a8 23341100 		sd	ra,8(sp)
 874 03ac 23308100 		sd	s0,0(sp)
 875              		.cfi_offset 1, -8
 876              		.cfi_offset 8, -16
 877 03b0 13040101 		addi	s0,sp,16
 878              		.cfi_def_cfa 8, 0
  64:src/syscall_cpp.cpp **** }
 879              		.loc 2 64 5
  64:src/syscall_cpp.cpp **** }
 880              		.loc 2 64 22 is_stmt 0
 881 03b4 03358500 		ld	a0,8(a0)
 882              	.LVL61:
 883 03b8 97000000 		call	_Z10sem_signalP11mySemaphore
 883      E7800000 
 884              	.LVL62:
  65:src/syscall_cpp.cpp **** 
 885              		.loc 2 65 1
 886 03c0 83308100 		ld	ra,8(sp)
 887              		.cfi_restore 1
 888 03c4 03340100 		ld	s0,0(sp)
 889              		.cfi_restore 8
 890              		.cfi_def_cfa 2, 16
 891 03c8 13010101 		addi	sp,sp,16
 892              		.cfi_def_cfa_offset 0
 893 03cc 67800000 		jr	ra
 894              		.cfi_endproc
 895              	.LFE44:
 897              		.align	2
 898              		.globl	_ZN9Semaphore9timedWaitEm
 900              	_ZN9Semaphore9timedWaitEm:
 901              	.LFB45:
  67:src/syscall_cpp.cpp ****     return sem_timedwait(myHandle, time);
 902              		.loc 2 67 39 is_stmt 1
 903              		.cfi_startproc
 904              	.LVL63:
 905 03d0 130101FF 		addi	sp,sp,-16
 906              		.cfi_def_cfa_offset 16
 907 03d4 23341100 		sd	ra,8(sp)
 908 03d8 23308100 		sd	s0,0(sp)
 909              		.cfi_offset 1, -8
 910              		.cfi_offset 8, -16
 911 03dc 13040101 		addi	s0,sp,16
 912              		.cfi_def_cfa 8, 0
GAS LISTING /tmp/ccMYxqV9.s 			page 21


  68:src/syscall_cpp.cpp **** }
 913              		.loc 2 68 5
  68:src/syscall_cpp.cpp **** }
 914              		.loc 2 68 25 is_stmt 0
 915 03e0 03358500 		ld	a0,8(a0)
 916              	.LVL64:
 917 03e4 97000000 		call	_Z13sem_timedwaitP11mySemaphorem
 917      E7800000 
 918              	.LVL65:
  69:src/syscall_cpp.cpp **** 
 919              		.loc 2 69 1
 920 03ec 83308100 		ld	ra,8(sp)
 921              		.cfi_restore 1
 922 03f0 03340100 		ld	s0,0(sp)
 923              		.cfi_restore 8
 924              		.cfi_def_cfa 2, 16
 925 03f4 13010101 		addi	sp,sp,16
 926              		.cfi_def_cfa_offset 0
 927 03f8 67800000 		jr	ra
 928              		.cfi_endproc
 929              	.LFE45:
 931              		.align	2
 932              		.globl	_ZN9Semaphore7tryWaitEv
 934              	_ZN9Semaphore7tryWaitEv:
 935              	.LFB46:
  71:src/syscall_cpp.cpp ****     return sem_trywait(myHandle);
 936              		.loc 2 71 26 is_stmt 1
 937              		.cfi_startproc
 938              	.LVL66:
 939 03fc 130101FF 		addi	sp,sp,-16
 940              		.cfi_def_cfa_offset 16
 941 0400 23341100 		sd	ra,8(sp)
 942 0404 23308100 		sd	s0,0(sp)
 943              		.cfi_offset 1, -8
 944              		.cfi_offset 8, -16
 945 0408 13040101 		addi	s0,sp,16
 946              		.cfi_def_cfa 8, 0
  72:src/syscall_cpp.cpp **** }
 947              		.loc 2 72 5
  72:src/syscall_cpp.cpp **** }
 948              		.loc 2 72 23 is_stmt 0
 949 040c 03358500 		ld	a0,8(a0)
 950              	.LVL67:
 951 0410 97000000 		call	_Z11sem_trywaitP11mySemaphore
 951      E7800000 
 952              	.LVL68:
  73:src/syscall_cpp.cpp **** 
 953              		.loc 2 73 1
 954 0418 83308100 		ld	ra,8(sp)
 955              		.cfi_restore 1
 956 041c 03340100 		ld	s0,0(sp)
 957              		.cfi_restore 8
 958              		.cfi_def_cfa 2, 16
 959 0420 13010101 		addi	sp,sp,16
 960              		.cfi_def_cfa_offset 0
 961 0424 67800000 		jr	ra
 962              		.cfi_endproc
GAS LISTING /tmp/ccMYxqV9.s 			page 22


 963              	.LFE46:
 965              		.align	2
 966              		.globl	_ZN14PeriodicThread9terminateEv
 968              	_ZN14PeriodicThread9terminateEv:
 969              	.LFB47:
  76:src/syscall_cpp.cpp ****     period = 0xFFFFFFFF;
 970              		.loc 2 76 34 is_stmt 1
 971              		.cfi_startproc
 972              	.LVL69:
 973 0428 130101FF 		addi	sp,sp,-16
 974              		.cfi_def_cfa_offset 16
 975 042c 23348100 		sd	s0,8(sp)
 976              		.cfi_offset 8, -8
 977 0430 13040101 		addi	s0,sp,16
 978              		.cfi_def_cfa 8, 0
  77:src/syscall_cpp.cpp **** }
 979              		.loc 2 77 5
  77:src/syscall_cpp.cpp **** }
 980              		.loc 2 77 12 is_stmt 0
 981 0434 9307F0FF 		li	a5,-1
 982 0438 93D70702 		srli	a5,a5,32
 983 043c 2330F502 		sd	a5,32(a0)
  78:src/syscall_cpp.cpp **** 
 984              		.loc 2 78 1
 985 0440 03348100 		ld	s0,8(sp)
 986              		.cfi_restore 8
 987              		.cfi_def_cfa 2, 16
 988 0444 13010101 		addi	sp,sp,16
 989              		.cfi_def_cfa_offset 0
 990 0448 67800000 		jr	ra
 991              		.cfi_endproc
 992              	.LFE47:
 994              		.align	2
 995              		.globl	_ZN14PeriodicThreadC2Em
 997              	_ZN14PeriodicThreadC2Em:
 998              	.LFB52:
  86:src/syscall_cpp.cpp **** 
 999              		.loc 2 86 1 is_stmt 1
 1000              		.cfi_startproc
 1001              	.LVL70:
 1002 044c 130101FE 		addi	sp,sp,-32
 1003              		.cfi_def_cfa_offset 32
 1004 0450 233C1100 		sd	ra,24(sp)
 1005 0454 23388100 		sd	s0,16(sp)
 1006 0458 23349100 		sd	s1,8(sp)
 1007 045c 23302101 		sd	s2,0(sp)
 1008              		.cfi_offset 1, -8
 1009              		.cfi_offset 8, -16
 1010              		.cfi_offset 9, -24
 1011              		.cfi_offset 18, -32
 1012 0460 13040102 		addi	s0,sp,32
 1013              		.cfi_def_cfa 8, 0
 1014 0464 93040500 		mv	s1,a0
 1015 0468 13890500 		mv	s2,a1
 1016              	.LBB23:
  86:src/syscall_cpp.cpp **** 
 1017              		.loc 2 86 115 is_stmt 0
GAS LISTING /tmp/ccMYxqV9.s 			page 23


 1018 046c 13050001 		li	a0,16
 1019              	.LVL71:
 1020 0470 97000000 		call	_Znwm
 1020      E7800000 
 1021              	.LVL72:
 1022 0478 13060500 		mv	a2,a0
 1023              	.LVL73:
 1024              	.LBB24:
 1025              	.LBB25:
  83:src/syscall_cpp.cpp **** };
 1026              		.loc 2 83 75
 1027 047c 23302501 		sd	s2,0(a0)
 1028 0480 23349500 		sd	s1,8(a0)
 1029              	.LVL74:
 1030              	.LBE25:
 1031              	.LBE24:
  86:src/syscall_cpp.cpp **** 
 1032              		.loc 2 86 132
 1033 0484 97050000 		lla	a1,_ZN14PeriodicThread12startWrapperEPv
 1033      93850500 
 1034 048c 13850400 		mv	a0,s1
 1035 0490 97000000 		call	_ZN6ThreadC2EPFvPvES0_
 1035      E7800000 
 1036              	.LVL75:
 1037 0498 97070000 		lla	a5,_ZTV14PeriodicThread+16
 1037      93870700 
 1038 04a0 23B0F400 		sd	a5,0(s1)
 1039 04a4 23B02403 		sd	s2,32(s1)
 1040              	.LBE23:
  86:src/syscall_cpp.cpp **** 
 1041              		.loc 2 86 135
 1042 04a8 83308101 		ld	ra,24(sp)
 1043              		.cfi_restore 1
 1044 04ac 03340101 		ld	s0,16(sp)
 1045              		.cfi_restore 8
 1046              		.cfi_def_cfa 2, 32
 1047 04b0 83348100 		ld	s1,8(sp)
 1048              		.cfi_restore 9
 1049              	.LVL76:
 1050 04b4 03390100 		ld	s2,0(sp)
 1051              		.cfi_restore 18
 1052              	.LVL77:
 1053 04b8 13010102 		addi	sp,sp,32
 1054              		.cfi_def_cfa_offset 0
 1055 04bc 67800000 		jr	ra
 1056              		.cfi_endproc
 1057              	.LFE52:
 1059              		.globl	_ZN14PeriodicThreadC1Em
 1060              		.set	_ZN14PeriodicThreadC1Em,_ZN14PeriodicThreadC2Em
 1061              		.align	2
 1062              		.globl	_ZN7Console4getcEv
 1064              	_ZN7Console4getcEv:
 1065              	.LFB55:
 100:src/syscall_cpp.cpp **** 
 101:src/syscall_cpp.cpp **** char Console::getc() {
 1066              		.loc 2 101 22 is_stmt 1
 1067              		.cfi_startproc
GAS LISTING /tmp/ccMYxqV9.s 			page 24


 1068 04c0 130101FF 		addi	sp,sp,-16
 1069              		.cfi_def_cfa_offset 16
 1070 04c4 23341100 		sd	ra,8(sp)
 1071 04c8 23308100 		sd	s0,0(sp)
 1072              		.cfi_offset 1, -8
 1073              		.cfi_offset 8, -16
 1074 04cc 13040101 		addi	s0,sp,16
 1075              		.cfi_def_cfa 8, 0
 102:src/syscall_cpp.cpp ****     return ::getc();            //from C_API
 1076              		.loc 2 102 5
 1077              		.loc 2 102 18 is_stmt 0
 1078 04d0 97000000 		call	_Z4getcv
 1078      E7800000 
 1079              	.LVL78:
 103:src/syscall_cpp.cpp **** }
 1080              		.loc 2 103 1
 1081 04d8 83308100 		ld	ra,8(sp)
 1082              		.cfi_restore 1
 1083 04dc 03340100 		ld	s0,0(sp)
 1084              		.cfi_restore 8
 1085              		.cfi_def_cfa 2, 16
 1086 04e0 13010101 		addi	sp,sp,16
 1087              		.cfi_def_cfa_offset 0
 1088 04e4 67800000 		jr	ra
 1089              		.cfi_endproc
 1090              	.LFE55:
 1092              		.align	2
 1093              		.globl	_ZN7Console4putcEc
 1095              	_ZN7Console4putcEc:
 1096              	.LFB56:
 104:src/syscall_cpp.cpp **** 
 105:src/syscall_cpp.cpp **** void Console::putc(char c) {
 1097              		.loc 2 105 28 is_stmt 1
 1098              		.cfi_startproc
 1099              	.LVL79:
 1100 04e8 130101FF 		addi	sp,sp,-16
 1101              		.cfi_def_cfa_offset 16
 1102 04ec 23341100 		sd	ra,8(sp)
 1103 04f0 23308100 		sd	s0,0(sp)
 1104              		.cfi_offset 1, -8
 1105              		.cfi_offset 8, -16
 1106 04f4 13040101 		addi	s0,sp,16
 1107              		.cfi_def_cfa 8, 0
 106:src/syscall_cpp.cpp ****     ::putc(c);                  //from C_API
 1108              		.loc 2 106 5
 1109              		.loc 2 106 11 is_stmt 0
 1110 04f8 97000000 		call	_Z4putcc
 1110      E7800000 
 1111              	.LVL80:
 107:src/syscall_cpp.cpp **** }
 1112              		.loc 2 107 1
 1113 0500 83308100 		ld	ra,8(sp)
 1114              		.cfi_restore 1
 1115 0504 03340100 		ld	s0,0(sp)
 1116              		.cfi_restore 8
 1117              		.cfi_def_cfa 2, 16
 1118 0508 13010101 		addi	sp,sp,16
GAS LISTING /tmp/ccMYxqV9.s 			page 25


 1119              		.cfi_def_cfa_offset 0
 1120 050c 67800000 		jr	ra
 1121              		.cfi_endproc
 1122              	.LFE56:
 1124              		.weak	_ZTV14PeriodicThread
 1125              		.section	.rodata._ZTV14PeriodicThread,"aG",@progbits,_ZTV14PeriodicThread,comdat
 1126              		.align	3
 1129              	_ZTV14PeriodicThread:
 1130 0000 00000000 		.dword	0
 1130      00000000 
 1131 0008 00000000 		.dword	0
 1131      00000000 
 1132 0010 00000000 		.dword	_ZN14PeriodicThreadD1Ev
 1132      00000000 
 1133 0018 00000000 		.dword	_ZN14PeriodicThreadD0Ev
 1133      00000000 
 1134 0020 00000000 		.dword	_ZN6Thread3runEv
 1134      00000000 
 1135 0028 00000000 		.dword	_ZN14PeriodicThread18periodicActivationEv
 1135      00000000 
 1136              		.weak	_ZTV6Thread
 1137              		.section	.rodata._ZTV6Thread,"aG",@progbits,_ZTV6Thread,comdat
 1138              		.align	3
 1141              	_ZTV6Thread:
 1142 0000 00000000 		.dword	0
 1142      00000000 
 1143 0008 00000000 		.dword	0
 1143      00000000 
 1144 0010 00000000 		.dword	_ZN6ThreadD1Ev
 1144      00000000 
 1145 0018 00000000 		.dword	_ZN6ThreadD0Ev
 1145      00000000 
 1146 0020 00000000 		.dword	_ZN6Thread3runEv
 1146      00000000 
 1147              		.weak	_ZTV9Semaphore
 1148              		.section	.rodata._ZTV9Semaphore,"aG",@progbits,_ZTV9Semaphore,comdat
 1149              		.align	3
 1152              	_ZTV9Semaphore:
 1153 0000 00000000 		.dword	0
 1153      00000000 
 1154 0008 00000000 		.dword	0
 1154      00000000 
 1155 0010 00000000 		.dword	_ZN9SemaphoreD1Ev
 1155      00000000 
 1156 0018 00000000 		.dword	_ZN9SemaphoreD0Ev
 1156      00000000 
 1157              		.text
 1158              	.Letext0:
 1159              		.file 4 "src/../h/../h/../h/../lib/hw.h"
 1160              		.file 5 "src/../h/../h/../h/list.hpp"
 1161              		.file 6 "src/../h/../h/Semaphore.hpp"
 1162              		.file 7 "src/../h/syscall_c.hpp"
 6136              		.align	3
 6139              	DW.ref.__gxx_personality_v0:
 6140 0000 00000000 		.dword	__gxx_personality_v0
 6140      00000000 
 6141              		.ident	"GCC: () 9.3.0"
GAS LISTING /tmp/ccMYxqV9.s 			page 26


GAS LISTING /tmp/ccMYxqV9.s 			page 27


DEFINED SYMBOLS
                            *ABS*:0000000000000000 syscall_cpp.cpp
     /tmp/ccMYxqV9.s:13     .text._ZN6Thread3runEv:0000000000000000 _ZN6Thread3runEv
     /tmp/ccMYxqV9.s:17     .text._ZN6Thread3runEv:0000000000000000 .L0 
     /tmp/ccMYxqV9.s:19     .text._ZN6Thread3runEv:0000000000000000 .L0 
     /tmp/ccMYxqV9.s:20     .text._ZN6Thread3runEv:0000000000000004 .L0 
     /tmp/ccMYxqV9.s:22     .text._ZN6Thread3runEv:0000000000000008 .L0 
     /tmp/ccMYxqV9.s:24     .text._ZN6Thread3runEv:000000000000000c .L0 
     /tmp/ccMYxqV9.s:26     .text._ZN6Thread3runEv:000000000000000c .L0 
     /tmp/ccMYxqV9.s:27     .text._ZN6Thread3runEv:0000000000000010 .L0 
     /tmp/ccMYxqV9.s:28     .text._ZN6Thread3runEv:0000000000000010 .L0 
     /tmp/ccMYxqV9.s:30     .text._ZN6Thread3runEv:0000000000000014 .L0 
     /tmp/ccMYxqV9.s:32     .text._ZN6Thread3runEv:0000000000000018 .L0 
     /tmp/ccMYxqV9.s:39     .text._ZN14PeriodicThread18periodicActivationEv:0000000000000000 _ZN14PeriodicThread18periodicActivationEv
     /tmp/ccMYxqV9.s:42     .text._ZN14PeriodicThread18periodicActivationEv:0000000000000000 .L0 
     /tmp/ccMYxqV9.s:44     .text._ZN14PeriodicThread18periodicActivationEv:0000000000000000 .L0 
     /tmp/ccMYxqV9.s:45     .text._ZN14PeriodicThread18periodicActivationEv:0000000000000004 .L0 
     /tmp/ccMYxqV9.s:47     .text._ZN14PeriodicThread18periodicActivationEv:0000000000000008 .L0 
     /tmp/ccMYxqV9.s:49     .text._ZN14PeriodicThread18periodicActivationEv:000000000000000c .L0 
     /tmp/ccMYxqV9.s:51     .text._ZN14PeriodicThread18periodicActivationEv:000000000000000c .L0 
     /tmp/ccMYxqV9.s:52     .text._ZN14PeriodicThread18periodicActivationEv:0000000000000010 .L0 
     /tmp/ccMYxqV9.s:53     .text._ZN14PeriodicThread18periodicActivationEv:0000000000000010 .L0 
     /tmp/ccMYxqV9.s:55     .text._ZN14PeriodicThread18periodicActivationEv:0000000000000014 .L0 
     /tmp/ccMYxqV9.s:57     .text._ZN14PeriodicThread18periodicActivationEv:0000000000000018 .L0 
     /tmp/ccMYxqV9.s:64     .text:0000000000000000 _ZN6Thread12startWrapperEPv
     /tmp/ccMYxqV9.s:68     .text:0000000000000000 .L0 
     /tmp/ccMYxqV9.s:70     .text:0000000000000000 .L0 
     /tmp/ccMYxqV9.s:71     .text:0000000000000004 .L0 
     /tmp/ccMYxqV9.s:74     .text:000000000000000c .L0 
     /tmp/ccMYxqV9.s:75     .text:000000000000000c .L0 
     /tmp/ccMYxqV9.s:77     .text:0000000000000010 .L0 
     /tmp/ccMYxqV9.s:80     .text:0000000000000010 .L0 
     /tmp/ccMYxqV9.s:81     .text:0000000000000010 .L0 
     /tmp/ccMYxqV9.s:82     .text:0000000000000010 .L0 
     /tmp/ccMYxqV9.s:85     .text:0000000000000018 .L0 
     /tmp/ccMYxqV9.s:88     .text:000000000000001c .L0 
     /tmp/ccMYxqV9.s:89     .text:0000000000000020 .L0 
     /tmp/ccMYxqV9.s:91     .text:0000000000000024 .L0 
     /tmp/ccMYxqV9.s:92     .text:0000000000000024 .L0 
     /tmp/ccMYxqV9.s:94     .text:0000000000000028 .L0 
     /tmp/ccMYxqV9.s:96     .text:000000000000002c .L0 
     /tmp/ccMYxqV9.s:102    .text:000000000000002c _ZN9SemaphoreD2Ev
     /tmp/ccMYxqV9.s:105    .text:000000000000002c .L0 
     /tmp/ccMYxqV9.s:6139   .sdata.DW.ref.__gxx_personality_v0:0000000000000000 DW.ref.__gxx_personality_v0
     /tmp/ccMYxqV9.s:109    .text:000000000000002c .L0 
     /tmp/ccMYxqV9.s:110    .text:0000000000000030 .L0 
     /tmp/ccMYxqV9.s:113    .text:0000000000000038 .L0 
     /tmp/ccMYxqV9.s:114    .text:0000000000000038 .L0 
     /tmp/ccMYxqV9.s:116    .text:000000000000003c .L0 
     /tmp/ccMYxqV9.s:1152   .rodata._ZTV9Semaphore:0000000000000000 _ZTV9Semaphore
     /tmp/ccMYxqV9.s:119    .text:000000000000003c .L0 
     /tmp/ccMYxqV9.s:122    .text:0000000000000048 .L0 
     /tmp/ccMYxqV9.s:123    .text:0000000000000048 .L0 
     /tmp/ccMYxqV9.s:129    .text:0000000000000054 .L0 
     /tmp/ccMYxqV9.s:130    .text:0000000000000058 .L0 
     /tmp/ccMYxqV9.s:132    .text:000000000000005c .L0 
     /tmp/ccMYxqV9.s:133    .text:000000000000005c .L0 
GAS LISTING /tmp/ccMYxqV9.s 			page 28


     /tmp/ccMYxqV9.s:135    .text:0000000000000060 .L0 
     /tmp/ccMYxqV9.s:137    .text:0000000000000064 .L0 
     /tmp/ccMYxqV9.s:102    .text:000000000000002c _ZN9SemaphoreD1Ev
     /tmp/ccMYxqV9.s:153    .text:0000000000000064 _Znwm
     /tmp/ccMYxqV9.s:156    .text:0000000000000064 .L0 
     /tmp/ccMYxqV9.s:158    .text:0000000000000064 .L0 
     /tmp/ccMYxqV9.s:159    .text:0000000000000068 .L0 
     /tmp/ccMYxqV9.s:162    .text:0000000000000070 .L0 
     /tmp/ccMYxqV9.s:163    .text:0000000000000070 .L0 
     /tmp/ccMYxqV9.s:165    .text:0000000000000074 .L0 
     /tmp/ccMYxqV9.s:167    .text:0000000000000074 .L0 
     /tmp/ccMYxqV9.s:168    .text:0000000000000074 .L0 
     /tmp/ccMYxqV9.s:171    .text:000000000000007c .L0 
     /tmp/ccMYxqV9.s:172    .text:0000000000000080 .L0 
     /tmp/ccMYxqV9.s:174    .text:0000000000000084 .L0 
     /tmp/ccMYxqV9.s:175    .text:0000000000000084 .L0 
     /tmp/ccMYxqV9.s:177    .text:0000000000000088 .L0 
     /tmp/ccMYxqV9.s:179    .text:000000000000008c .L0 
     /tmp/ccMYxqV9.s:185    .text:000000000000008c _Znam
     /tmp/ccMYxqV9.s:188    .text:000000000000008c .L0 
     /tmp/ccMYxqV9.s:190    .text:000000000000008c .L0 
     /tmp/ccMYxqV9.s:191    .text:0000000000000090 .L0 
     /tmp/ccMYxqV9.s:194    .text:0000000000000098 .L0 
     /tmp/ccMYxqV9.s:195    .text:0000000000000098 .L0 
     /tmp/ccMYxqV9.s:197    .text:000000000000009c .L0 
     /tmp/ccMYxqV9.s:199    .text:000000000000009c .L0 
     /tmp/ccMYxqV9.s:200    .text:000000000000009c .L0 
     /tmp/ccMYxqV9.s:203    .text:00000000000000a4 .L0 
     /tmp/ccMYxqV9.s:204    .text:00000000000000a8 .L0 
     /tmp/ccMYxqV9.s:206    .text:00000000000000ac .L0 
     /tmp/ccMYxqV9.s:207    .text:00000000000000ac .L0 
     /tmp/ccMYxqV9.s:209    .text:00000000000000b0 .L0 
     /tmp/ccMYxqV9.s:211    .text:00000000000000b4 .L0 
     /tmp/ccMYxqV9.s:217    .text:00000000000000b4 _ZdlPv
     /tmp/ccMYxqV9.s:220    .text:00000000000000b4 .L0 
     /tmp/ccMYxqV9.s:224    .text:00000000000000b4 .L0 
     /tmp/ccMYxqV9.s:225    .text:00000000000000b8 .L0 
     /tmp/ccMYxqV9.s:228    .text:00000000000000c0 .L0 
     /tmp/ccMYxqV9.s:229    .text:00000000000000c0 .L0 
     /tmp/ccMYxqV9.s:231    .text:00000000000000c4 .L0 
     /tmp/ccMYxqV9.s:233    .text:00000000000000c4 .L0 
     /tmp/ccMYxqV9.s:234    .text:00000000000000c4 .L0 
     /tmp/ccMYxqV9.s:237    .text:00000000000000cc .L0 
     /tmp/ccMYxqV9.s:238    .text:00000000000000d0 .L0 
     /tmp/ccMYxqV9.s:240    .text:00000000000000d4 .L0 
     /tmp/ccMYxqV9.s:241    .text:00000000000000d4 .L0 
     /tmp/ccMYxqV9.s:243    .text:00000000000000d8 .L0 
     /tmp/ccMYxqV9.s:245    .text:00000000000000dc .L0 
     /tmp/ccMYxqV9.s:258    .text:00000000000000dc _ZN9SemaphoreD0Ev
     /tmp/ccMYxqV9.s:261    .text:00000000000000dc .L0 
     /tmp/ccMYxqV9.s:263    .text:00000000000000dc .L0 
     /tmp/ccMYxqV9.s:264    .text:00000000000000e0 .L0 
     /tmp/ccMYxqV9.s:268    .text:00000000000000ec .L0 
     /tmp/ccMYxqV9.s:269    .text:00000000000000ec .L0 
     /tmp/ccMYxqV9.s:270    .text:00000000000000ec .L0 
     /tmp/ccMYxqV9.s:272    .text:00000000000000f0 .L0 
     /tmp/ccMYxqV9.s:275    .text:00000000000000f4 .L0 
GAS LISTING /tmp/ccMYxqV9.s 			page 29


     /tmp/ccMYxqV9.s:281    .text:000000000000010c .L0 
     /tmp/ccMYxqV9.s:283    .text:0000000000000110 .L0 
     /tmp/ccMYxqV9.s:284    .text:0000000000000110 .L0 
     /tmp/ccMYxqV9.s:286    .text:0000000000000114 .L0 
     /tmp/ccMYxqV9.s:289    .text:0000000000000118 .L0 
     /tmp/ccMYxqV9.s:291    .text:000000000000011c .L0 
     /tmp/ccMYxqV9.s:297    .text:000000000000011c _ZdaPv
     /tmp/ccMYxqV9.s:300    .text:000000000000011c .L0 
     /tmp/ccMYxqV9.s:304    .text:000000000000011c .L0 
     /tmp/ccMYxqV9.s:305    .text:0000000000000120 .L0 
     /tmp/ccMYxqV9.s:308    .text:0000000000000128 .L0 
     /tmp/ccMYxqV9.s:309    .text:0000000000000128 .L0 
     /tmp/ccMYxqV9.s:311    .text:000000000000012c .L0 
     /tmp/ccMYxqV9.s:313    .text:000000000000012c .L0 
     /tmp/ccMYxqV9.s:314    .text:000000000000012c .L0 
     /tmp/ccMYxqV9.s:317    .text:0000000000000134 .L0 
     /tmp/ccMYxqV9.s:318    .text:0000000000000138 .L0 
     /tmp/ccMYxqV9.s:320    .text:000000000000013c .L0 
     /tmp/ccMYxqV9.s:321    .text:000000000000013c .L0 
     /tmp/ccMYxqV9.s:323    .text:0000000000000140 .L0 
     /tmp/ccMYxqV9.s:325    .text:0000000000000144 .L0 
     /tmp/ccMYxqV9.s:338    .text:0000000000000144 _ZN6ThreadD2Ev
     /tmp/ccMYxqV9.s:341    .text:0000000000000144 .L0 
     /tmp/ccMYxqV9.s:345    .text:0000000000000144 .L0 
     /tmp/ccMYxqV9.s:346    .text:0000000000000148 .L0 
     /tmp/ccMYxqV9.s:350    .text:0000000000000154 .L0 
     /tmp/ccMYxqV9.s:351    .text:0000000000000154 .L0 
     /tmp/ccMYxqV9.s:352    .text:0000000000000154 .L0 
     /tmp/ccMYxqV9.s:354    .text:0000000000000158 .L0 
     /tmp/ccMYxqV9.s:1141   .rodata._ZTV6Thread:0000000000000000 _ZTV6Thread
     /tmp/ccMYxqV9.s:357    .text:0000000000000158 .L0 
     /tmp/ccMYxqV9.s:360    .text:0000000000000164 .L0 
     /tmp/ccMYxqV9.s:361    .text:0000000000000164 .L0 
     /tmp/ccMYxqV9.s:363    .text:0000000000000168 .L0 
     /tmp/ccMYxqV9.s:369    .text:000000000000016c .L0 
     /tmp/ccMYxqV9.s:370    .text:000000000000016c .L0 
     /tmp/ccMYxqV9.s:373    .text:0000000000000170 .L0 
     /tmp/ccMYxqV9.s:375    .text:0000000000000174 .L0 
     /tmp/ccMYxqV9.s:381    .text:000000000000017c .L0 
     /tmp/ccMYxqV9.s:387    .text:0000000000000188 .L0 
     /tmp/ccMYxqV9.s:388    .text:000000000000018c .L0 
     /tmp/ccMYxqV9.s:390    .text:0000000000000190 .L0 
     /tmp/ccMYxqV9.s:391    .text:0000000000000190 .L0 
     /tmp/ccMYxqV9.s:393    .text:0000000000000194 .L0 
     /tmp/ccMYxqV9.s:395    .text:0000000000000198 .L0 
     /tmp/ccMYxqV9.s:397    .text:000000000000019c .L0 
     /tmp/ccMYxqV9.s:338    .text:0000000000000144 _ZN6ThreadD1Ev
     /tmp/ccMYxqV9.s:412    .text:000000000000019c _ZN6ThreadD0Ev
     /tmp/ccMYxqV9.s:415    .text:000000000000019c .L0 
     /tmp/ccMYxqV9.s:417    .text:000000000000019c .L0 
     /tmp/ccMYxqV9.s:418    .text:00000000000001a0 .L0 
     /tmp/ccMYxqV9.s:422    .text:00000000000001ac .L0 
     /tmp/ccMYxqV9.s:423    .text:00000000000001ac .L0 
     /tmp/ccMYxqV9.s:424    .text:00000000000001ac .L0 
     /tmp/ccMYxqV9.s:426    .text:00000000000001b0 .L0 
     /tmp/ccMYxqV9.s:429    .text:00000000000001b4 .L0 
     /tmp/ccMYxqV9.s:435    .text:00000000000001cc .L0 
GAS LISTING /tmp/ccMYxqV9.s 			page 30


     /tmp/ccMYxqV9.s:437    .text:00000000000001d0 .L0 
     /tmp/ccMYxqV9.s:438    .text:00000000000001d0 .L0 
     /tmp/ccMYxqV9.s:440    .text:00000000000001d4 .L0 
     /tmp/ccMYxqV9.s:443    .text:00000000000001d8 .L0 
     /tmp/ccMYxqV9.s:445    .text:00000000000001dc .L0 
     /tmp/ccMYxqV9.s:452    .text._ZN14PeriodicThreadD2Ev:0000000000000000 _ZN14PeriodicThreadD2Ev
     /tmp/ccMYxqV9.s:455    .text._ZN14PeriodicThreadD2Ev:0000000000000000 .L0 
     /tmp/ccMYxqV9.s:457    .text._ZN14PeriodicThreadD2Ev:0000000000000000 .L0 
     /tmp/ccMYxqV9.s:458    .text._ZN14PeriodicThreadD2Ev:0000000000000004 .L0 
     /tmp/ccMYxqV9.s:461    .text._ZN14PeriodicThreadD2Ev:000000000000000c .L0 
     /tmp/ccMYxqV9.s:462    .text._ZN14PeriodicThreadD2Ev:000000000000000c .L0 
     /tmp/ccMYxqV9.s:464    .text._ZN14PeriodicThreadD2Ev:0000000000000010 .L0 
     /tmp/ccMYxqV9.s:1129   .rodata._ZTV14PeriodicThread:0000000000000000 _ZTV14PeriodicThread
     /tmp/ccMYxqV9.s:467    .text._ZN14PeriodicThreadD2Ev:0000000000000010 .L0 
     /tmp/ccMYxqV9.s:473    .text._ZN14PeriodicThreadD2Ev:0000000000000028 .L0 
     /tmp/ccMYxqV9.s:475    .text._ZN14PeriodicThreadD2Ev:000000000000002c .L0 
     /tmp/ccMYxqV9.s:476    .text._ZN14PeriodicThreadD2Ev:000000000000002c .L0 
     /tmp/ccMYxqV9.s:478    .text._ZN14PeriodicThreadD2Ev:0000000000000030 .L0 
     /tmp/ccMYxqV9.s:480    .text._ZN14PeriodicThreadD2Ev:0000000000000034 .L0 
     /tmp/ccMYxqV9.s:452    .text._ZN14PeriodicThreadD2Ev:0000000000000000 _ZN14PeriodicThreadD1Ev
     /tmp/ccMYxqV9.s:489    .text._ZN14PeriodicThreadD0Ev:0000000000000000 _ZN14PeriodicThreadD0Ev
     /tmp/ccMYxqV9.s:492    .text._ZN14PeriodicThreadD0Ev:0000000000000000 .L0 
     /tmp/ccMYxqV9.s:494    .text._ZN14PeriodicThreadD0Ev:0000000000000000 .L0 
     /tmp/ccMYxqV9.s:495    .text._ZN14PeriodicThreadD0Ev:0000000000000004 .L0 
     /tmp/ccMYxqV9.s:499    .text._ZN14PeriodicThreadD0Ev:0000000000000010 .L0 
     /tmp/ccMYxqV9.s:500    .text._ZN14PeriodicThreadD0Ev:0000000000000010 .L0 
     /tmp/ccMYxqV9.s:501    .text._ZN14PeriodicThreadD0Ev:0000000000000010 .L0 
     /tmp/ccMYxqV9.s:503    .text._ZN14PeriodicThreadD0Ev:0000000000000014 .L0 
     /tmp/ccMYxqV9.s:509    .text._ZN14PeriodicThreadD0Ev:0000000000000018 .L0 
     /tmp/ccMYxqV9.s:519    .text._ZN14PeriodicThreadD0Ev:000000000000003c .L0 
     /tmp/ccMYxqV9.s:521    .text._ZN14PeriodicThreadD0Ev:0000000000000040 .L0 
     /tmp/ccMYxqV9.s:522    .text._ZN14PeriodicThreadD0Ev:0000000000000040 .L0 
     /tmp/ccMYxqV9.s:524    .text._ZN14PeriodicThreadD0Ev:0000000000000044 .L0 
     /tmp/ccMYxqV9.s:527    .text._ZN14PeriodicThreadD0Ev:0000000000000048 .L0 
     /tmp/ccMYxqV9.s:529    .text._ZN14PeriodicThreadD0Ev:000000000000004c .L0 
     /tmp/ccMYxqV9.s:536    .text:00000000000001dc _ZN6ThreadC2EPFvPvES0_
     /tmp/ccMYxqV9.s:539    .text:00000000000001dc .L0 
     /tmp/ccMYxqV9.s:541    .text:00000000000001dc .L0 
     /tmp/ccMYxqV9.s:542    .text:00000000000001e0 .L0 
     /tmp/ccMYxqV9.s:544    .text:00000000000001e4 .L0 
     /tmp/ccMYxqV9.s:546    .text:00000000000001e8 .L0 
     /tmp/ccMYxqV9.s:549    .text:00000000000001e8 .L0 
     /tmp/ccMYxqV9.s:555    .text:00000000000001fc .L0 
     /tmp/ccMYxqV9.s:556    .text:0000000000000200 .L0 
     /tmp/ccMYxqV9.s:557    .text:0000000000000200 .L0 
     /tmp/ccMYxqV9.s:559    .text:0000000000000204 .L0 
     /tmp/ccMYxqV9.s:561    .text:0000000000000208 .L0 
     /tmp/ccMYxqV9.s:536    .text:00000000000001dc _ZN6ThreadC1EPFvPvES0_
     /tmp/ccMYxqV9.s:569    .text:0000000000000208 _ZN6Thread5startEv
     /tmp/ccMYxqV9.s:572    .text:0000000000000208 .L0 
     /tmp/ccMYxqV9.s:574    .text:0000000000000208 .L0 
     /tmp/ccMYxqV9.s:575    .text:000000000000020c .L0 
     /tmp/ccMYxqV9.s:578    .text:0000000000000214 .L0 
     /tmp/ccMYxqV9.s:579    .text:0000000000000214 .L0 
     /tmp/ccMYxqV9.s:581    .text:0000000000000218 .L0 
     /tmp/ccMYxqV9.s:583    .text:0000000000000218 .L0 
     /tmp/ccMYxqV9.s:584    .text:0000000000000218 .L0 
GAS LISTING /tmp/ccMYxqV9.s 			page 31


     /tmp/ccMYxqV9.s:586    .text:000000000000021c .L0 
     /tmp/ccMYxqV9.s:588    .text:0000000000000220 .L0 
     /tmp/ccMYxqV9.s:589    .text:0000000000000220 .L0 
     /tmp/ccMYxqV9.s:596    .text:0000000000000230 .L0 
     /tmp/ccMYxqV9.s:597    .text:0000000000000234 .L0 
     /tmp/ccMYxqV9.s:598    .text:0000000000000234 .L0 
     /tmp/ccMYxqV9.s:600    .text:0000000000000238 .L0 
     /tmp/ccMYxqV9.s:601    .text:0000000000000238 .L0 
     /tmp/ccMYxqV9.s:603    .text:000000000000023c .L0 
     /tmp/ccMYxqV9.s:607    .text:0000000000000240 .L0 
     /tmp/ccMYxqV9.s:609    .text:0000000000000240 .L0 
     /tmp/ccMYxqV9.s:610    .text:0000000000000240 .L0 
     /tmp/ccMYxqV9.s:617    .text:0000000000000258 .L0 
     /tmp/ccMYxqV9.s:618    .text:000000000000025c .L0 
     /tmp/ccMYxqV9.s:624    .text:000000000000025c _ZN6Thread8dispatchEv
     /tmp/ccMYxqV9.s:627    .text:000000000000025c .L0 
     /tmp/ccMYxqV9.s:628    .text:000000000000025c .L0 
     /tmp/ccMYxqV9.s:629    .text:0000000000000260 .L0 
     /tmp/ccMYxqV9.s:632    .text:0000000000000268 .L0 
     /tmp/ccMYxqV9.s:633    .text:0000000000000268 .L0 
     /tmp/ccMYxqV9.s:635    .text:000000000000026c .L0 
     /tmp/ccMYxqV9.s:637    .text:000000000000026c .L0 
     /tmp/ccMYxqV9.s:638    .text:000000000000026c .L0 
     /tmp/ccMYxqV9.s:641    .text:0000000000000274 .L0 
     /tmp/ccMYxqV9.s:642    .text:0000000000000278 .L0 
     /tmp/ccMYxqV9.s:644    .text:000000000000027c .L0 
     /tmp/ccMYxqV9.s:645    .text:000000000000027c .L0 
     /tmp/ccMYxqV9.s:647    .text:0000000000000280 .L0 
     /tmp/ccMYxqV9.s:649    .text:0000000000000284 .L0 
     /tmp/ccMYxqV9.s:655    .text:0000000000000284 _ZN6Thread5sleepEm
     /tmp/ccMYxqV9.s:658    .text:0000000000000284 .L0 
     /tmp/ccMYxqV9.s:660    .text:0000000000000284 .L0 
     /tmp/ccMYxqV9.s:661    .text:0000000000000288 .L0 
     /tmp/ccMYxqV9.s:664    .text:0000000000000290 .L0 
     /tmp/ccMYxqV9.s:665    .text:0000000000000290 .L0 
     /tmp/ccMYxqV9.s:667    .text:0000000000000294 .L0 
     /tmp/ccMYxqV9.s:669    .text:0000000000000294 .L0 
     /tmp/ccMYxqV9.s:670    .text:0000000000000294 .L0 
     /tmp/ccMYxqV9.s:673    .text:000000000000029c .L0 
     /tmp/ccMYxqV9.s:674    .text:00000000000002a0 .L0 
     /tmp/ccMYxqV9.s:676    .text:00000000000002a4 .L0 
     /tmp/ccMYxqV9.s:677    .text:00000000000002a4 .L0 
     /tmp/ccMYxqV9.s:679    .text:00000000000002a8 .L0 
     /tmp/ccMYxqV9.s:681    .text:00000000000002ac .L0 
     /tmp/ccMYxqV9.s:687    .text:00000000000002ac _ZN14PeriodicThread12startWrapperEPv
     /tmp/ccMYxqV9.s:690    .text:00000000000002ac .L0 
     /tmp/ccMYxqV9.s:692    .text:00000000000002ac .L0 
     /tmp/ccMYxqV9.s:693    .text:00000000000002b0 .L0 
     /tmp/ccMYxqV9.s:698    .text:00000000000002c0 .L0 
     /tmp/ccMYxqV9.s:699    .text:00000000000002c0 .L0 
     /tmp/ccMYxqV9.s:700    .text:00000000000002c0 .L0 
     /tmp/ccMYxqV9.s:701    .text:00000000000002c0 .L0 
     /tmp/ccMYxqV9.s:703    .text:00000000000002c4 .L0 
     /tmp/ccMYxqV9.s:707    .text:00000000000002c8 .L0 
     /tmp/ccMYxqV9.s:708    .text:00000000000002c8 .L0 
     /tmp/ccMYxqV9.s:709    .text:00000000000002c8 .L0 
     /tmp/ccMYxqV9.s:713    .text:00000000000002cc .L0 
GAS LISTING /tmp/ccMYxqV9.s 			page 32


     /tmp/ccMYxqV9.s:714    .text:00000000000002cc .L0 
     /tmp/ccMYxqV9.s:715    .text:00000000000002cc .L0 
     /tmp/ccMYxqV9.s:717    .text:00000000000002d0 .L0 
     /tmp/ccMYxqV9.s:721    .text:00000000000002dc .L0 
     /tmp/ccMYxqV9.s:722    .text:00000000000002dc .L0 
     /tmp/ccMYxqV9.s:725    .text:00000000000002e4 .L0 
     /tmp/ccMYxqV9.s:729    .text:00000000000002ec .L0 
     /tmp/ccMYxqV9.s:730    .text:00000000000002ec .L0 
     /tmp/ccMYxqV9.s:734    .text:00000000000002f8 .L0 
     /tmp/ccMYxqV9.s:735    .text:00000000000002f8 .L0 
     /tmp/ccMYxqV9.s:738    .text:00000000000002fc .L0 
     /tmp/ccMYxqV9.s:739    .text:0000000000000300 .L0 
     /tmp/ccMYxqV9.s:741    .text:0000000000000304 .L0 
     /tmp/ccMYxqV9.s:742    .text:0000000000000304 .L0 
     /tmp/ccMYxqV9.s:744    .text:0000000000000308 .L0 
     /tmp/ccMYxqV9.s:747    .text:000000000000030c .L0 
     /tmp/ccMYxqV9.s:750    .text:0000000000000310 .L0 
     /tmp/ccMYxqV9.s:752    .text:0000000000000314 .L0 
     /tmp/ccMYxqV9.s:758    .text:0000000000000314 _ZN6ThreadC2Ev
     /tmp/ccMYxqV9.s:761    .text:0000000000000314 .L0 
     /tmp/ccMYxqV9.s:763    .text:0000000000000314 .L0 
     /tmp/ccMYxqV9.s:764    .text:0000000000000318 .L0 
     /tmp/ccMYxqV9.s:766    .text:000000000000031c .L0 
     /tmp/ccMYxqV9.s:768    .text:0000000000000320 .L0 
     /tmp/ccMYxqV9.s:771    .text:0000000000000320 .L0 
     /tmp/ccMYxqV9.s:777    .text:0000000000000334 .L0 
     /tmp/ccMYxqV9.s:778    .text:0000000000000338 .L0 
     /tmp/ccMYxqV9.s:779    .text:0000000000000338 .L0 
     /tmp/ccMYxqV9.s:781    .text:000000000000033c .L0 
     /tmp/ccMYxqV9.s:783    .text:0000000000000340 .L0 
     /tmp/ccMYxqV9.s:758    .text:0000000000000314 _ZN6ThreadC1Ev
     /tmp/ccMYxqV9.s:791    .text:0000000000000340 _ZN9SemaphoreC2Ej
     /tmp/ccMYxqV9.s:794    .text:0000000000000340 .L0 
     /tmp/ccMYxqV9.s:796    .text:0000000000000340 .L0 
     /tmp/ccMYxqV9.s:797    .text:0000000000000344 .L0 
     /tmp/ccMYxqV9.s:800    .text:000000000000034c .L0 
     /tmp/ccMYxqV9.s:801    .text:000000000000034c .L0 
     /tmp/ccMYxqV9.s:803    .text:0000000000000350 .L0 
     /tmp/ccMYxqV9.s:806    .text:0000000000000350 .L0 
     /tmp/ccMYxqV9.s:809    .text:000000000000035c .L0 
     /tmp/ccMYxqV9.s:810    .text:000000000000035c .L0 
     /tmp/ccMYxqV9.s:816    .text:0000000000000368 .L0 
     /tmp/ccMYxqV9.s:817    .text:000000000000036c .L0 
     /tmp/ccMYxqV9.s:819    .text:0000000000000370 .L0 
     /tmp/ccMYxqV9.s:820    .text:0000000000000370 .L0 
     /tmp/ccMYxqV9.s:822    .text:0000000000000374 .L0 
     /tmp/ccMYxqV9.s:824    .text:0000000000000378 .L0 
     /tmp/ccMYxqV9.s:791    .text:0000000000000340 _ZN9SemaphoreC1Ej
     /tmp/ccMYxqV9.s:832    .text:0000000000000378 _ZN9Semaphore4waitEv
     /tmp/ccMYxqV9.s:835    .text:0000000000000378 .L0 
     /tmp/ccMYxqV9.s:837    .text:0000000000000378 .L0 
     /tmp/ccMYxqV9.s:838    .text:000000000000037c .L0 
     /tmp/ccMYxqV9.s:841    .text:0000000000000384 .L0 
     /tmp/ccMYxqV9.s:842    .text:0000000000000384 .L0 
     /tmp/ccMYxqV9.s:844    .text:0000000000000388 .L0 
     /tmp/ccMYxqV9.s:846    .text:0000000000000388 .L0 
     /tmp/ccMYxqV9.s:847    .text:0000000000000388 .L0 
GAS LISTING /tmp/ccMYxqV9.s 			page 33


     /tmp/ccMYxqV9.s:852    .text:0000000000000394 .L0 
     /tmp/ccMYxqV9.s:853    .text:0000000000000398 .L0 
     /tmp/ccMYxqV9.s:855    .text:000000000000039c .L0 
     /tmp/ccMYxqV9.s:856    .text:000000000000039c .L0 
     /tmp/ccMYxqV9.s:858    .text:00000000000003a0 .L0 
     /tmp/ccMYxqV9.s:860    .text:00000000000003a4 .L0 
     /tmp/ccMYxqV9.s:866    .text:00000000000003a4 _ZN9Semaphore6signalEv
     /tmp/ccMYxqV9.s:869    .text:00000000000003a4 .L0 
     /tmp/ccMYxqV9.s:871    .text:00000000000003a4 .L0 
     /tmp/ccMYxqV9.s:872    .text:00000000000003a8 .L0 
     /tmp/ccMYxqV9.s:875    .text:00000000000003b0 .L0 
     /tmp/ccMYxqV9.s:876    .text:00000000000003b0 .L0 
     /tmp/ccMYxqV9.s:878    .text:00000000000003b4 .L0 
     /tmp/ccMYxqV9.s:880    .text:00000000000003b4 .L0 
     /tmp/ccMYxqV9.s:881    .text:00000000000003b4 .L0 
     /tmp/ccMYxqV9.s:886    .text:00000000000003c0 .L0 
     /tmp/ccMYxqV9.s:887    .text:00000000000003c4 .L0 
     /tmp/ccMYxqV9.s:889    .text:00000000000003c8 .L0 
     /tmp/ccMYxqV9.s:890    .text:00000000000003c8 .L0 
     /tmp/ccMYxqV9.s:892    .text:00000000000003cc .L0 
     /tmp/ccMYxqV9.s:894    .text:00000000000003d0 .L0 
     /tmp/ccMYxqV9.s:900    .text:00000000000003d0 _ZN9Semaphore9timedWaitEm
     /tmp/ccMYxqV9.s:903    .text:00000000000003d0 .L0 
     /tmp/ccMYxqV9.s:905    .text:00000000000003d0 .L0 
     /tmp/ccMYxqV9.s:906    .text:00000000000003d4 .L0 
     /tmp/ccMYxqV9.s:909    .text:00000000000003dc .L0 
     /tmp/ccMYxqV9.s:910    .text:00000000000003dc .L0 
     /tmp/ccMYxqV9.s:912    .text:00000000000003e0 .L0 
     /tmp/ccMYxqV9.s:914    .text:00000000000003e0 .L0 
     /tmp/ccMYxqV9.s:915    .text:00000000000003e0 .L0 
     /tmp/ccMYxqV9.s:920    .text:00000000000003ec .L0 
     /tmp/ccMYxqV9.s:921    .text:00000000000003f0 .L0 
     /tmp/ccMYxqV9.s:923    .text:00000000000003f4 .L0 
     /tmp/ccMYxqV9.s:924    .text:00000000000003f4 .L0 
     /tmp/ccMYxqV9.s:926    .text:00000000000003f8 .L0 
     /tmp/ccMYxqV9.s:928    .text:00000000000003fc .L0 
     /tmp/ccMYxqV9.s:934    .text:00000000000003fc _ZN9Semaphore7tryWaitEv
     /tmp/ccMYxqV9.s:937    .text:00000000000003fc .L0 
     /tmp/ccMYxqV9.s:939    .text:00000000000003fc .L0 
     /tmp/ccMYxqV9.s:940    .text:0000000000000400 .L0 
     /tmp/ccMYxqV9.s:943    .text:0000000000000408 .L0 
     /tmp/ccMYxqV9.s:944    .text:0000000000000408 .L0 
     /tmp/ccMYxqV9.s:946    .text:000000000000040c .L0 
     /tmp/ccMYxqV9.s:948    .text:000000000000040c .L0 
     /tmp/ccMYxqV9.s:949    .text:000000000000040c .L0 
     /tmp/ccMYxqV9.s:954    .text:0000000000000418 .L0 
     /tmp/ccMYxqV9.s:955    .text:000000000000041c .L0 
     /tmp/ccMYxqV9.s:957    .text:0000000000000420 .L0 
     /tmp/ccMYxqV9.s:958    .text:0000000000000420 .L0 
     /tmp/ccMYxqV9.s:960    .text:0000000000000424 .L0 
     /tmp/ccMYxqV9.s:962    .text:0000000000000428 .L0 
     /tmp/ccMYxqV9.s:968    .text:0000000000000428 _ZN14PeriodicThread9terminateEv
     /tmp/ccMYxqV9.s:971    .text:0000000000000428 .L0 
     /tmp/ccMYxqV9.s:973    .text:0000000000000428 .L0 
     /tmp/ccMYxqV9.s:974    .text:000000000000042c .L0 
     /tmp/ccMYxqV9.s:976    .text:0000000000000430 .L0 
     /tmp/ccMYxqV9.s:978    .text:0000000000000434 .L0 
GAS LISTING /tmp/ccMYxqV9.s 			page 34


     /tmp/ccMYxqV9.s:980    .text:0000000000000434 .L0 
     /tmp/ccMYxqV9.s:981    .text:0000000000000434 .L0 
     /tmp/ccMYxqV9.s:985    .text:0000000000000440 .L0 
     /tmp/ccMYxqV9.s:986    .text:0000000000000444 .L0 
     /tmp/ccMYxqV9.s:987    .text:0000000000000444 .L0 
     /tmp/ccMYxqV9.s:989    .text:0000000000000448 .L0 
     /tmp/ccMYxqV9.s:991    .text:000000000000044c .L0 
     /tmp/ccMYxqV9.s:997    .text:000000000000044c _ZN14PeriodicThreadC2Em
     /tmp/ccMYxqV9.s:1000   .text:000000000000044c .L0 
     /tmp/ccMYxqV9.s:1002   .text:000000000000044c .L0 
     /tmp/ccMYxqV9.s:1003   .text:0000000000000450 .L0 
     /tmp/ccMYxqV9.s:1008   .text:0000000000000460 .L0 
     /tmp/ccMYxqV9.s:1009   .text:0000000000000460 .L0 
     /tmp/ccMYxqV9.s:1010   .text:0000000000000460 .L0 
     /tmp/ccMYxqV9.s:1011   .text:0000000000000460 .L0 
     /tmp/ccMYxqV9.s:1013   .text:0000000000000464 .L0 
     /tmp/ccMYxqV9.s:1018   .text:000000000000046c .L0 
     /tmp/ccMYxqV9.s:1027   .text:000000000000047c .L0 
     /tmp/ccMYxqV9.s:1033   .text:0000000000000484 .L0 
     /tmp/ccMYxqV9.s:1042   .text:00000000000004a8 .L0 
     /tmp/ccMYxqV9.s:1043   .text:00000000000004ac .L0 
     /tmp/ccMYxqV9.s:1045   .text:00000000000004b0 .L0 
     /tmp/ccMYxqV9.s:1046   .text:00000000000004b0 .L0 
     /tmp/ccMYxqV9.s:1048   .text:00000000000004b4 .L0 
     /tmp/ccMYxqV9.s:1051   .text:00000000000004b8 .L0 
     /tmp/ccMYxqV9.s:1054   .text:00000000000004bc .L0 
     /tmp/ccMYxqV9.s:1056   .text:00000000000004c0 .L0 
     /tmp/ccMYxqV9.s:997    .text:000000000000044c _ZN14PeriodicThreadC1Em
     /tmp/ccMYxqV9.s:1064   .text:00000000000004c0 _ZN7Console4getcEv
     /tmp/ccMYxqV9.s:1067   .text:00000000000004c0 .L0 
     /tmp/ccMYxqV9.s:1068   .text:00000000000004c0 .L0 
     /tmp/ccMYxqV9.s:1069   .text:00000000000004c4 .L0 
     /tmp/ccMYxqV9.s:1072   .text:00000000000004cc .L0 
     /tmp/ccMYxqV9.s:1073   .text:00000000000004cc .L0 
     /tmp/ccMYxqV9.s:1075   .text:00000000000004d0 .L0 
     /tmp/ccMYxqV9.s:1077   .text:00000000000004d0 .L0 
     /tmp/ccMYxqV9.s:1078   .text:00000000000004d0 .L0 
     /tmp/ccMYxqV9.s:1081   .text:00000000000004d8 .L0 
     /tmp/ccMYxqV9.s:1082   .text:00000000000004dc .L0 
     /tmp/ccMYxqV9.s:1084   .text:00000000000004e0 .L0 
     /tmp/ccMYxqV9.s:1085   .text:00000000000004e0 .L0 
     /tmp/ccMYxqV9.s:1087   .text:00000000000004e4 .L0 
     /tmp/ccMYxqV9.s:1089   .text:00000000000004e8 .L0 
     /tmp/ccMYxqV9.s:1095   .text:00000000000004e8 _ZN7Console4putcEc
     /tmp/ccMYxqV9.s:1098   .text:00000000000004e8 .L0 
     /tmp/ccMYxqV9.s:1100   .text:00000000000004e8 .L0 
     /tmp/ccMYxqV9.s:1101   .text:00000000000004ec .L0 
     /tmp/ccMYxqV9.s:1104   .text:00000000000004f4 .L0 
     /tmp/ccMYxqV9.s:1105   .text:00000000000004f4 .L0 
     /tmp/ccMYxqV9.s:1107   .text:00000000000004f8 .L0 
     /tmp/ccMYxqV9.s:1109   .text:00000000000004f8 .L0 
     /tmp/ccMYxqV9.s:1110   .text:00000000000004f8 .L0 
     /tmp/ccMYxqV9.s:1113   .text:0000000000000500 .L0 
     /tmp/ccMYxqV9.s:1114   .text:0000000000000504 .L0 
     /tmp/ccMYxqV9.s:1116   .text:0000000000000508 .L0 
     /tmp/ccMYxqV9.s:1117   .text:0000000000000508 .L0 
     /tmp/ccMYxqV9.s:1119   .text:000000000000050c .L0 
GAS LISTING /tmp/ccMYxqV9.s 			page 35


     /tmp/ccMYxqV9.s:1121   .text:0000000000000510 .L0 
     /tmp/ccMYxqV9.s:35     .text._ZN6Thread3runEv:0000000000000018 .L0 
     /tmp/ccMYxqV9.s:60     .text._ZN14PeriodicThread18periodicActivationEv:0000000000000018 .L0 
     /tmp/ccMYxqV9.s:1163   .text:0000000000000510 .L0 
     /tmp/ccMYxqV9.s:485    .text._ZN14PeriodicThreadD2Ev:0000000000000034 .L0 
     /tmp/ccMYxqV9.s:532    .text._ZN14PeriodicThreadD0Ev:000000000000004c .L0 
     /tmp/ccMYxqV9.s:119    .text:000000000000003c .L0 
     /tmp/ccMYxqV9.s:357    .text:0000000000000158 .L0 
     /tmp/ccMYxqV9.s:549    .text:00000000000001e8 .L0 
     /tmp/ccMYxqV9.s:611    .text:0000000000000244 .L0 
     /tmp/ccMYxqV9.s:771    .text:0000000000000320 .L0 
     /tmp/ccMYxqV9.s:806    .text:0000000000000350 .L0 
     /tmp/ccMYxqV9.s:1033   .text:0000000000000484 .L0 
     /tmp/ccMYxqV9.s:1037   .text:0000000000000498 .L0 
     /tmp/ccMYxqV9.s:384    .text:0000000000000188 .L19
     /tmp/ccMYxqV9.s:377    .text:000000000000017c .L21
     /tmp/ccMYxqV9.s:606    .text:0000000000000240 .L32
     /tmp/ccMYxqV9.s:594    .text:0000000000000230 .L33
     /tmp/ccMYxqV9.s:736    .text:00000000000002fc .L39
     /tmp/ccMYxqV9.s:711    .text:00000000000002cc .L41
     /tmp/ccMYxqV9.s:467    .text._ZN14PeriodicThreadD2Ev:0000000000000010 .L0 
     /tmp/ccMYxqV9.s:509    .text._ZN14PeriodicThreadD0Ev:0000000000000018 .L0 
     /tmp/ccMYxqV9.s:3694   .debug_abbrev:0000000000000000 .Ldebug_abbrev0
     /tmp/ccMYxqV9.s:6001   .debug_str:0000000000000bb4 .LASF232
     /tmp/ccMYxqV9.s:5823   .debug_str:0000000000000636 .LASF233
     /tmp/ccMYxqV9.s:5797   .debug_str:000000000000054a .LASF234
     /tmp/ccMYxqV9.s:5627   .debug_ranges:0000000000000000 .Ldebug_ranges0
     /tmp/ccMYxqV9.s:5641   .debug_line:0000000000000000 .Ldebug_line0
     /tmp/ccMYxqV9.s:5807   .debug_str:00000000000005a1 .LASF0
     /tmp/ccMYxqV9.s:5845   .debug_str:00000000000006fa .LASF1
     /tmp/ccMYxqV9.s:5969   .debug_str:0000000000000aee .LASF2
     /tmp/ccMYxqV9.s:5975   .debug_str:0000000000000b0e .LASF4
     /tmp/ccMYxqV9.s:5825   .debug_str:000000000000064a .LASF3
     /tmp/ccMYxqV9.s:5661   .debug_str:00000000000000a9 .LASF5
     /tmp/ccMYxqV9.s:5937   .debug_str:00000000000009f1 .LASF6
     /tmp/ccMYxqV9.s:5927   .debug_str:00000000000009af .LASF7
     /tmp/ccMYxqV9.s:5837   .debug_str:00000000000006b7 .LASF8
     /tmp/ccMYxqV9.s:5771   .debug_str:000000000000045c .LASF9
     /tmp/ccMYxqV9.s:5783   .debug_str:00000000000004d4 .LASF10
     /tmp/ccMYxqV9.s:5701   .debug_str:00000000000001fa .LASF11
     /tmp/ccMYxqV9.s:5765   .debug_str:0000000000000430 .LASF12
     /tmp/ccMYxqV9.s:5717   .debug_str:0000000000000267 .LASF13
     /tmp/ccMYxqV9.s:5699   .debug_str:00000000000001ea .LASF14
     /tmp/ccMYxqV9.s:6007   .debug_str:0000000000000c9d .LASF15
     /tmp/ccMYxqV9.s:5749   .debug_str:00000000000003a9 .LASF16
     /tmp/ccMYxqV9.s:5997   .debug_str:0000000000000b8b .LASF17
     /tmp/ccMYxqV9.s:6081   .debug_str:0000000000000ec0 .LASF35
     /tmp/ccMYxqV9.s:5733   .debug_str:00000000000002fd .LASF235
     /tmp/ccMYxqV9.s:5763   .debug_str:000000000000042b .LASF18
     /tmp/ccMYxqV9.s:5893   .debug_str:000000000000086e .LASF19
     /tmp/ccMYxqV9.s:5887   .debug_str:0000000000000854 .LASF20
     /tmp/ccMYxqV9.s:5999   .debug_str:0000000000000ba1 .LASF22
     /tmp/ccMYxqV9.s:5759   .debug_str:000000000000040e .LASF27
     /tmp/ccMYxqV9.s:5973   .debug_str:0000000000000b04 .LASF149
     /tmp/ccMYxqV9.s:5959   .debug_str:0000000000000a80 .LASF151
     /tmp/ccMYxqV9.s:5841   .debug_str:00000000000006e5 .LASF21
     /tmp/ccMYxqV9.s:6091   .debug_str:0000000000000f21 .LASF23
GAS LISTING /tmp/ccMYxqV9.s 			page 36


     /tmp/ccMYxqV9.s:5865   .debug_str:00000000000007be .LASF24
     /tmp/ccMYxqV9.s:5719   .debug_str:0000000000000277 .LASF25
     /tmp/ccMYxqV9.s:5923   .debug_str:0000000000000992 .LASF26
     /tmp/ccMYxqV9.s:6083   .debug_str:0000000000000eca .LASF28
     /tmp/ccMYxqV9.s:6129   .debug_str:000000000000103d .LASF29
     /tmp/ccMYxqV9.s:6113   .debug_str:0000000000000fbe .LASF30
     /tmp/ccMYxqV9.s:5985   .debug_str:0000000000000b45 .LASF31
     /tmp/ccMYxqV9.s:5835   .debug_str:000000000000069a .LASF32
     /tmp/ccMYxqV9.s:5951   .debug_str:0000000000000a59 .LASF33
     /tmp/ccMYxqV9.s:5651   .debug_str:0000000000000047 .LASF34
     /tmp/ccMYxqV9.s:6019   .debug_str:0000000000000ceb .LASF142
     /tmp/ccMYxqV9.s:6121   .debug_str:0000000000001000 .LASF36
     /tmp/ccMYxqV9.s:5779   .debug_str:00000000000004b5 .LASF37
     /tmp/ccMYxqV9.s:5647   .debug_str:000000000000002f .LASF56
     /tmp/ccMYxqV9.s:5869   .debug_str:00000000000007da .LASF98
     /tmp/ccMYxqV9.s:5977   .debug_str:0000000000000b15 .LASF38
     /tmp/ccMYxqV9.s:5655   .debug_str:0000000000000089 .LASF39
     /tmp/ccMYxqV9.s:6005   .debug_str:0000000000000c90 .LASF40
     /tmp/ccMYxqV9.s:5967   .debug_str:0000000000000aca .LASF41
     /tmp/ccMYxqV9.s:5919   .debug_str:0000000000000977 .LASF236
     /tmp/ccMYxqV9.s:5813   .debug_str:00000000000005d8 .LASF42
     /tmp/ccMYxqV9.s:5867   .debug_str:00000000000007c6 .LASF43
     /tmp/ccMYxqV9.s:5703   .debug_str:0000000000000209 .LASF44
     /tmp/ccMYxqV9.s:5897   .debug_str:000000000000088a .LASF45
     /tmp/ccMYxqV9.s:5851   .debug_str:0000000000000726 .LASF46
     /tmp/ccMYxqV9.s:6069   .debug_str:0000000000000e68 .LASF47
     /tmp/ccMYxqV9.s:5847   .debug_str:000000000000070d .LASF48
     /tmp/ccMYxqV9.s:6041   .debug_str:0000000000000d84 .LASF50
     /tmp/ccMYxqV9.s:6035   .debug_str:0000000000000d60 .LASF82
     /tmp/ccMYxqV9.s:5971   .debug_str:0000000000000afc .LASF49
     /tmp/ccMYxqV9.s:6079   .debug_str:0000000000000eae .LASF51
     /tmp/ccMYxqV9.s:6115   .debug_str:0000000000000fd9 .LASF52
     /tmp/ccMYxqV9.s:6101   .debug_str:0000000000000f75 .LASF53
     /tmp/ccMYxqV9.s:6021   .debug_str:0000000000000cf3 .LASF54
     /tmp/ccMYxqV9.s:6015   .debug_str:0000000000000ccd .LASF55
     /tmp/ccMYxqV9.s:5915   .debug_str:0000000000000958 .LASF237
     /tmp/ccMYxqV9.s:5991   .debug_str:0000000000000b61 .LASF57
     /tmp/ccMYxqV9.s:5913   .debug_str:000000000000092a .LASF59
     /tmp/ccMYxqV9.s:5667   .debug_str:00000000000000d9 .LASF72
     /tmp/ccMYxqV9.s:5755   .debug_str:00000000000003df .LASF74
     /tmp/ccMYxqV9.s:5801   .debug_str:000000000000057a .LASF58
     /tmp/ccMYxqV9.s:5687   .debug_str:0000000000000162 .LASF60
     /tmp/ccMYxqV9.s:5983   .debug_str:0000000000000b3d .LASF61
     /tmp/ccMYxqV9.s:5831   .debug_str:0000000000000677 .LASF68
     /tmp/ccMYxqV9.s:5645   .debug_str:000000000000002a .LASF62
     /tmp/ccMYxqV9.s:5871   .debug_str:00000000000007e7 .LASF63
     /tmp/ccMYxqV9.s:6053   .debug_str:0000000000000dcf .LASF64
     /tmp/ccMYxqV9.s:6077   .debug_str:0000000000000ea7 .LASF65
     /tmp/ccMYxqV9.s:5815   .debug_str:00000000000005e2 .LASF66
     /tmp/ccMYxqV9.s:6045   .debug_str:0000000000000d9d .LASF67
     /tmp/ccMYxqV9.s:5979   .debug_str:0000000000000b1a .LASF69
     /tmp/ccMYxqV9.s:5907   .debug_str:0000000000000906 .LASF70
     /tmp/ccMYxqV9.s:5675   .debug_str:0000000000000107 .LASF71
     /tmp/ccMYxqV9.s:5931   .debug_str:00000000000009c7 .LASF73
     /tmp/ccMYxqV9.s:5853   .debug_str:0000000000000733 .LASF75
     /tmp/ccMYxqV9.s:5961   .debug_str:0000000000000a97 .LASF76
     /tmp/ccMYxqV9.s:5743   .debug_str:0000000000000354 .LASF77
GAS LISTING /tmp/ccMYxqV9.s 			page 37


     /tmp/ccMYxqV9.s:5735   .debug_str:0000000000000302 .LASF78
     /tmp/ccMYxqV9.s:5711   .debug_str:0000000000000238 .LASF79
     /tmp/ccMYxqV9.s:5725   .debug_str:00000000000002b4 .LASF80
     /tmp/ccMYxqV9.s:5653   .debug_str:0000000000000061 .LASF81
     /tmp/ccMYxqV9.s:5995   .debug_str:0000000000000b7d .LASF83
     /tmp/ccMYxqV9.s:5941   .debug_str:0000000000000a07 .LASF84
     /tmp/ccMYxqV9.s:5731   .debug_str:00000000000002ed .LASF85
     /tmp/ccMYxqV9.s:6059   .debug_str:0000000000000dfe .LASF86
     /tmp/ccMYxqV9.s:5827   .debug_str:000000000000065c .LASF87
     /tmp/ccMYxqV9.s:6109   .debug_str:0000000000000fb1 .LASF238
     /tmp/ccMYxqV9.s:5987   .debug_str:0000000000000b50 .LASF88
     /tmp/ccMYxqV9.s:5709   .debug_str:000000000000022e .LASF89
     /tmp/ccMYxqV9.s:5707   .debug_str:0000000000000225 .LASF90
     /tmp/ccMYxqV9.s:5685   .debug_str:0000000000000159 .LASF91
     /tmp/ccMYxqV9.s:5955   .debug_str:0000000000000a72 .LASF92
     /tmp/ccMYxqV9.s:5889   .debug_str:0000000000000859 .LASF93
     /tmp/ccMYxqV9.s:5911   .debug_str:0000000000000915 .LASF94
     /tmp/ccMYxqV9.s:6117   .debug_str:0000000000000fe0 .LASF95
     /tmp/ccMYxqV9.s:5721   .debug_str:0000000000000294 .LASF96
     /tmp/ccMYxqV9.s:6125   .debug_str:000000000000101f .LASF97
     /tmp/ccMYxqV9.s:5857   .debug_str:0000000000000761 .LASF99
     /tmp/ccMYxqV9.s:6071   .debug_str:0000000000000e81 .LASF100
     /tmp/ccMYxqV9.s:5679   .debug_str:0000000000000114 .LASF101
     /tmp/ccMYxqV9.s:5829   .debug_str:0000000000000668 .LASF102
     /tmp/ccMYxqV9.s:5881   .debug_str:0000000000000812 .LASF103
     /tmp/ccMYxqV9.s:5925   .debug_str:000000000000099e .LASF104
     /tmp/ccMYxqV9.s:5741   .debug_str:000000000000032d .LASF105
     /tmp/ccMYxqV9.s:6011   .debug_str:0000000000000cb2 .LASF106
     /tmp/ccMYxqV9.s:6033   .debug_str:0000000000000d35 .LASF107
     /tmp/ccMYxqV9.s:5757   .debug_str:00000000000003fc .LASF108
     /tmp/ccMYxqV9.s:5787   .debug_str:00000000000004fc .LASF109
     /tmp/ccMYxqV9.s:5863   .debug_str:00000000000007ac .LASF110
     /tmp/ccMYxqV9.s:5697   .debug_str:00000000000001c4 .LASF111
     /tmp/ccMYxqV9.s:5855   .debug_str:000000000000074c .LASF112
     /tmp/ccMYxqV9.s:5695   .debug_str:00000000000001ae .LASF113
     /tmp/ccMYxqV9.s:6017   .debug_str:0000000000000ce3 .LASF114
     /tmp/ccMYxqV9.s:5821   .debug_str:000000000000061b .LASF115
     /tmp/ccMYxqV9.s:5737   .debug_str:000000000000030b .LASF116
     /tmp/ccMYxqV9.s:5811   .debug_str:00000000000005c0 .LASF117
     /tmp/ccMYxqV9.s:6013   .debug_str:0000000000000cc6 .LASF118
     /tmp/ccMYxqV9.s:5745   .debug_str:000000000000036e .LASF119
     /tmp/ccMYxqV9.s:5805   .debug_str:000000000000059b .LASF120
     /tmp/ccMYxqV9.s:5943   .debug_str:0000000000000a13 .LASF121
     /tmp/ccMYxqV9.s:5649   .debug_str:000000000000003f .LASF122
     /tmp/ccMYxqV9.s:6063   .debug_str:0000000000000e35 .LASF123
     /tmp/ccMYxqV9.s:5795   .debug_str:0000000000000544 .LASF124
     /tmp/ccMYxqV9.s:6029   .debug_str:0000000000000d18 .LASF125
     /tmp/ccMYxqV9.s:6089   .debug_str:0000000000000f13 .LASF126
     /tmp/ccMYxqV9.s:5875   .debug_str:00000000000007f5 .LASF127
     /tmp/ccMYxqV9.s:6043   .debug_str:0000000000000d94 .LASF128
     /tmp/ccMYxqV9.s:5713   .debug_str:000000000000024b .LASF129
     /tmp/ccMYxqV9.s:5891   .debug_str:0000000000000865 .LASF130
     /tmp/ccMYxqV9.s:6025   .debug_str:0000000000000d03 .LASF131
     /tmp/ccMYxqV9.s:6085   .debug_str:0000000000000ee8 .LASF132
     /tmp/ccMYxqV9.s:6057   .debug_str:0000000000000df1 .LASF133
     /tmp/ccMYxqV9.s:5753   .debug_str:00000000000003d7 .LASF134
     /tmp/ccMYxqV9.s:5777   .debug_str:00000000000004ad .LASF135
GAS LISTING /tmp/ccMYxqV9.s 			page 38


     /tmp/ccMYxqV9.s:6123   .debug_str:000000000000100d .LASF239
     /tmp/ccMYxqV9.s:6037   .debug_str:0000000000000d68 .LASF136
     /tmp/ccMYxqV9.s:6103   .debug_str:0000000000000f86 .LASF137
     /tmp/ccMYxqV9.s:5873   .debug_str:00000000000007ed .LASF138
     /tmp/ccMYxqV9.s:6099   .debug_str:0000000000000f70 .LASF209
     /tmp/ccMYxqV9.s:5729   .debug_str:00000000000002da .LASF240
     /tmp/ccMYxqV9.s:5877   .debug_str:0000000000000803 .LASF139
     /tmp/ccMYxqV9.s:6097   .debug_str:0000000000000f5d .LASF140
     /tmp/ccMYxqV9.s:6023   .debug_str:0000000000000cfe .LASF141
     /tmp/ccMYxqV9.s:6131   .debug_str:0000000000001047 .LASF143
     /tmp/ccMYxqV9.s:5929   .debug_str:00000000000009c2 .LASF144
     /tmp/ccMYxqV9.s:5885   .debug_str:000000000000084c .LASF145
     /tmp/ccMYxqV9.s:5901   .debug_str:00000000000008c0 .LASF146
     /tmp/ccMYxqV9.s:6065   .debug_str:0000000000000e50 .LASF147
     /tmp/ccMYxqV9.s:5859   .debug_str:0000000000000788 .LASF160
     /tmp/ccMYxqV9.s:5669   .debug_str:00000000000000eb .LASF162
     /tmp/ccMYxqV9.s:6031   .debug_str:0000000000000d23 .LASF148
     /tmp/ccMYxqV9.s:5947   .debug_str:0000000000000a44 .LASF150
     /tmp/ccMYxqV9.s:5981   .debug_str:0000000000000b2b .LASF152
     /tmp/ccMYxqV9.s:6047   .debug_str:0000000000000da7 .LASF153
     /tmp/ccMYxqV9.s:5663   .debug_str:00000000000000b0 .LASF154
     /tmp/ccMYxqV9.s:5657   .debug_str:0000000000000095 .LASF155
     /tmp/ccMYxqV9.s:5833   .debug_str:0000000000000680 .LASF156
     /tmp/ccMYxqV9.s:5751   .debug_str:00000000000003bf .LASF157
     /tmp/ccMYxqV9.s:5817   .debug_str:00000000000005f7 .LASF158
     /tmp/ccMYxqV9.s:5803   .debug_str:000000000000058b .LASF241
     /tmp/ccMYxqV9.s:5793   .debug_str:000000000000053d .LASF159
     /tmp/ccMYxqV9.s:5715   .debug_str:0000000000000255 .LASF161
     /tmp/ccMYxqV9.s:5963   .debug_str:0000000000000aa5 .LASF163
     /tmp/ccMYxqV9.s:6105   .debug_str:0000000000000f8c .LASF164
     /tmp/ccMYxqV9.s:5993   .debug_str:0000000000000b75 .LASF165
     /tmp/ccMYxqV9.s:5693   .debug_str:000000000000019f .LASF166
     /tmp/ccMYxqV9.s:6111   .debug_str:0000000000000fb8 .LASF167
     /tmp/ccMYxqV9.s:5849   .debug_str:0000000000000713 .LASF168
     /tmp/ccMYxqV9.s:5921   .debug_str:000000000000097c .LASF169
     /tmp/ccMYxqV9.s:5673   .debug_str:0000000000000101 .LASF170
     /tmp/ccMYxqV9.s:6039   .debug_str:0000000000000d71 .LASF171
     /tmp/ccMYxqV9.s:6127   .debug_str:000000000000102e .LASF172
     /tmp/ccMYxqV9.s:5691   .debug_str:000000000000018e .LASF242
     /tmp/ccMYxqV9.s:6073   .debug_str:0000000000000e91 .LASF173
     /tmp/ccMYxqV9.s:6087   .debug_str:0000000000000ef7 .LASF174
     /tmp/ccMYxqV9.s:6093   .debug_str:0000000000000f3f .LASF175
     /tmp/ccMYxqV9.s:6055   .debug_str:0000000000000dd7 .LASF176
     /tmp/ccMYxqV9.s:5819   .debug_str:0000000000000600 .LASF177
     /tmp/ccMYxqV9.s:6027   .debug_str:0000000000000d0e .LASF178
     /tmp/ccMYxqV9.s:5775   .debug_str:000000000000048d .LASF179
     /tmp/ccMYxqV9.s:5683   .debug_str:0000000000000141 .LASF180
     /tmp/ccMYxqV9.s:5781   .debug_str:00000000000004c1 .LASF181
     /tmp/ccMYxqV9.s:5643   .debug_str:0000000000000000 .LASF243
     /tmp/ccMYxqV9.s:5681   .debug_str:000000000000013a .LASF182
     /tmp/ccMYxqV9.s:6061   .debug_str:0000000000000e10 .LASF183
     /tmp/ccMYxqV9.s:5905   .debug_str:00000000000008f6 .LASF184
     /tmp/ccMYxqV9.s:5945   .debug_str:0000000000000a2c .LASF244
     /tmp/ccMYxqV9.s:5767   .debug_str:000000000000043f .LASF185
     /tmp/ccMYxqV9.s:5659   .debug_str:000000000000009f .LASF186
     /tmp/ccMYxqV9.s:5727   .debug_str:00000000000002c2 .LASF187
     /tmp/ccMYxqV9.s:490    .text._ZN14PeriodicThreadD0Ev:0000000000000000 .LFB60
GAS LISTING /tmp/ccMYxqV9.s 			page 39


     /tmp/ccMYxqV9.s:530    .text._ZN14PeriodicThreadD0Ev:000000000000004c .LFE60
     /tmp/ccMYxqV9.s:5140   .debug_loc:0000000000000000 .LLST12
     /tmp/ccMYxqV9.s:506    .text._ZN14PeriodicThreadD0Ev:0000000000000018 .LBB18
     /tmp/ccMYxqV9.s:514    .text._ZN14PeriodicThreadD0Ev:000000000000002c .LBE18
     /tmp/ccMYxqV9.s:5158   .debug_loc:000000000000004c .LLST13
     /tmp/ccMYxqV9.s:512    .text._ZN14PeriodicThreadD0Ev:000000000000002c .LVL33
     /tmp/ccMYxqV9.s:517    .text._ZN14PeriodicThreadD0Ev:0000000000000038 .LVL34
     /tmp/ccMYxqV9.s:5965   .debug_str:0000000000000ab2 .LASF188
     /tmp/ccMYxqV9.s:453    .text._ZN14PeriodicThreadD2Ev:0000000000000000 .LFB58
     /tmp/ccMYxqV9.s:481    .text._ZN14PeriodicThreadD2Ev:0000000000000034 .LFE58
     /tmp/ccMYxqV9.s:5169   .debug_loc:0000000000000082 .LLST11
     /tmp/ccMYxqV9.s:470    .text._ZN14PeriodicThreadD2Ev:0000000000000024 .LVL30
     /tmp/ccMYxqV9.s:1096   .text:00000000000004e8 .LFB56
     /tmp/ccMYxqV9.s:1122   .text:0000000000000510 .LFE56
     /tmp/ccMYxqV9.s:5183   .debug_loc:00000000000000bb .LLST31
     /tmp/ccMYxqV9.s:1111   .text:0000000000000500 .LVL80
     /tmp/ccMYxqV9.s:1065   .text:00000000000004c0 .LFB55
     /tmp/ccMYxqV9.s:1090   .text:00000000000004e8 .LFE55
     /tmp/ccMYxqV9.s:1079   .text:00000000000004d8 .LVL78
     /tmp/ccMYxqV9.s:688    .text:00000000000002ac .LFB54
     /tmp/ccMYxqV9.s:753    .text:0000000000000314 .LFE54
     /tmp/ccMYxqV9.s:5197   .debug_loc:00000000000000f4 .LLST16
     /tmp/ccMYxqV9.s:6051   .debug_str:0000000000000dca .LASF189
     /tmp/ccMYxqV9.s:5215   .debug_loc:0000000000000140 .LLST17
     /tmp/ccMYxqV9.s:5233   .debug_loc:000000000000018c .LLST18
     /tmp/ccMYxqV9.s:727    .text:00000000000002ec .LVL49
     /tmp/ccMYxqV9.s:732    .text:00000000000002f8 .LVL50
     /tmp/ccMYxqV9.s:6003   .debug_str:0000000000000c78 .LASF190
     /tmp/ccMYxqV9.s:998    .text:000000000000044c .LFB52
     /tmp/ccMYxqV9.s:1057   .text:00000000000004c0 .LFE52
     /tmp/ccMYxqV9.s:5240   .debug_loc:00000000000001af .LLST26
     /tmp/ccMYxqV9.s:5258   .debug_loc:00000000000001fb .LLST27
     /tmp/ccMYxqV9.s:1024   .text:000000000000047c .LBB24
     /tmp/ccMYxqV9.s:1031   .text:0000000000000484 .LBE24
     /tmp/ccMYxqV9.s:5277   .debug_loc:0000000000000248 .LLST28
     /tmp/ccMYxqV9.s:5284   .debug_loc:000000000000026b .LLST29
     /tmp/ccMYxqV9.s:5291   .debug_loc:000000000000028e .LLST30
     /tmp/ccMYxqV9.s:1021   .text:0000000000000478 .LVL72
     /tmp/ccMYxqV9.s:1036   .text:0000000000000498 .LVL75
     /tmp/ccMYxqV9.s:5769   .debug_str:0000000000000444 .LASF205
     /tmp/ccMYxqV9.s:969    .text:0000000000000428 .LFB47
     /tmp/ccMYxqV9.s:992    .text:000000000000044c .LFE47
     /tmp/ccMYxqV9.s:935    .text:00000000000003fc .LFB46
     /tmp/ccMYxqV9.s:963    .text:0000000000000428 .LFE46
     /tmp/ccMYxqV9.s:5298   .debug_loc:00000000000002b1 .LLST25
     /tmp/ccMYxqV9.s:952    .text:0000000000000418 .LVL68
     /tmp/ccMYxqV9.s:901    .text:00000000000003d0 .LFB45
     /tmp/ccMYxqV9.s:929    .text:00000000000003fc .LFE45
     /tmp/ccMYxqV9.s:5312   .debug_loc:00000000000002ea .LLST23
     /tmp/ccMYxqV9.s:5326   .debug_loc:0000000000000323 .LLST24
     /tmp/ccMYxqV9.s:918    .text:00000000000003ec .LVL65
     /tmp/ccMYxqV9.s:867    .text:00000000000003a4 .LFB44
     /tmp/ccMYxqV9.s:895    .text:00000000000003d0 .LFE44
     /tmp/ccMYxqV9.s:5340   .debug_loc:000000000000035c .LLST22
     /tmp/ccMYxqV9.s:884    .text:00000000000003c0 .LVL62
     /tmp/ccMYxqV9.s:833    .text:0000000000000378 .LFB43
     /tmp/ccMYxqV9.s:861    .text:00000000000003a4 .LFE43
GAS LISTING /tmp/ccMYxqV9.s 			page 40


     /tmp/ccMYxqV9.s:5354   .debug_loc:0000000000000395 .LLST21
     /tmp/ccMYxqV9.s:850    .text:0000000000000394 .LVL59
     /tmp/ccMYxqV9.s:5809   .debug_str:00000000000005ae .LASF191
     /tmp/ccMYxqV9.s:259    .text:00000000000000dc .LFB42
     /tmp/ccMYxqV9.s:292    .text:000000000000011c .LFE42
     /tmp/ccMYxqV9.s:5368   .debug_loc:00000000000003ce .LLST6
     /tmp/ccMYxqV9.s:276    .text:00000000000000fc .LVL15
     /tmp/ccMYxqV9.s:279    .text:0000000000000108 .LVL16
     /tmp/ccMYxqV9.s:5665   .debug_str:00000000000000c7 .LASF192
     /tmp/ccMYxqV9.s:103    .text:000000000000002c .LFB40
     /tmp/ccMYxqV9.s:138    .text:0000000000000064 .LFE40
     /tmp/ccMYxqV9.s:5386   .debug_loc:000000000000041a .LLST2
     /tmp/ccMYxqV9.s:126    .text:0000000000000054 .LVL7
     /tmp/ccMYxqV9.s:5677   .debug_str:000000000000010f .LASF193
     /tmp/ccMYxqV9.s:5705   .debug_str:0000000000000213 .LASF194
     /tmp/ccMYxqV9.s:792    .text:0000000000000340 .LFB37
     /tmp/ccMYxqV9.s:825    .text:0000000000000378 .LFE37
     /tmp/ccMYxqV9.s:5400   .debug_loc:0000000000000453 .LLST19
     /tmp/ccMYxqV9.s:5420   .debug_loc:00000000000004a1 .LLST20
     /tmp/ccMYxqV9.s:813    .text:0000000000000368 .LVL56
     /tmp/ccMYxqV9.s:65     .text:0000000000000000 .LFB35
     /tmp/ccMYxqV9.s:97     .text:000000000000002c .LFE35
     /tmp/ccMYxqV9.s:5434   .debug_loc:00000000000004da .LLST0
     /tmp/ccMYxqV9.s:5448   .debug_loc:0000000000000513 .LLST1
     /tmp/ccMYxqV9.s:86     .text:000000000000001c .LVL4
     /tmp/ccMYxqV9.s:5939   .debug_str:00000000000009f8 .LASF195
     /tmp/ccMYxqV9.s:759    .text:0000000000000314 .LFB33
     /tmp/ccMYxqV9.s:784    .text:0000000000000340 .LFE33
     /tmp/ccMYxqV9.s:656    .text:0000000000000284 .LFB31
     /tmp/ccMYxqV9.s:682    .text:00000000000002ac .LFE31
     /tmp/ccMYxqV9.s:5462   .debug_loc:000000000000054c .LLST15
     /tmp/ccMYxqV9.s:671    .text:000000000000029c .LVL45
     /tmp/ccMYxqV9.s:625    .text:000000000000025c .LFB30
     /tmp/ccMYxqV9.s:650    .text:0000000000000284 .LFE30
     /tmp/ccMYxqV9.s:639    .text:0000000000000274 .LVL43
     /tmp/ccMYxqV9.s:570    .text:0000000000000208 .LFB29
     /tmp/ccMYxqV9.s:619    .text:000000000000025c .LFE29
     /tmp/ccMYxqV9.s:5476   .debug_loc:0000000000000585 .LLST14
     /tmp/ccMYxqV9.s:593    .text:0000000000000230 .LVL39
     /tmp/ccMYxqV9.s:615    .text:0000000000000258 .LVL42
     /tmp/ccMYxqV9.s:5861   .debug_str:000000000000079d .LASF196
     /tmp/ccMYxqV9.s:413    .text:000000000000019c .LFB28
     /tmp/ccMYxqV9.s:446    .text:00000000000001dc .LFE28
     /tmp/ccMYxqV9.s:5511   .debug_loc:000000000000060f .LLST10
     /tmp/ccMYxqV9.s:430    .text:00000000000001bc .LVL26
     /tmp/ccMYxqV9.s:433    .text:00000000000001c8 .LVL27
     /tmp/ccMYxqV9.s:6095   .debug_str:0000000000000f4e .LASF197
     /tmp/ccMYxqV9.s:339    .text:0000000000000144 .LFB26
     /tmp/ccMYxqV9.s:398    .text:000000000000019c .LFE26
     /tmp/ccMYxqV9.s:5529   .debug_loc:000000000000065b .LLST8
     /tmp/ccMYxqV9.s:365    .text:000000000000016c .LBB15
     /tmp/ccMYxqV9.s:379    .text:000000000000017c .LBE15
     /tmp/ccMYxqV9.s:5543   .debug_loc:0000000000000694 .LLST9
     /tmp/ccMYxqV9.s:376    .text:000000000000017c .LVL23
     /tmp/ccMYxqV9.s:383    .text:0000000000000188 .LVL24
     /tmp/ccMYxqV9.s:5895   .debug_str:0000000000000873 .LASF198
     /tmp/ccMYxqV9.s:537    .text:00000000000001dc .LFB23
GAS LISTING /tmp/ccMYxqV9.s 			page 41


     /tmp/ccMYxqV9.s:562    .text:0000000000000208 .LFE23
     /tmp/ccMYxqV9.s:6119   .debug_str:0000000000000fed .LASF199
     /tmp/ccMYxqV9.s:5909   .debug_str:000000000000090e .LASF200
     /tmp/ccMYxqV9.s:298    .text:000000000000011c .LFB21
     /tmp/ccMYxqV9.s:326    .text:0000000000000144 .LFE21
     /tmp/ccMYxqV9.s:5550   .debug_loc:00000000000006b7 .LLST7
     /tmp/ccMYxqV9.s:315    .text:0000000000000134 .LVL19
     /tmp/ccMYxqV9.s:5917   .debug_str:0000000000000970 .LASF201
     /tmp/ccMYxqV9.s:218    .text:00000000000000b4 .LFB20
     /tmp/ccMYxqV9.s:246    .text:00000000000000dc .LFE20
     /tmp/ccMYxqV9.s:5564   .debug_loc:00000000000006f0 .LLST5
     /tmp/ccMYxqV9.s:235    .text:00000000000000cc .LVL13
     /tmp/ccMYxqV9.s:5689   .debug_str:000000000000017e .LASF202
     /tmp/ccMYxqV9.s:5671   .debug_str:00000000000000fb .LASF203
     /tmp/ccMYxqV9.s:186    .text:000000000000008c .LFB19
     /tmp/ccMYxqV9.s:212    .text:00000000000000b4 .LFE19
     /tmp/ccMYxqV9.s:5578   .debug_loc:0000000000000729 .LLST4
     /tmp/ccMYxqV9.s:201    .text:00000000000000a4 .LVL11
     /tmp/ccMYxqV9.s:5761   .debug_str:0000000000000425 .LASF204
     /tmp/ccMYxqV9.s:154    .text:0000000000000064 .LFB18
     /tmp/ccMYxqV9.s:180    .text:000000000000008c .LFE18
     /tmp/ccMYxqV9.s:5592   .debug_loc:0000000000000762 .LLST3
     /tmp/ccMYxqV9.s:169    .text:000000000000007c .LVL9
     /tmp/ccMYxqV9.s:40     .text._ZN14PeriodicThread18periodicActivationEv:0000000000000000 .LFB17
     /tmp/ccMYxqV9.s:58     .text._ZN14PeriodicThread18periodicActivationEv:0000000000000018 .LFE17
     /tmp/ccMYxqV9.s:14     .text._ZN6Thread3runEv:0000000000000000 .LFB16
     /tmp/ccMYxqV9.s:33     .text._ZN6Thread3runEv:0000000000000018 .LFE16
     /tmp/ccMYxqV9.s:5843   .debug_str:00000000000006ee .LASF206
     /tmp/ccMYxqV9.s:6009   .debug_str:0000000000000ca9 .LASF207
     /tmp/ccMYxqV9.s:6075   .debug_str:0000000000000e9e .LASF208
     /tmp/ccMYxqV9.s:5903   .debug_str:00000000000008d8 .LASF210
     /tmp/ccMYxqV9.s:5933   .debug_str:00000000000009d5 .LASF211
     /tmp/ccMYxqV9.s:5747   .debug_str:0000000000000388 .LASF212
     /tmp/ccMYxqV9.s:6049   .debug_str:0000000000000dbc .LASF213
     /tmp/ccMYxqV9.s:5739   .debug_str:0000000000000310 .LASF214
     /tmp/ccMYxqV9.s:5791   .debug_str:0000000000000532 .LASF215
     /tmp/ccMYxqV9.s:5785   .debug_str:00000000000004e2 .LASF216
     /tmp/ccMYxqV9.s:5989   .debug_str:0000000000000b58 .LASF217
     /tmp/ccMYxqV9.s:5839   .debug_str:00000000000006ca .LASF218
     /tmp/ccMYxqV9.s:5949   .debug_str:0000000000000a4f .LASF219
     /tmp/ccMYxqV9.s:5899   .debug_str:00000000000008a4 .LASF220
     /tmp/ccMYxqV9.s:5957   .debug_str:0000000000000a77 .LASF221
     /tmp/ccMYxqV9.s:5935   .debug_str:00000000000009e1 .LASF222
     /tmp/ccMYxqV9.s:5723   .debug_str:00000000000002a9 .LASF223
     /tmp/ccMYxqV9.s:5883   .debug_str:0000000000000837 .LASF224
     /tmp/ccMYxqV9.s:5953   .debug_str:0000000000000a62 .LASF225
     /tmp/ccMYxqV9.s:5773   .debug_str:000000000000046c .LASF226
     /tmp/ccMYxqV9.s:6067   .debug_str:0000000000000e5a .LASF227
     /tmp/ccMYxqV9.s:6107   .debug_str:0000000000000fa3 .LASF228
     /tmp/ccMYxqV9.s:5799   .debug_str:0000000000000571 .LASF229
     /tmp/ccMYxqV9.s:5789   .debug_str:0000000000000524 .LASF230
     /tmp/ccMYxqV9.s:5879   .debug_str:0000000000000808 .LASF231
     /tmp/ccMYxqV9.s:493    .text._ZN14PeriodicThreadD0Ev:0000000000000000 .LVL31
     /tmp/ccMYxqV9.s:525    .text._ZN14PeriodicThreadD0Ev:0000000000000044 .LVL35
     /tmp/ccMYxqV9.s:505    .text._ZN14PeriodicThreadD0Ev:0000000000000018 .LVL32
     /tmp/ccMYxqV9.s:456    .text._ZN14PeriodicThreadD2Ev:0000000000000000 .LVL29
     /tmp/ccMYxqV9.s:1099   .text:00000000000004e8 .LVL79
GAS LISTING /tmp/ccMYxqV9.s 			page 42


     /tmp/ccMYxqV9.s:691    .text:00000000000002ac .LVL46
     /tmp/ccMYxqV9.s:710    .text:00000000000002cc .LVL48
     /tmp/ccMYxqV9.s:748    .text:000000000000030c .LVL52
     /tmp/ccMYxqV9.s:706    .text:00000000000002c8 .LVL47
     /tmp/ccMYxqV9.s:745    .text:0000000000000308 .LVL51
     /tmp/ccMYxqV9.s:1001   .text:000000000000044c .LVL70
     /tmp/ccMYxqV9.s:1019   .text:0000000000000470 .LVL71
     /tmp/ccMYxqV9.s:1049   .text:00000000000004b4 .LVL76
     /tmp/ccMYxqV9.s:1052   .text:00000000000004b8 .LVL77
     /tmp/ccMYxqV9.s:1023   .text:000000000000047c .LVL73
     /tmp/ccMYxqV9.s:1029   .text:0000000000000484 .LVL74
     /tmp/ccMYxqV9.s:938    .text:00000000000003fc .LVL66
     /tmp/ccMYxqV9.s:950    .text:0000000000000410 .LVL67
     /tmp/ccMYxqV9.s:904    .text:00000000000003d0 .LVL63
     /tmp/ccMYxqV9.s:916    .text:00000000000003e4 .LVL64
     /tmp/ccMYxqV9.s:870    .text:00000000000003a4 .LVL60
     /tmp/ccMYxqV9.s:882    .text:00000000000003b8 .LVL61
     /tmp/ccMYxqV9.s:836    .text:0000000000000378 .LVL57
     /tmp/ccMYxqV9.s:848    .text:000000000000038c .LVL58
     /tmp/ccMYxqV9.s:262    .text:00000000000000dc .LVL14
     /tmp/ccMYxqV9.s:287    .text:0000000000000114 .LVL17
     /tmp/ccMYxqV9.s:108    .text:000000000000002c .LVL5
     /tmp/ccMYxqV9.s:124    .text:000000000000004c .LVL6
     /tmp/ccMYxqV9.s:795    .text:0000000000000340 .LVL54
     /tmp/ccMYxqV9.s:811    .text:0000000000000360 .LVL55
     /tmp/ccMYxqV9.s:69     .text:0000000000000000 .LVL2
     /tmp/ccMYxqV9.s:79     .text:0000000000000010 .LVL3
     /tmp/ccMYxqV9.s:659    .text:0000000000000284 .LVL44
     /tmp/ccMYxqV9.s:573    .text:0000000000000208 .LVL37
     /tmp/ccMYxqV9.s:591    .text:0000000000000228 .LVL38
     /tmp/ccMYxqV9.s:605    .text:0000000000000240 .LVL40
     /tmp/ccMYxqV9.s:613    .text:0000000000000250 .LVL41
     /tmp/ccMYxqV9.s:416    .text:000000000000019c .LVL25
     /tmp/ccMYxqV9.s:441    .text:00000000000001d4 .LVL28
     /tmp/ccMYxqV9.s:344    .text:0000000000000144 .LVL20
     /tmp/ccMYxqV9.s:371    .text:0000000000000170 .LVL22
     /tmp/ccMYxqV9.s:364    .text:000000000000016c .LVL21
     /tmp/ccMYxqV9.s:303    .text:000000000000011c .LVL18
     /tmp/ccMYxqV9.s:223    .text:00000000000000b4 .LVL12
     /tmp/ccMYxqV9.s:189    .text:000000000000008c .LVL10
     /tmp/ccMYxqV9.s:157    .text:0000000000000064 .LVL8
     /tmp/ccMYxqV9.s:1164   .debug_info:0000000000000000 .Ldebug_info0
     /tmp/ccMYxqV9.s:8      .text:0000000000000000 .Ltext0
     /tmp/ccMYxqV9.s:1158   .text:0000000000000510 .Letext0
     /tmp/ccMYxqV9.s:141    .gcc_except_table:0000000000000000 .LLSDA40
     /tmp/ccMYxqV9.s:248    .gcc_except_table:0000000000000004 .LLSDA20
     /tmp/ccMYxqV9.s:328    .gcc_except_table:0000000000000008 .LLSDA21
     /tmp/ccMYxqV9.s:400    .gcc_except_table:000000000000000c .LLSDA26
                           .group:0000000000000000 _ZN14PeriodicThreadD5Ev

UNDEFINED SYMBOLS
_Z9sem_closeP11mySemaphore
__gxx_personality_v0
_Z9mem_allocm
_Z8mem_freePv
_ZN3TCBdlEPv
_Z13thread_createPP3TCBPFvPvES2_
GAS LISTING /tmp/ccMYxqV9.s 			page 43


_Z15thread_dispatchv
_Z10time_sleepm
_Z8sem_openPP11mySemaphorej
_Z8sem_waitP11mySemaphore
_Z10sem_signalP11mySemaphore
_Z13sem_timedwaitP11mySemaphorem
_Z11sem_trywaitP11mySemaphore
_Z4getcv
_Z4putcc
