GAS LISTING /tmp/ccTss4Rp.s 			page 1


   1              		.file	"TCB.cpp"
   2              		.option nopic
   3              		.option norelax
   4              		.attribute arch, "rv64i2p0_m2p0_a2p0"
   5              		.attribute unaligned_access, 0
   6              		.attribute stack_align, 16
   7              		.text
   8              	.Ltext0:
   9              		.align	2
  10              		.globl	_ZN3TCB13wraperUsrMainEPv
  12              	_ZN3TCB13wraperUsrMainEPv:
  13              	.LFB47:
  14              		.file 1 "src/TCB.cpp"
   1:src/TCB.cpp   **** 
   2:src/TCB.cpp   **** #include "../h/TCB.hpp"
   3:src/TCB.cpp   **** #include "../h/SleepingQueue.hpp"
   4:src/TCB.cpp   **** #include "../h/Riscv.hpp"
   5:src/TCB.cpp   **** #include "../h/Riscv.hpp"
   6:src/TCB.cpp   **** #include "../h/MemoryAllocator.hpp"
   7:src/TCB.cpp   **** #include "../h/Console.hpp"
   8:src/TCB.cpp   **** #include "../h/Scheduler.hpp"
   9:src/TCB.cpp   **** #include "../test/userMain.hpp"
  10:src/TCB.cpp   **** 
  11:src/TCB.cpp   **** TCB* TCB::running = nullptr;
  12:src/TCB.cpp   **** TCB* TCB::console = nullptr;
  13:src/TCB.cpp   **** TCB* TCB::usrMain = nullptr;
  14:src/TCB.cpp   **** bool TCB::userMode = false;
  15:src/TCB.cpp   **** bool TCB::stopConsole = false;
  16:src/TCB.cpp   **** 
  17:src/TCB.cpp   **** uint64 TCB::timeSliceCounter = 0;
  18:src/TCB.cpp   **** 
  19:src/TCB.cpp   **** TCB *TCB::createThread(Body body, void* arg, void* stack, uint64 timeSlice) {
  20:src/TCB.cpp   ****     return new TCB(body, arg, stack, timeSlice);
  21:src/TCB.cpp   **** }
  22:src/TCB.cpp   **** 
  23:src/TCB.cpp   **** void TCB::yield() {
  24:src/TCB.cpp   **** 
  25:src/TCB.cpp   ****     __asm__ volatile("li a0, 0x13");            //opCode
  26:src/TCB.cpp   ****     __asm__ volatile("ecall");  // celokupni kontekst cuvamo u prekidnoj rutini koju sinhrono ovde 
  27:src/TCB.cpp   **** }
  28:src/TCB.cpp   **** 
  29:src/TCB.cpp   **** //implementirano na vezbama
  30:src/TCB.cpp   **** void TCB::dispatch() {
  31:src/TCB.cpp   ****     TCB *old = running;
  32:src/TCB.cpp   ****     if (old->getStatus() == RUNNING) { Scheduler::put(old); }
  33:src/TCB.cpp   ****     running = Scheduler::get();
  34:src/TCB.cpp   ****     running->setStatus(RUNNING);
  35:src/TCB.cpp   ****     TCB::contextSwitch(&old->context, &running->context);
  36:src/TCB.cpp   **** }
  37:src/TCB.cpp   **** 
  38:src/TCB.cpp   **** //implementirano na vezbama
  39:src/TCB.cpp   **** //zove se kada prvi put kreiramo nit -> tada se u threadWrapper nastavlja izvrsavanje -> necemo iza
  40:src/TCB.cpp   **** void TCB::threadWrapper() {         //zove se iz prekidne rutine (iz koda prekidne rutine) -> i dal
  41:src/TCB.cpp   ****                                     //mozda nam je potrebno promeniti sstatus registar -> skidamo s
  42:src/TCB.cpp   ****     Riscv::popSppSpie();            //zelimo da se izvrsi, da izadjemo iz privilegovanog rezima(iz 
  43:src/TCB.cpp   ****                                     // zato nam je bitno da popSppSpie ne bude inline funkcija, da 
  44:src/TCB.cpp   ****     running->body(running->arg);                //poziva body()
GAS LISTING /tmp/ccTss4Rp.s 			page 2


  45:src/TCB.cpp   ****     running->setStatus(FINISHED);     //kada zavrsi body -> finished = true
  46:src/TCB.cpp   **** 
  47:src/TCB.cpp   ****     // na kraju, ovu funkciju nismo regularno pozvali - pa samim tim ne znamo gde bi trebalo da se 
  48:src/TCB.cpp   ****     // zato cemo pozvati yield(), dok smo prethodno postavili finished na true -> yield ce promenit
  49:src/TCB.cpp   ****     TCB::yield();
  50:src/TCB.cpp   **** }
  51:src/TCB.cpp   **** 
  52:src/TCB.cpp   **** void *TCB::operator new(size_t size) {
  53:src/TCB.cpp   ****     size_t numofBlocks = (size + MemoryAllocator::HEADER_SIZE + MEM_BLOCK_SIZE - 1)/MEM_BLOCK_SIZE;
  54:src/TCB.cpp   ****     return MemoryAllocator::my_mem_alloc(numofBlocks);
  55:src/TCB.cpp   **** }
  56:src/TCB.cpp   **** 
  57:src/TCB.cpp   **** void TCB::operator delete(void *p) {
  58:src/TCB.cpp   ****     MemoryAllocator::my_mem_free(p);
  59:src/TCB.cpp   **** }
  60:src/TCB.cpp   **** //implementirano na vezbama
  61:src/TCB.cpp   **** TCB::TCB(Body body, void* arg, void* stack, uint64 timeSlice) :
  62:src/TCB.cpp   ****         body(body),
  63:src/TCB.cpp   ****         arg(arg),
  64:src/TCB.cpp   ****         stack((uint64*) stack),
  65:src/TCB.cpp   ****         context({
  66:src/TCB.cpp   ****             (uint64) &threadWrapper,                                //podmecemo da se nakon konstru
  67:src/TCB.cpp   ****             (uint64) &(this->stack[DEFAULT_STACK_SIZE])              //POKAZUJE IZNAD NAJVISE LOKAC
  68:src/TCB.cpp   ****                 }),
  69:src/TCB.cpp   ****         timeSlice(timeSlice)
  70:src/TCB.cpp   **** {
  71:src/TCB.cpp   ****     if (body != nullptr) { Scheduler::put(this); }              //za main ce dispatch staviti, a ne
  72:src/TCB.cpp   **** }
  73:src/TCB.cpp   **** 
  74:src/TCB.cpp   **** void TCB::initTCB() {
  75:src/TCB.cpp   ****     TCB* mainThread = new TCB(nullptr, nullptr,nullptr,DEFAULT_TIME_SLICE);
  76:src/TCB.cpp   ****     running = mainThread;
  77:src/TCB.cpp   ****     running->setStatus(RUNNING);
  78:src/TCB.cpp   ****     //enable interrupts
  79:src/TCB.cpp   ****     Riscv::ms_sstatus(Riscv::SSTATUS_SIE);
  80:src/TCB.cpp   ****     myConsole::console_init();
  81:src/TCB.cpp   ****     thread_create(&TCB::console, myConsole::sendCharacterOut, nullptr);
  82:src/TCB.cpp   ****     thread_dispatch();
  83:src/TCB.cpp   ****     TCB::userMode = true;
  84:src/TCB.cpp   ****     thread_create(&TCB::usrMain, TCB::wraperUsrMain, nullptr);
  85:src/TCB.cpp   **** }
  86:src/TCB.cpp   **** 
  87:src/TCB.cpp   **** void TCB::endTCB() {
  88:src/TCB.cpp   ****     while (!TCB::usrMain->isFinished()) {
  89:src/TCB.cpp   ****         thread_dispatch();
  90:src/TCB.cpp   ****     }
  91:src/TCB.cpp   ****     myConsole::numberOfCharToGet = 0;
  92:src/TCB.cpp   ****     myConsole::stopConsole = true;
  93:src/TCB.cpp   ****     while (!TCB::console->isFinished()) {
  94:src/TCB.cpp   ****         thread_dispatch();
  95:src/TCB.cpp   ****     }
  96:src/TCB.cpp   **** }
  97:src/TCB.cpp   **** 
  98:src/TCB.cpp   **** void TCB::prepareThreadCreate(TCB **handle, Body start_routine, void* arg, void* stack_start) {
  99:src/TCB.cpp   **** 
 100:src/TCB.cpp   ****     (*handle) = createThread((TCB::Body) start_routine, arg, stack_start, DEFAULT_TIME_SLICE);
 101:src/TCB.cpp   **** 
GAS LISTING /tmp/ccTss4Rp.s 			page 3


 102:src/TCB.cpp   ****    if (!(*handle)) {
 103:src/TCB.cpp   ****        __asm__ volatile("li a0, 0xffffffffffffffff");           //unsuccessful alloc ret = -1
 104:src/TCB.cpp   ****    }
 105:src/TCB.cpp   ****    __asm__ volatile("li a0, 0");
 106:src/TCB.cpp   **** 
 107:src/TCB.cpp   ****     //save a0 on old context stack
 108:src/TCB.cpp   ****     Riscv::setA0onStack();
 109:src/TCB.cpp   **** }
 110:src/TCB.cpp   **** 
 111:src/TCB.cpp   **** void TCB::prepareThreadExit() {
 112:src/TCB.cpp   ****     TCB::timeSliceCounter = 0;
 113:src/TCB.cpp   ****     TCB::running->setStatus(FINISHED);
 114:src/TCB.cpp   ****     TCB::dispatch();
 115:src/TCB.cpp   ****     //ret value
 116:src/TCB.cpp   ****     __asm__ volatile("li a0, 0");
 117:src/TCB.cpp   **** 
 118:src/TCB.cpp   ****     //save a0 on old context stack
 119:src/TCB.cpp   ****     Riscv::setA0onStack();
 120:src/TCB.cpp   **** }
 121:src/TCB.cpp   **** 
 122:src/TCB.cpp   **** void TCB::prepareTimeSleep(time_t ms) {
 123:src/TCB.cpp   **** 
 124:src/TCB.cpp   ****     TCB::timeSliceCounter = 0;
 125:src/TCB.cpp   ****     int ret = SleepingQueue::setToSleep((time_t) ms);
 126:src/TCB.cpp   ****     TCB::dispatch();
 127:src/TCB.cpp   ****     //ret value
 128:src/TCB.cpp   ****     __asm__ volatile("mv a0, %0" : : "r"(ret));
 129:src/TCB.cpp   **** 
 130:src/TCB.cpp   ****     //save a0 on old context stack
 131:src/TCB.cpp   ****     Riscv::setA0onStack();
 132:src/TCB.cpp   **** }
 133:src/TCB.cpp   **** 
 134:src/TCB.cpp   **** bool TCB::isFinished() {
 135:src/TCB.cpp   ****     return status == FINISHED;
 136:src/TCB.cpp   **** }
 137:src/TCB.cpp   **** 
 138:src/TCB.cpp   **** void TCB::wraperUsrMain(void *) {
  15              		.loc 1 138 33
  16              		.cfi_startproc
  17 0000 130101FF 		addi	sp,sp,-16
  18              		.cfi_def_cfa_offset 16
  19 0004 23341100 		sd	ra,8(sp)
  20 0008 23308100 		sd	s0,0(sp)
  21              		.cfi_offset 1, -8
  22              		.cfi_offset 8, -16
  23 000c 13040101 		addi	s0,sp,16
  24              		.cfi_def_cfa 8, 0
 139:src/TCB.cpp   ****     userMain();
  25              		.loc 1 139 5
  26              		.loc 1 139 13 is_stmt 0
  27 0010 97000000 		call	_Z8userMainv
  27      E7800000 
  28              	.LVL0:
 140:src/TCB.cpp   **** }
  29              		.loc 1 140 1
  30 0018 83308100 		ld	ra,8(sp)
  31              		.cfi_restore 1
GAS LISTING /tmp/ccTss4Rp.s 			page 4


  32 001c 03340100 		ld	s0,0(sp)
  33              		.cfi_restore 8
  34              		.cfi_def_cfa 2, 16
  35 0020 13010101 		addi	sp,sp,16
  36              		.cfi_def_cfa_offset 0
  37 0024 67800000 		jr	ra
  38              		.cfi_endproc
  39              	.LFE47:
  41              		.align	2
  42              		.globl	_ZN3TCB5yieldEv
  44              	_ZN3TCB5yieldEv:
  45              	.LFB33:
  23:src/TCB.cpp   **** 
  46              		.loc 1 23 19 is_stmt 1
  47              		.cfi_startproc
  48 0028 130101FF 		addi	sp,sp,-16
  49              		.cfi_def_cfa_offset 16
  50 002c 23348100 		sd	s0,8(sp)
  51              		.cfi_offset 8, -8
  52 0030 13040101 		addi	s0,sp,16
  53              		.cfi_def_cfa 8, 0
  25:src/TCB.cpp   ****     __asm__ volatile("ecall");  // celokupni kontekst cuvamo u prekidnoj rutini koju sinhrono ovde 
  54              		.loc 1 25 5
  25:src/TCB.cpp   ****     __asm__ volatile("ecall");  // celokupni kontekst cuvamo u prekidnoj rutini koju sinhrono ovde 
  55              		.loc 1 25 36 is_stmt 0
  56              	 #APP
  57              	# 25 "src/TCB.cpp" 1
  26:src/TCB.cpp   **** }
  58              		li a0, 0x13
  59              	# 0 "" 2
  60              		.loc 1 26 5 is_stmt 1
  26:src/TCB.cpp   **** }
  61              		.loc 1 26 30 is_stmt 0
  62              	# 26 "src/TCB.cpp" 1
  27:src/TCB.cpp   **** 
  63              		ecall
  64              	# 0 "" 2
  65              		.loc 1 27 1
  66              	 #NO_APP
  67 003c 03348100 		ld	s0,8(sp)
  68              		.cfi_restore 8
  69              		.cfi_def_cfa 2, 16
  70 0040 13010101 		addi	sp,sp,16
  71              		.cfi_def_cfa_offset 0
  72 0044 67800000 		jr	ra
  73              		.cfi_endproc
  74              	.LFE33:
  76              		.align	2
  77              		.globl	_ZN3TCB13threadWrapperEv
  79              	_ZN3TCB13threadWrapperEv:
  80              	.LFB35:
  40:src/TCB.cpp   ****                                     //mozda nam je potrebno promeniti sstatus registar -> skidamo s
  81              		.loc 1 40 27 is_stmt 1
  82              		.cfi_startproc
  83 0048 130101FE 		addi	sp,sp,-32
  84              		.cfi_def_cfa_offset 32
  85 004c 233C1100 		sd	ra,24(sp)
GAS LISTING /tmp/ccTss4Rp.s 			page 5


  86 0050 23388100 		sd	s0,16(sp)
  87 0054 23349100 		sd	s1,8(sp)
  88              		.cfi_offset 1, -8
  89              		.cfi_offset 8, -16
  90              		.cfi_offset 9, -24
  91 0058 13040102 		addi	s0,sp,32
  92              		.cfi_def_cfa 8, 0
  42:src/TCB.cpp   ****                                     // zato nam je bitno da popSppSpie ne bude inline funkcija, da 
  93              		.loc 1 42 5
  42:src/TCB.cpp   ****                                     // zato nam je bitno da popSppSpie ne bude inline funkcija, da 
  94              		.loc 1 42 22 is_stmt 0
  95 005c 97000000 		call	_ZN5Riscv10popSppSpieEv
  95      E7800000 
  96              	.LVL1:
  44:src/TCB.cpp   ****     running->setStatus(FINISHED);     //kada zavrsi body -> finished = true
  97              		.loc 1 44 5 is_stmt 1
  44:src/TCB.cpp   ****     running->setStatus(FINISHED);     //kada zavrsi body -> finished = true
  98              		.loc 1 44 14 is_stmt 0
  99 0064 97040000 		lla	s1,_ZN3TCB7runningE
  99      93840400 
 100 006c 83B70400 		ld	a5,0(s1)
 101 0070 03B78700 		ld	a4,8(a5)
  44:src/TCB.cpp   ****     running->setStatus(FINISHED);     //kada zavrsi body -> finished = true
 102              		.loc 1 44 18
 103 0074 03B50701 		ld	a0,16(a5)
 104 0078 E7000700 		jalr	a4
 105              	.LVL2:
  45:src/TCB.cpp   **** 
 106              		.loc 1 45 5 is_stmt 1
  45:src/TCB.cpp   **** 
 107              		.loc 1 45 23 is_stmt 0
 108 007c 83B70400 		ld	a5,0(s1)
 109              	.LVL3:
 110              	.LBB14:
 111              	.LBB15:
 112              		.file 2 "src/../h/TCB.hpp"
   1:src/../h/TCB.hpp **** 
   2:src/../h/TCB.hpp **** #ifndef PROJECT_BASE_TCB_HPP
   3:src/../h/TCB.hpp **** #define PROJECT_BASE_TCB_HPP
   4:src/../h/TCB.hpp **** 
   5:src/../h/TCB.hpp **** #include "../lib/hw.h"
   6:src/../h/TCB.hpp **** #include "Scheduler.hpp"
   7:src/../h/TCB.hpp **** #include "print.hpp"
   8:src/../h/TCB.hpp **** 
   9:src/../h/TCB.hpp **** //IZ KNJIGE - iskoriscena stanja niti + TCB klasa je vecim delom implementirana na vezbama
  10:src/../h/TCB.hpp **** enum Status {RUNNING, SUSPENDED, SLEEPING, FINISHED};
  11:src/../h/TCB.hpp **** 
  12:src/../h/TCB.hpp **** class TCB {
  13:src/../h/TCB.hpp **** public:
  14:src/../h/TCB.hpp ****     void* operator new(size_t size);
  15:src/../h/TCB.hpp ****     void operator delete(void *p);
  16:src/../h/TCB.hpp **** 
  17:src/../h/TCB.hpp ****     ~TCB() { delete[] stack; }
  18:src/../h/TCB.hpp ****     using Body = void (*) (void*);
  19:src/../h/TCB.hpp ****     static TCB* createThread(Body body, void* arg, void* stack, uint64 timeSlice);
  20:src/../h/TCB.hpp **** 
  21:src/../h/TCB.hpp ****     Status getStatus() { return status; }
GAS LISTING /tmp/ccTss4Rp.s 			page 6


  22:src/../h/TCB.hpp ****     void setStatus(Status s) { status = s; }
 113              		.loc 2 22 32 is_stmt 1
 114              		.loc 2 22 39 is_stmt 0
 115 0080 13073000 		li	a4,3
 116 0084 23A8E702 		sw	a4,48(a5)
 117              	.LVL4:
 118              	.LBE15:
 119              	.LBE14:
  49:src/TCB.cpp   **** }
 120              		.loc 1 49 5 is_stmt 1
  49:src/TCB.cpp   **** }
 121              		.loc 1 49 15 is_stmt 0
 122 0088 97000000 		call	_ZN3TCB5yieldEv
 122      E7800000 
 123              	.LVL5:
  50:src/TCB.cpp   **** 
 124              		.loc 1 50 1
 125 0090 83308101 		ld	ra,24(sp)
 126              		.cfi_restore 1
 127 0094 03340101 		ld	s0,16(sp)
 128              		.cfi_restore 8
 129              		.cfi_def_cfa 2, 32
 130 0098 83348100 		ld	s1,8(sp)
 131              		.cfi_restore 9
 132 009c 13010102 		addi	sp,sp,32
 133              		.cfi_def_cfa_offset 0
 134 00a0 67800000 		jr	ra
 135              		.cfi_endproc
 136              	.LFE35:
 138              		.align	2
 139              		.globl	_ZN3TCB8dispatchEv
 141              	_ZN3TCB8dispatchEv:
 142              	.LFB34:
  30:src/TCB.cpp   ****     TCB *old = running;
 143              		.loc 1 30 22 is_stmt 1
 144              		.cfi_startproc
 145 00a4 130101FE 		addi	sp,sp,-32
 146              		.cfi_def_cfa_offset 32
 147 00a8 233C1100 		sd	ra,24(sp)
 148 00ac 23388100 		sd	s0,16(sp)
 149 00b0 23349100 		sd	s1,8(sp)
 150              		.cfi_offset 1, -8
 151              		.cfi_offset 8, -16
 152              		.cfi_offset 9, -24
 153 00b4 13040102 		addi	s0,sp,32
 154              		.cfi_def_cfa 8, 0
  31:src/TCB.cpp   ****     if (old->getStatus() == RUNNING) { Scheduler::put(old); }
 155              		.loc 1 31 5
  31:src/TCB.cpp   ****     if (old->getStatus() == RUNNING) { Scheduler::put(old); }
 156              		.loc 1 31 10 is_stmt 0
 157 00b8 97040000 		ld	s1,_ZN3TCB7runningE
 157      83B40400 
 158              	.LVL6:
  32:src/TCB.cpp   ****     running = Scheduler::get();
 159              		.loc 1 32 5 is_stmt 1
 160              	.LBB16:
 161              	.LBB17:
GAS LISTING /tmp/ccTss4Rp.s 			page 7


  21:src/../h/TCB.hpp ****     void setStatus(Status s) { status = s; }
 162              		.loc 2 21 26
  21:src/../h/TCB.hpp ****     void setStatus(Status s) { status = s; }
 163              		.loc 2 21 33 is_stmt 0
 164 00c0 83A70403 		lw	a5,48(s1)
 165              	.LVL7:
 166              	.LBE17:
 167              	.LBE16:
  32:src/TCB.cpp   ****     running = Scheduler::get();
 168              		.loc 1 32 5
 169 00c4 638E0702 		beqz	a5,.L10
 170              	.L8:
  33:src/TCB.cpp   ****     running->setStatus(RUNNING);
 171              		.loc 1 33 5 is_stmt 1
  33:src/TCB.cpp   ****     running->setStatus(RUNNING);
 172              		.loc 1 33 29 is_stmt 0
 173 00c8 97000000 		call	_ZN9Scheduler3getEv
 173      E7800000 
 174              	.LVL8:
  33:src/TCB.cpp   ****     running->setStatus(RUNNING);
 175              		.loc 1 33 13
 176 00d0 97070000 		sd	a0,_ZN3TCB7runningE,a5
 176      23B0A700 
  34:src/TCB.cpp   ****     TCB::contextSwitch(&old->context, &running->context);
 177              		.loc 1 34 5 is_stmt 1
 178              	.LVL9:
 179              	.LBB18:
 180              	.LBB19:
 181              		.loc 2 22 32
 182              		.loc 2 22 39 is_stmt 0
 183 00d8 23280502 		sw	zero,48(a0)
 184              	.LVL10:
 185              	.LBE19:
 186              	.LBE18:
  35:src/TCB.cpp   **** }
 187              		.loc 1 35 5 is_stmt 1
  35:src/TCB.cpp   **** }
 188              		.loc 1 35 23 is_stmt 0
 189 00dc 93050502 		addi	a1,a0,32
 190 00e0 13850402 		addi	a0,s1,32
 191 00e4 97000000 		call	_ZN3TCB13contextSwitchEPNS_7ContextES1_
 191      E7800000 
 192              	.LVL11:
  36:src/TCB.cpp   **** 
 193              		.loc 1 36 1
 194 00ec 83308101 		ld	ra,24(sp)
 195              		.cfi_remember_state
 196              		.cfi_restore 1
 197 00f0 03340101 		ld	s0,16(sp)
 198              		.cfi_restore 8
 199              		.cfi_def_cfa 2, 32
 200 00f4 83348100 		ld	s1,8(sp)
 201              		.cfi_restore 9
 202              	.LVL12:
 203 00f8 13010102 		addi	sp,sp,32
 204              		.cfi_def_cfa_offset 0
 205 00fc 67800000 		jr	ra
GAS LISTING /tmp/ccTss4Rp.s 			page 8


 206              	.LVL13:
 207              	.L10:
 208              		.cfi_restore_state
  32:src/TCB.cpp   ****     running = Scheduler::get();
 209              		.loc 1 32 40 is_stmt 1 discriminator 1
  32:src/TCB.cpp   ****     running = Scheduler::get();
 210              		.loc 1 32 54 is_stmt 0 discriminator 1
 211 0100 13850400 		mv	a0,s1
 212 0104 97000000 		call	_ZN9Scheduler3putEP3TCB
 212      E7800000 
 213              	.LVL14:
 214 010c 6FF0DFFB 		j	.L8
 215              		.cfi_endproc
 216              	.LFE34:
 218              		.align	2
 219              		.globl	_ZN3TCBnwEm
 221              	_ZN3TCBnwEm:
 222              	.LFB36:
  52:src/TCB.cpp   ****     size_t numofBlocks = (size + MemoryAllocator::HEADER_SIZE + MEM_BLOCK_SIZE - 1)/MEM_BLOCK_SIZE;
 223              		.loc 1 52 38 is_stmt 1
 224              		.cfi_startproc
 225              	.LVL15:
 226 0110 130101FF 		addi	sp,sp,-16
 227              		.cfi_def_cfa_offset 16
 228 0114 23341100 		sd	ra,8(sp)
 229 0118 23308100 		sd	s0,0(sp)
 230              		.cfi_offset 1, -8
 231              		.cfi_offset 8, -16
 232 011c 13040101 		addi	s0,sp,16
 233              		.cfi_def_cfa 8, 0
  53:src/TCB.cpp   ****     return MemoryAllocator::my_mem_alloc(numofBlocks);
 234              		.loc 1 53 5
  53:src/TCB.cpp   ****     return MemoryAllocator::my_mem_alloc(numofBlocks);
 235              		.loc 1 53 80 is_stmt 0
 236 0120 1305F504 		addi	a0,a0,79
 237              	.LVL16:
  54:src/TCB.cpp   **** }
 238              		.loc 1 54 5 is_stmt 1
  54:src/TCB.cpp   **** }
 239              		.loc 1 54 41 is_stmt 0
 240 0124 13556500 		srli	a0,a0,6
 241              	.LVL17:
 242 0128 97000000 		call	_ZN15MemoryAllocator12my_mem_allocEm
 242      E7800000 
 243              	.LVL18:
  55:src/TCB.cpp   **** 
 244              		.loc 1 55 1
 245 0130 83308100 		ld	ra,8(sp)
 246              		.cfi_restore 1
 247 0134 03340100 		ld	s0,0(sp)
 248              		.cfi_restore 8
 249              		.cfi_def_cfa 2, 16
 250 0138 13010101 		addi	sp,sp,16
 251              		.cfi_def_cfa_offset 0
 252 013c 67800000 		jr	ra
 253              		.cfi_endproc
 254              	.LFE36:
GAS LISTING /tmp/ccTss4Rp.s 			page 9


 256              		.align	2
 257              		.globl	_ZN3TCBdlEPv
 259              	_ZN3TCBdlEPv:
 260              	.LFB37:
  57:src/TCB.cpp   ****     MemoryAllocator::my_mem_free(p);
 261              		.loc 1 57 36 is_stmt 1
 262              		.cfi_startproc
 263              	.LVL19:
 264 0140 130101FF 		addi	sp,sp,-16
 265              		.cfi_def_cfa_offset 16
 266 0144 23341100 		sd	ra,8(sp)
 267 0148 23308100 		sd	s0,0(sp)
 268              		.cfi_offset 1, -8
 269              		.cfi_offset 8, -16
 270 014c 13040101 		addi	s0,sp,16
 271              		.cfi_def_cfa 8, 0
  58:src/TCB.cpp   **** }
 272              		.loc 1 58 5
  58:src/TCB.cpp   **** }
 273              		.loc 1 58 33 is_stmt 0
 274 0150 97000000 		call	_ZN15MemoryAllocator11my_mem_freeEPKv
 274      E7800000 
 275              	.LVL20:
  59:src/TCB.cpp   **** //implementirano na vezbama
 276              		.loc 1 59 1
 277 0158 83308100 		ld	ra,8(sp)
 278              		.cfi_restore 1
 279 015c 03340100 		ld	s0,0(sp)
 280              		.cfi_restore 8
 281              		.cfi_def_cfa 2, 16
 282 0160 13010101 		addi	sp,sp,16
 283              		.cfi_def_cfa_offset 0
 284 0164 67800000 		jr	ra
 285              		.cfi_endproc
 286              	.LFE37:
 288              		.align	2
 289              		.globl	_ZN3TCBC2EPFvPvES0_S0_m
 291              	_ZN3TCBC2EPFvPvES0_S0_m:
 292              	.LFB39:
  61:src/TCB.cpp   ****         body(body),
 293              		.loc 1 61 1 is_stmt 1
 294              		.cfi_startproc
 295              	.LVL21:
 296              	.LBB20:
  69:src/TCB.cpp   **** {
 297              		.loc 1 69 28 is_stmt 0
 298 0168 2334B500 		sd	a1,8(a0)
 299 016c 2338C500 		sd	a2,16(a0)
 300 0170 233CD500 		sd	a3,24(a0)
 301 0174 97070000 		lla	a5,_ZN3TCB13threadWrapperEv
 301      93870700 
 302 017c 2330F502 		sd	a5,32(a0)
  67:src/TCB.cpp   ****                 }),
 303              		.loc 1 67 22
 304 0180 B7870000 		li	a5,32768
 305 0184 B386F600 		add	a3,a3,a5
 306              	.LVL22:
GAS LISTING /tmp/ccTss4Rp.s 			page 10


  69:src/TCB.cpp   **** {
 307              		.loc 1 69 28
 308 0188 2334D502 		sd	a3,40(a0)
 309 018c 233CE502 		sd	a4,56(a0)
  71:src/TCB.cpp   **** }
 310              		.loc 1 71 5 is_stmt 1
 311 0190 63860502 		beqz	a1,.L18
 312              	.LBE20:
  61:src/TCB.cpp   ****         body(body),
 313              		.loc 1 61 1 is_stmt 0 discriminator 1
 314 0194 130101FF 		addi	sp,sp,-16
 315              		.cfi_def_cfa_offset 16
 316 0198 23341100 		sd	ra,8(sp)
 317              	.LVL23:
 318 019c 23308100 		sd	s0,0(sp)
 319              		.cfi_offset 1, -8
 320              		.cfi_offset 8, -16
 321 01a0 13040101 		addi	s0,sp,16
 322              		.cfi_def_cfa 8, 0
 323              	.LBB21:
  71:src/TCB.cpp   **** }
 324              		.loc 1 71 28 is_stmt 1 discriminator 1
  71:src/TCB.cpp   **** }
 325              		.loc 1 71 42 is_stmt 0 discriminator 1
 326 01a4 97000000 		call	_ZN9Scheduler3putEP3TCB
 326      E7800000 
 327              	.LVL24:
 328              	.LBE21:
  72:src/TCB.cpp   **** 
 329              		.loc 1 72 1 discriminator 1
 330 01ac 83308100 		ld	ra,8(sp)
 331              		.cfi_restore 1
 332 01b0 03340100 		ld	s0,0(sp)
 333              		.cfi_restore 8
 334              		.cfi_def_cfa 2, 16
 335 01b4 13010101 		addi	sp,sp,16
 336              		.cfi_def_cfa_offset 0
 337 01b8 67800000 		jr	ra
 338              	.LVL25:
 339              	.L18:
 340 01bc 67800000 		ret
 341              		.cfi_endproc
 342              	.LFE39:
 344              		.globl	_ZN3TCBC1EPFvPvES0_S0_m
 345              		.set	_ZN3TCBC1EPFvPvES0_S0_m,_ZN3TCBC2EPFvPvES0_S0_m
 346              		.align	2
 347              		.globl	_ZN3TCB12createThreadEPFvPvES0_S0_m
 349              	_ZN3TCB12createThreadEPFvPvES0_S0_m:
 350              	.LFB32:
  19:src/TCB.cpp   ****     return new TCB(body, arg, stack, timeSlice);
 351              		.loc 1 19 77 is_stmt 1
 352              		.cfi_startproc
 353              		.cfi_personality 0x9b,DW.ref.__gxx_personality_v0
 354              		.cfi_lsda 0x1b,.LLSDA32
 355              	.LVL26:
 356 01c0 130101FC 		addi	sp,sp,-64
 357              		.cfi_def_cfa_offset 64
GAS LISTING /tmp/ccTss4Rp.s 			page 11


 358 01c4 233C1102 		sd	ra,56(sp)
 359 01c8 23388102 		sd	s0,48(sp)
 360 01cc 23349102 		sd	s1,40(sp)
 361 01d0 23302103 		sd	s2,32(sp)
 362 01d4 233C3101 		sd	s3,24(sp)
 363 01d8 23384101 		sd	s4,16(sp)
 364 01dc 23345101 		sd	s5,8(sp)
 365              		.cfi_offset 1, -8
 366              		.cfi_offset 8, -16
 367              		.cfi_offset 9, -24
 368              		.cfi_offset 18, -32
 369              		.cfi_offset 19, -40
 370              		.cfi_offset 20, -48
 371              		.cfi_offset 21, -56
 372 01e0 13040104 		addi	s0,sp,64
 373              		.cfi_def_cfa 8, 0
 374 01e4 13090500 		mv	s2,a0
 375 01e8 93890500 		mv	s3,a1
 376 01ec 130A0600 		mv	s4,a2
 377 01f0 938A0600 		mv	s5,a3
  20:src/TCB.cpp   **** }
 378              		.loc 1 20 5
  20:src/TCB.cpp   **** }
 379              		.loc 1 20 47 is_stmt 0
 380 01f4 13050004 		li	a0,64
 381              	.LVL27:
 382              	.LEHB0:
 383 01f8 97000000 		call	_ZN3TCBnwEm
 383      E7800000 
 384              	.LVL28:
 385              	.LEHE0:
 386 0200 93040500 		mv	s1,a0
 387 0204 13870A00 		mv	a4,s5
 388 0208 93060A00 		mv	a3,s4
 389 020c 13860900 		mv	a2,s3
 390 0210 93050900 		mv	a1,s2
 391              	.LEHB1:
 392 0214 97000000 		call	_ZN3TCBC1EPFvPvES0_S0_m
 392      E7800000 
 393              	.LVL29:
 394              	.LEHE1:
 395 021c 6F000002 		j	.L26
 396              	.L23:
 397 0220 13090500 		mv	s2,a0
 398              	.LVL30:
 399 0224 13850400 		mv	a0,s1
 400 0228 97000000 		call	_ZN3TCBdlEPv
 400      E7800000 
 401              	.LVL31:
 402 0230 13050900 		mv	a0,s2
 403              	.LEHB2:
 404 0234 97000000 		call	_Unwind_Resume
 404      E7800000 
 405              	.LVL32:
 406              	.LEHE2:
 407              	.L26:
  21:src/TCB.cpp   **** 
GAS LISTING /tmp/ccTss4Rp.s 			page 12


 408              		.loc 1 21 1
 409 023c 13850400 		mv	a0,s1
 410 0240 83308103 		ld	ra,56(sp)
 411              		.cfi_restore 1
 412 0244 03340103 		ld	s0,48(sp)
 413              		.cfi_restore 8
 414              		.cfi_def_cfa 2, 64
 415 0248 83348102 		ld	s1,40(sp)
 416              		.cfi_restore 9
 417 024c 03390102 		ld	s2,32(sp)
 418              		.cfi_restore 18
 419              	.LVL33:
 420 0250 83398101 		ld	s3,24(sp)
 421              		.cfi_restore 19
 422              	.LVL34:
 423 0254 033A0101 		ld	s4,16(sp)
 424              		.cfi_restore 20
 425              	.LVL35:
 426 0258 833A8100 		ld	s5,8(sp)
 427              		.cfi_restore 21
 428              	.LVL36:
 429 025c 13010104 		addi	sp,sp,64
 430              		.cfi_def_cfa_offset 0
 431 0260 67800000 		jr	ra
 432              		.cfi_endproc
 433              	.LFE32:
 434              		.globl	__gxx_personality_v0
 435              		.section	.gcc_except_table,"aw",@progbits
 436              	.LLSDA32:
 437 0000 FF       		.byte	0xff
 438 0001 FF       		.byte	0xff
 439 0002 03       		.byte	0x3
 440 0003 27       		.byte	0x27
 441 0004 00000000 		.4byte	.LEHB0-.LFB32
 442 0008 00000000 		.4byte	.LEHE0-.LEHB0
 443 000c 00000000 		.4byte	0
 444 0010 00       		.byte	0
 445 0011 00000000 		.4byte	.LEHB1-.LFB32
 446 0015 00000000 		.4byte	.LEHE1-.LEHB1
 447 0019 00000000 		.4byte	.L23-.LFB32
 448 001d 00       		.byte	0
 449 001e 00000000 		.4byte	.LEHB2-.LFB32
 450 0022 00000000 		.4byte	.LEHE2-.LEHB2
 451 0026 00000000 		.4byte	0
 452 002a 00       		.byte	0
 453              		.text
 455              		.align	2
 456              		.globl	_ZN3TCB7initTCBEv
 458              	_ZN3TCB7initTCBEv:
 459              	.LFB41:
  74:src/TCB.cpp   ****     TCB* mainThread = new TCB(nullptr, nullptr,nullptr,DEFAULT_TIME_SLICE);
 460              		.loc 1 74 21 is_stmt 1
 461              		.cfi_startproc
 462              		.cfi_personality 0x9b,DW.ref.__gxx_personality_v0
 463              		.cfi_lsda 0x1b,.LLSDA41
 464 0264 130101FE 		addi	sp,sp,-32
 465              		.cfi_def_cfa_offset 32
GAS LISTING /tmp/ccTss4Rp.s 			page 13


 466 0268 233C1100 		sd	ra,24(sp)
 467 026c 23388100 		sd	s0,16(sp)
 468 0270 23349100 		sd	s1,8(sp)
 469 0274 23302101 		sd	s2,0(sp)
 470              		.cfi_offset 1, -8
 471              		.cfi_offset 8, -16
 472              		.cfi_offset 9, -24
 473              		.cfi_offset 18, -32
 474 0278 13040102 		addi	s0,sp,32
 475              		.cfi_def_cfa 8, 0
  75:src/TCB.cpp   ****     running = mainThread;
 476              		.loc 1 75 5
  75:src/TCB.cpp   ****     running = mainThread;
 477              		.loc 1 75 74 is_stmt 0
 478 027c 13050004 		li	a0,64
 479              	.LEHB3:
 480 0280 97000000 		call	_ZN3TCBnwEm
 480      E7800000 
 481              	.LVL37:
 482              	.LEHE3:
 483 0288 93040500 		mv	s1,a0
 484 028c 13072000 		li	a4,2
 485 0290 93060000 		li	a3,0
 486 0294 13060000 		li	a2,0
 487 0298 93050000 		li	a1,0
 488              	.LEHB4:
 489 029c 97000000 		call	_ZN3TCBC1EPFvPvES0_S0_m
 489      E7800000 
 490              	.LVL38:
 491              	.LEHE4:
  76:src/TCB.cpp   ****     running->setStatus(RUNNING);
 492              		.loc 1 76 5 is_stmt 1 discriminator 2
  76:src/TCB.cpp   ****     running->setStatus(RUNNING);
 493              		.loc 1 76 13 is_stmt 0 discriminator 2
 494 02a4 97070000 		sd	s1,_ZN3TCB7runningE,a5
 494      23B09700 
  77:src/TCB.cpp   ****     //enable interrupts
 495              		.loc 1 77 5 is_stmt 1 discriminator 2
 496              	.LVL39:
 497              	.LBB22:
 498              	.LBB23:
 499              		.loc 2 22 32 discriminator 2
 500              		.loc 2 22 39 is_stmt 0 discriminator 2
 501 02ac 23A80402 		sw	zero,48(s1)
 502              	.LVL40:
 503              	.LBE23:
 504              	.LBE22:
  79:src/TCB.cpp   ****     myConsole::console_init();
 505              		.loc 1 79 5 is_stmt 1 discriminator 2
 506              	.LBB24:
 507              	.LBB25:
 508              		.file 3 "src/../h/Riscv.hpp"
   1:src/../h/Riscv.hpp **** 
   2:src/../h/Riscv.hpp **** #ifndef PROJECT_BASE_RISCV_HPP
   3:src/../h/Riscv.hpp **** #define PROJECT_BASE_RISCV_HPP
   4:src/../h/Riscv.hpp **** 
   5:src/../h/Riscv.hpp **** #include "../lib/hw.h"
GAS LISTING /tmp/ccTss4Rp.s 			page 14


   6:src/../h/Riscv.hpp **** #include "../h/TCB.hpp"
   7:src/../h/Riscv.hpp **** 
   8:src/../h/Riscv.hpp **** class Riscv
   9:src/../h/Riscv.hpp **** {
  10:src/../h/Riscv.hpp **** public:
  11:src/../h/Riscv.hpp ****     static int brojac;  //za takt
  12:src/../h/Riscv.hpp **** 
  13:src/../h/Riscv.hpp ****     // pop sstatus.spp and sstatus.spie bits (has to be a non-inline function) - da bi se pozivala,
  14:src/../h/Riscv.hpp ****     static void popSppSpie();
  15:src/../h/Riscv.hpp **** 
  16:src/../h/Riscv.hpp ****     //podmetanje a0, na stek (sacuvan kontekst)
  17:src/../h/Riscv.hpp ****     static void setA0onStack();
  18:src/../h/Riscv.hpp **** 
  19:src/../h/Riscv.hpp ****     // push x3..x31 registers onto stack
  20:src/../h/Riscv.hpp ****     static void pushRegisters();        //mangling jer ih definisemo u asembleru
  21:src/../h/Riscv.hpp **** 
  22:src/../h/Riscv.hpp ****     // pop x3..x31 registers onto stack
  23:src/../h/Riscv.hpp ****     static void popRegisters();
  24:src/../h/Riscv.hpp **** 
  25:src/../h/Riscv.hpp ****     // read register scause
  26:src/../h/Riscv.hpp ****     static uint64 r_scause();
  27:src/../h/Riscv.hpp **** 
  28:src/../h/Riscv.hpp ****     // write register scause
  29:src/../h/Riscv.hpp ****     static void w_scause(uint64 scause);
  30:src/../h/Riscv.hpp **** 
  31:src/../h/Riscv.hpp ****     // read register sepc
  32:src/../h/Riscv.hpp ****     static uint64 r_sepc();
  33:src/../h/Riscv.hpp **** 
  34:src/../h/Riscv.hpp ****     // write register sepc
  35:src/../h/Riscv.hpp ****     static void w_sepc(uint64 sepc);
  36:src/../h/Riscv.hpp **** 
  37:src/../h/Riscv.hpp ****     // read register stvec
  38:src/../h/Riscv.hpp ****     static uint64 r_stvec();
  39:src/../h/Riscv.hpp **** 
  40:src/../h/Riscv.hpp ****     // write register stvec
  41:src/../h/Riscv.hpp ****     static void w_stvec(uint64 stvec);
  42:src/../h/Riscv.hpp **** 
  43:src/../h/Riscv.hpp ****     // read register stval
  44:src/../h/Riscv.hpp ****     static uint64 r_stval();
  45:src/../h/Riscv.hpp **** 
  46:src/../h/Riscv.hpp ****     // write register stval
  47:src/../h/Riscv.hpp ****     static void w_stval(uint64 stval);
  48:src/../h/Riscv.hpp **** 
  49:src/../h/Riscv.hpp ****     enum BitMaskSip
  50:src/../h/Riscv.hpp ****     {
  51:src/../h/Riscv.hpp ****         SIP_SSIP = (1 << 1),
  52:src/../h/Riscv.hpp ****         SIP_STIP = (1 << 5),
  53:src/../h/Riscv.hpp ****         SIP_SEIP = (1 << 9),
  54:src/../h/Riscv.hpp ****     };
  55:src/../h/Riscv.hpp **** 
  56:src/../h/Riscv.hpp ****     // mask set register sip
  57:src/../h/Riscv.hpp ****     static void ms_sip(uint64 mask);
  58:src/../h/Riscv.hpp **** 
  59:src/../h/Riscv.hpp ****     // mask clear register sip
  60:src/../h/Riscv.hpp ****     static void mc_sip(uint64 mask);
  61:src/../h/Riscv.hpp **** 
  62:src/../h/Riscv.hpp ****     // read register sip
GAS LISTING /tmp/ccTss4Rp.s 			page 15


  63:src/../h/Riscv.hpp ****     static uint64 r_sip();
  64:src/../h/Riscv.hpp **** 
  65:src/../h/Riscv.hpp ****     // write register sip
  66:src/../h/Riscv.hpp ****     static void w_sip(uint64 sip);
  67:src/../h/Riscv.hpp **** 
  68:src/../h/Riscv.hpp ****     enum BitMaskSstatus
  69:src/../h/Riscv.hpp ****     {
  70:src/../h/Riscv.hpp ****         SSTATUS_SIE = (1 << 1),
  71:src/../h/Riscv.hpp ****         SSTATUS_SPIE = (1 << 5),
  72:src/../h/Riscv.hpp ****         SSTATUS_SPP = (1 << 8),
  73:src/../h/Riscv.hpp ****     };
  74:src/../h/Riscv.hpp **** 
  75:src/../h/Riscv.hpp ****     // mask set register sstatus
  76:src/../h/Riscv.hpp ****     static void ms_sstatus(uint64 mask);
  77:src/../h/Riscv.hpp **** 
  78:src/../h/Riscv.hpp ****     // mask clear register sstatus
  79:src/../h/Riscv.hpp ****     static void mc_sstatus(uint64 mask);
  80:src/../h/Riscv.hpp **** 
  81:src/../h/Riscv.hpp ****     // read register sstatus
  82:src/../h/Riscv.hpp ****     static uint64 r_sstatus();
  83:src/../h/Riscv.hpp **** 
  84:src/../h/Riscv.hpp ****     // write register sstatus
  85:src/../h/Riscv.hpp ****     static void w_sstatus(uint64 sstatus);
  86:src/../h/Riscv.hpp **** 
  87:src/../h/Riscv.hpp ****     // supervisor trap
  88:src/../h/Riscv.hpp ****     static void supervisorTrap();       // is implemented in .S file
  89:src/../h/Riscv.hpp **** 
  90:src/../h/Riscv.hpp **** private:
  91:src/../h/Riscv.hpp ****     // CONSTANTS
  92:src/../h/Riscv.hpp ****     static const uint64 bntOne = 1UL << 63;
  93:src/../h/Riscv.hpp ****     static const uint64 bntZero = 0UL;
  94:src/../h/Riscv.hpp ****     static const uint64 timerInt = bntOne + 1UL;
  95:src/../h/Riscv.hpp ****     static const uint64 hwInt = bntOne + 9UL;
  96:src/../h/Riscv.hpp ****     static const uint64 opInt = bntZero + 2UL;
  97:src/../h/Riscv.hpp ****     static const uint64 addrRdInt = bntZero + 5UL;
  98:src/../h/Riscv.hpp ****     static const uint64 addrWrInt = bntZero + 7UL;
  99:src/../h/Riscv.hpp ****     static const uint64 ecallUsrInt = bntZero + 8UL;
 100:src/../h/Riscv.hpp ****     static const uint64 ecallSysInt = bntZero + 9UL;
 101:src/../h/Riscv.hpp **** 
 102:src/../h/Riscv.hpp **** 
 103:src/../h/Riscv.hpp ****     // supervisor trap handler
 104:src/../h/Riscv.hpp ****     static void handleSupervisorTrap();
 105:src/../h/Riscv.hpp **** 
 106:src/../h/Riscv.hpp ****     static void changePrivMode();
 107:src/../h/Riscv.hpp **** 
 108:src/../h/Riscv.hpp ****     friend class mySemaphore;
 109:src/../h/Riscv.hpp ****     friend class TCB;
 110:src/../h/Riscv.hpp **** 
 111:src/../h/Riscv.hpp **** };
 112:src/../h/Riscv.hpp **** 
 113:src/../h/Riscv.hpp **** inline uint64 Riscv::r_scause()
 114:src/../h/Riscv.hpp **** {
 115:src/../h/Riscv.hpp ****     uint64 volatile scause;
 116:src/../h/Riscv.hpp ****     __asm__ volatile ("csrr %[scause], scause" : [scause] "=r"(scause));
 117:src/../h/Riscv.hpp ****     return scause;
 118:src/../h/Riscv.hpp **** }
 119:src/../h/Riscv.hpp **** 
GAS LISTING /tmp/ccTss4Rp.s 			page 16


 120:src/../h/Riscv.hpp **** inline void Riscv::w_scause(uint64 scause)
 121:src/../h/Riscv.hpp **** {
 122:src/../h/Riscv.hpp ****     __asm__ volatile ("csrw scause, %[scause]" : : [scause] "r"(scause));
 123:src/../h/Riscv.hpp **** }
 124:src/../h/Riscv.hpp **** 
 125:src/../h/Riscv.hpp **** inline uint64 Riscv::r_sepc()
 126:src/../h/Riscv.hpp **** {
 127:src/../h/Riscv.hpp ****     uint64 volatile sepc;
 128:src/../h/Riscv.hpp ****     __asm__ volatile ("csrr %[sepc], sepc" : [sepc] "=r"(sepc));
 129:src/../h/Riscv.hpp ****     return sepc;
 130:src/../h/Riscv.hpp **** }
 131:src/../h/Riscv.hpp **** 
 132:src/../h/Riscv.hpp **** inline void Riscv::w_sepc(uint64 sepc)
 133:src/../h/Riscv.hpp **** {
 134:src/../h/Riscv.hpp ****     __asm__ volatile ("csrw sepc, %[sepc]" : : [sepc] "r"(sepc));
 135:src/../h/Riscv.hpp **** }
 136:src/../h/Riscv.hpp **** 
 137:src/../h/Riscv.hpp **** inline uint64 Riscv::r_stvec()
 138:src/../h/Riscv.hpp **** {
 139:src/../h/Riscv.hpp ****     uint64 volatile stvec;
 140:src/../h/Riscv.hpp ****     __asm__ volatile ("csrr %[stvec], stvec" : [stvec] "=r"(stvec));
 141:src/../h/Riscv.hpp ****     return stvec;
 142:src/../h/Riscv.hpp **** }
 143:src/../h/Riscv.hpp **** 
 144:src/../h/Riscv.hpp **** inline void Riscv::w_stvec(uint64 stvec)
 145:src/../h/Riscv.hpp **** {
 146:src/../h/Riscv.hpp ****     __asm__ volatile ("csrw stvec, %[stvec]" : : [stvec] "r"(stvec));
 147:src/../h/Riscv.hpp **** }
 148:src/../h/Riscv.hpp **** 
 149:src/../h/Riscv.hpp **** inline uint64 Riscv::r_stval()
 150:src/../h/Riscv.hpp **** {
 151:src/../h/Riscv.hpp ****     uint64 volatile stval;
 152:src/../h/Riscv.hpp ****     __asm__ volatile ("csrr %[stval], stval" : [stval] "=r"(stval));
 153:src/../h/Riscv.hpp ****     return stval;
 154:src/../h/Riscv.hpp **** }
 155:src/../h/Riscv.hpp **** 
 156:src/../h/Riscv.hpp **** inline void Riscv::w_stval(uint64 stval)
 157:src/../h/Riscv.hpp **** {
 158:src/../h/Riscv.hpp ****     __asm__ volatile ("csrw stval, %[stval]" : : [stval] "r"(stval));
 159:src/../h/Riscv.hpp **** }
 160:src/../h/Riscv.hpp **** 
 161:src/../h/Riscv.hpp **** inline void Riscv::ms_sip(uint64 mask)
 162:src/../h/Riscv.hpp **** {
 163:src/../h/Riscv.hpp ****     __asm__ volatile ("csrs sip, %[mask]" : : [mask] "r"(mask));
 164:src/../h/Riscv.hpp **** }
 165:src/../h/Riscv.hpp **** 
 166:src/../h/Riscv.hpp **** inline void Riscv::mc_sip(uint64 mask)
 167:src/../h/Riscv.hpp **** {
 168:src/../h/Riscv.hpp ****     __asm__ volatile ("csrc sip, %[mask]" : : [mask] "r"(mask));
 169:src/../h/Riscv.hpp **** }
 170:src/../h/Riscv.hpp **** 
 171:src/../h/Riscv.hpp **** inline uint64 Riscv::r_sip()
 172:src/../h/Riscv.hpp **** {
 173:src/../h/Riscv.hpp ****     uint64 volatile sip;
 174:src/../h/Riscv.hpp ****     __asm__ volatile ("csrr %[sip], sip" : [sip] "=r"(sip));
 175:src/../h/Riscv.hpp ****     return sip;
 176:src/../h/Riscv.hpp **** }
GAS LISTING /tmp/ccTss4Rp.s 			page 17


 177:src/../h/Riscv.hpp **** 
 178:src/../h/Riscv.hpp **** inline void Riscv::w_sip(uint64 sip)
 179:src/../h/Riscv.hpp **** {
 180:src/../h/Riscv.hpp ****     __asm__ volatile ("csrw sip, %[sip]" : : [sip] "r"(sip));
 181:src/../h/Riscv.hpp **** }
 182:src/../h/Riscv.hpp **** 
 183:src/../h/Riscv.hpp **** inline void Riscv::ms_sstatus(uint64 mask)
 184:src/../h/Riscv.hpp **** {
 185:src/../h/Riscv.hpp ****     __asm__ volatile ("csrs sstatus, %[mask]" : : [mask] "r"(mask));
 509              		.loc 3 185 5 discriminator 2
 510              		.loc 3 185 68 is_stmt 0 discriminator 2
 511 02b0 93072000 		li	a5,2
 512              	 #APP
 513              	# 185 "src/../h/Riscv.hpp" 1
 186              	}
 514              		csrs sstatus, a5
 515              	# 0 "" 2
 516              	.LVL41:
 517              	 #NO_APP
 518              	.LBE25:
 519              	.LBE24:
  80:src/TCB.cpp   ****     thread_create(&TCB::console, myConsole::sendCharacterOut, nullptr);
 520              		.loc 1 80 5 is_stmt 1 discriminator 2
 521              	.LEHB5:
  80:src/TCB.cpp   ****     thread_create(&TCB::console, myConsole::sendCharacterOut, nullptr);
 522              		.loc 1 80 28 is_stmt 0 discriminator 2
 523 02b8 97000000 		call	_ZN9myConsole12console_initEv
 523      E7800000 
 524              	.LVL42:
  81:src/TCB.cpp   ****     thread_dispatch();
 525              		.loc 1 81 5 is_stmt 1 discriminator 2
  81:src/TCB.cpp   ****     thread_dispatch();
 526              		.loc 1 81 18 is_stmt 0 discriminator 2
 527 02c0 13060000 		li	a2,0
 528 02c4 97050000 		lla	a1,_ZN9myConsole16sendCharacterOutEPv
 528      93850500 
 529 02cc 17050000 		lla	a0,_ZN3TCB7consoleE
 529      13050500 
 530 02d4 97000000 		call	_Z13thread_createPP3TCBPFvPvES2_
 530      E7800000 
 531              	.LVL43:
  82:src/TCB.cpp   ****     TCB::userMode = true;
 532              		.loc 1 82 5 is_stmt 1 discriminator 2
  82:src/TCB.cpp   ****     TCB::userMode = true;
 533              		.loc 1 82 20 is_stmt 0 discriminator 2
 534 02dc 97000000 		call	_Z15thread_dispatchv
 534      E7800000 
 535              	.LVL44:
  83:src/TCB.cpp   ****     thread_create(&TCB::usrMain, TCB::wraperUsrMain, nullptr);
 536              		.loc 1 83 5 is_stmt 1 discriminator 2
  83:src/TCB.cpp   ****     thread_create(&TCB::usrMain, TCB::wraperUsrMain, nullptr);
 537              		.loc 1 83 19 is_stmt 0 discriminator 2
 538 02e4 93071000 		li	a5,1
 539 02e8 17070000 		sb	a5,_ZN3TCB8userModeE,a4
 539      2300F700 
  84:src/TCB.cpp   **** }
 540              		.loc 1 84 5 is_stmt 1 discriminator 2
GAS LISTING /tmp/ccTss4Rp.s 			page 18


  84:src/TCB.cpp   **** }
 541              		.loc 1 84 18 is_stmt 0 discriminator 2
 542 02f0 13060000 		li	a2,0
 543 02f4 97050000 		lla	a1,_ZN3TCB13wraperUsrMainEPv
 543      93850500 
 544 02fc 17050000 		lla	a0,_ZN3TCB7usrMainE
 544      13050500 
 545 0304 97000000 		call	_Z13thread_createPP3TCBPFvPvES2_
 545      E7800000 
 546              	.LVL45:
 547              	.LEHE5:
  85:src/TCB.cpp   **** 
 548              		.loc 1 85 1 discriminator 2
 549 030c 83308101 		ld	ra,24(sp)
 550              		.cfi_remember_state
 551              		.cfi_restore 1
 552 0310 03340101 		ld	s0,16(sp)
 553              		.cfi_restore 8
 554              		.cfi_def_cfa 2, 32
 555 0314 83348100 		ld	s1,8(sp)
 556              		.cfi_restore 9
 557              	.LVL46:
 558 0318 03390100 		ld	s2,0(sp)
 559              		.cfi_restore 18
 560 031c 13010102 		addi	sp,sp,32
 561              		.cfi_def_cfa_offset 0
 562 0320 67800000 		jr	ra
 563              	.L29:
 564              		.cfi_restore_state
 565 0324 13090500 		mv	s2,a0
  75:src/TCB.cpp   ****     running = mainThread;
 566              		.loc 1 75 74
 567 0328 13850400 		mv	a0,s1
 568 032c 97000000 		call	_ZN3TCBdlEPv
 568      E7800000 
 569              	.LVL47:
 570 0334 13050900 		mv	a0,s2
 571              	.LEHB6:
 572 0338 97000000 		call	_Unwind_Resume
 572      E7800000 
 573              	.LVL48:
 574              	.LEHE6:
 575              		.cfi_endproc
 576              	.LFE41:
 577              		.section	.gcc_except_table
 578              	.LLSDA41:
 579 002b FF       		.byte	0xff
 580 002c FF       		.byte	0xff
 581 002d 03       		.byte	0x3
 582 002e 34       		.byte	0x34
 583 002f 00000000 		.4byte	.LEHB3-.LFB41
 584 0033 00000000 		.4byte	.LEHE3-.LEHB3
 585 0037 00000000 		.4byte	0
 586 003b 00       		.byte	0
 587 003c 00000000 		.4byte	.LEHB4-.LFB41
 588 0040 00000000 		.4byte	.LEHE4-.LEHB4
 589 0044 00000000 		.4byte	.L29-.LFB41
GAS LISTING /tmp/ccTss4Rp.s 			page 19


 590 0048 00       		.byte	0
 591 0049 00000000 		.4byte	.LEHB5-.LFB41
 592 004d 00000000 		.4byte	.LEHE5-.LEHB5
 593 0051 00000000 		.4byte	0
 594 0055 00       		.byte	0
 595 0056 00000000 		.4byte	.LEHB6-.LFB41
 596 005a 00000000 		.4byte	.LEHE6-.LEHB6
 597 005e 00000000 		.4byte	0
 598 0062 00       		.byte	0
 599              		.text
 601              		.align	2
 602              		.globl	_ZN3TCB19prepareThreadCreateEPPS_PFvPvES2_S2_
 604              	_ZN3TCB19prepareThreadCreateEPPS_PFvPvES2_S2_:
 605              	.LFB43:
  98:src/TCB.cpp   **** 
 606              		.loc 1 98 95 is_stmt 1
 607              		.cfi_startproc
 608              	.LVL49:
 609 0340 130101FE 		addi	sp,sp,-32
 610              		.cfi_def_cfa_offset 32
 611 0344 233C1100 		sd	ra,24(sp)
 612 0348 23388100 		sd	s0,16(sp)
 613 034c 23349100 		sd	s1,8(sp)
 614              		.cfi_offset 1, -8
 615              		.cfi_offset 8, -16
 616              		.cfi_offset 9, -24
 617 0350 13040102 		addi	s0,sp,32
 618              		.cfi_def_cfa 8, 0
 619 0354 93040500 		mv	s1,a0
 620 0358 13850500 		mv	a0,a1
 621              	.LVL50:
 622 035c 93050600 		mv	a1,a2
 623              	.LVL51:
 624 0360 13860600 		mv	a2,a3
 625              	.LVL52:
 100:src/TCB.cpp   **** 
 626              		.loc 1 100 5
 100:src/TCB.cpp   **** 
 627              		.loc 1 100 29 is_stmt 0
 628 0364 93062000 		li	a3,2
 629              	.LVL53:
 630 0368 97000000 		call	_ZN3TCB12createThreadEPFvPvES0_S0_m
 630      E7800000 
 631              	.LVL54:
 100:src/TCB.cpp   **** 
 632              		.loc 1 100 15
 633 0370 23B0A400 		sd	a0,0(s1)
 102:src/TCB.cpp   ****        __asm__ volatile("li a0, 0xffffffffffffffff");           //unsuccessful alloc ret = -1
 634              		.loc 1 102 4 is_stmt 1
 635 0374 63020502 		beqz	a0,.L35
 636              	.L33:
 105:src/TCB.cpp   **** 
 637              		.loc 1 105 4
 105:src/TCB.cpp   **** 
 638              		.loc 1 105 32 is_stmt 0
 639              	 #APP
 640              	# 105 "src/TCB.cpp" 1
GAS LISTING /tmp/ccTss4Rp.s 			page 20


 108:src/TCB.cpp   **** }
 641              		li a0, 0
 642              	# 0 "" 2
 643              		.loc 1 108 5 is_stmt 1
 108:src/TCB.cpp   **** }
 644              		.loc 1 108 24 is_stmt 0
 645              	 #NO_APP
 646 037c 97000000 		call	_ZN5Riscv12setA0onStackEv
 646      E7800000 
 647              	.LVL55:
 109:src/TCB.cpp   **** 
 648              		.loc 1 109 1
 649 0384 83308101 		ld	ra,24(sp)
 650              		.cfi_remember_state
 651              		.cfi_restore 1
 652 0388 03340101 		ld	s0,16(sp)
 653              		.cfi_restore 8
 654              		.cfi_def_cfa 2, 32
 655 038c 83348100 		ld	s1,8(sp)
 656              		.cfi_restore 9
 657              	.LVL56:
 658 0390 13010102 		addi	sp,sp,32
 659              		.cfi_def_cfa_offset 0
 660 0394 67800000 		jr	ra
 661              	.LVL57:
 662              	.L35:
 663              		.cfi_restore_state
 103:src/TCB.cpp   ****    }
 664              		.loc 1 103 8 is_stmt 1
 103:src/TCB.cpp   ****    }
 665              		.loc 1 103 53 is_stmt 0
 666              	 #APP
 667              	# 103 "src/TCB.cpp" 1
 668              		li a0, 0xffffffffffffffff
 669              	# 0 "" 2
 670              	 #NO_APP
 671 039c 6FF0DFFD 		j	.L33
 672              		.cfi_endproc
 673              	.LFE43:
 675              		.align	2
 676              		.globl	_ZN3TCB17prepareThreadExitEv
 678              	_ZN3TCB17prepareThreadExitEv:
 679              	.LFB44:
 111:src/TCB.cpp   ****     TCB::timeSliceCounter = 0;
 680              		.loc 1 111 31 is_stmt 1
 681              		.cfi_startproc
 682 03a0 130101FF 		addi	sp,sp,-16
 683              		.cfi_def_cfa_offset 16
 684 03a4 23341100 		sd	ra,8(sp)
 685 03a8 23308100 		sd	s0,0(sp)
 686              		.cfi_offset 1, -8
 687              		.cfi_offset 8, -16
 688 03ac 13040101 		addi	s0,sp,16
 689              		.cfi_def_cfa 8, 0
 112:src/TCB.cpp   ****     TCB::running->setStatus(FINISHED);
 690              		.loc 1 112 5
 112:src/TCB.cpp   ****     TCB::running->setStatus(FINISHED);
GAS LISTING /tmp/ccTss4Rp.s 			page 21


 691              		.loc 1 112 27 is_stmt 0
 692 03b0 97070000 		sd	zero,_ZN3TCB16timeSliceCounterE,a5
 692      23B00700 
 113:src/TCB.cpp   ****     TCB::dispatch();
 693              		.loc 1 113 5 is_stmt 1
 694              	.LVL58:
 695              	.LBB26:
 696              	.LBB27:
 697              		.loc 2 22 32
 698              		.loc 2 22 39 is_stmt 0
 699 03b8 97070000 		ld	a5,_ZN3TCB7runningE
 699      83B70700 
 700 03c0 13073000 		li	a4,3
 701 03c4 23A8E702 		sw	a4,48(a5)
 702              	.LVL59:
 703              	.LBE27:
 704              	.LBE26:
 114:src/TCB.cpp   ****     //ret value
 705              		.loc 1 114 5 is_stmt 1
 114:src/TCB.cpp   ****     //ret value
 706              		.loc 1 114 18 is_stmt 0
 707 03c8 97000000 		call	_ZN3TCB8dispatchEv
 707      E7800000 
 708              	.LVL60:
 116:src/TCB.cpp   **** 
 709              		.loc 1 116 5 is_stmt 1
 116:src/TCB.cpp   **** 
 710              		.loc 1 116 33 is_stmt 0
 711              	 #APP
 712              	# 116 "src/TCB.cpp" 1
 119:src/TCB.cpp   **** }
 713              		li a0, 0
 714              	# 0 "" 2
 715              		.loc 1 119 5 is_stmt 1
 119:src/TCB.cpp   **** }
 716              		.loc 1 119 24 is_stmt 0
 717              	 #NO_APP
 718 03d4 97000000 		call	_ZN5Riscv12setA0onStackEv
 718      E7800000 
 719              	.LVL61:
 120:src/TCB.cpp   **** 
 720              		.loc 1 120 1
 721 03dc 83308100 		ld	ra,8(sp)
 722              		.cfi_restore 1
 723 03e0 03340100 		ld	s0,0(sp)
 724              		.cfi_restore 8
 725              		.cfi_def_cfa 2, 16
 726 03e4 13010101 		addi	sp,sp,16
 727              		.cfi_def_cfa_offset 0
 728 03e8 67800000 		jr	ra
 729              		.cfi_endproc
 730              	.LFE44:
 732              		.align	2
 733              		.globl	_ZN3TCB16prepareTimeSleepEm
 735              	_ZN3TCB16prepareTimeSleepEm:
 736              	.LFB45:
 122:src/TCB.cpp   **** 
GAS LISTING /tmp/ccTss4Rp.s 			page 22


 737              		.loc 1 122 39 is_stmt 1
 738              		.cfi_startproc
 739              	.LVL62:
 740 03ec 130101FE 		addi	sp,sp,-32
 741              		.cfi_def_cfa_offset 32
 742 03f0 233C1100 		sd	ra,24(sp)
 743 03f4 23388100 		sd	s0,16(sp)
 744 03f8 23349100 		sd	s1,8(sp)
 745              		.cfi_offset 1, -8
 746              		.cfi_offset 8, -16
 747              		.cfi_offset 9, -24
 748 03fc 13040102 		addi	s0,sp,32
 749              		.cfi_def_cfa 8, 0
 124:src/TCB.cpp   ****     int ret = SleepingQueue::setToSleep((time_t) ms);
 750              		.loc 1 124 5
 124:src/TCB.cpp   ****     int ret = SleepingQueue::setToSleep((time_t) ms);
 751              		.loc 1 124 27 is_stmt 0
 752 0400 97070000 		sd	zero,_ZN3TCB16timeSliceCounterE,a5
 752      23B00700 
 125:src/TCB.cpp   ****     TCB::dispatch();
 753              		.loc 1 125 5 is_stmt 1
 125:src/TCB.cpp   ****     TCB::dispatch();
 754              		.loc 1 125 40 is_stmt 0
 755 0408 97000000 		call	_ZN13SleepingQueue10setToSleepEm
 755      E7800000 
 756              	.LVL63:
 757 0410 93040500 		mv	s1,a0
 758              	.LVL64:
 126:src/TCB.cpp   ****     //ret value
 759              		.loc 1 126 5 is_stmt 1
 126:src/TCB.cpp   ****     //ret value
 760              		.loc 1 126 18 is_stmt 0
 761 0414 97000000 		call	_ZN3TCB8dispatchEv
 761      E7800000 
 762              	.LVL65:
 128:src/TCB.cpp   **** 
 763              		.loc 1 128 5 is_stmt 1
 128:src/TCB.cpp   **** 
 764              		.loc 1 128 47 is_stmt 0
 765              	 #APP
 766              	# 128 "src/TCB.cpp" 1
 131:src/TCB.cpp   **** }
 767              		mv a0, s1
 768              	# 0 "" 2
 769              		.loc 1 131 5 is_stmt 1
 131:src/TCB.cpp   **** }
 770              		.loc 1 131 24 is_stmt 0
 771              	 #NO_APP
 772 0420 97000000 		call	_ZN5Riscv12setA0onStackEv
 772      E7800000 
 773              	.LVL66:
 132:src/TCB.cpp   **** 
 774              		.loc 1 132 1
 775 0428 83308101 		ld	ra,24(sp)
 776              		.cfi_restore 1
 777 042c 03340101 		ld	s0,16(sp)
 778              		.cfi_restore 8
GAS LISTING /tmp/ccTss4Rp.s 			page 23


 779              		.cfi_def_cfa 2, 32
 780 0430 83348100 		ld	s1,8(sp)
 781              		.cfi_restore 9
 782              	.LVL67:
 783 0434 13010102 		addi	sp,sp,32
 784              		.cfi_def_cfa_offset 0
 785 0438 67800000 		jr	ra
 786              		.cfi_endproc
 787              	.LFE45:
 789              		.align	2
 790              		.globl	_ZN3TCB10isFinishedEv
 792              	_ZN3TCB10isFinishedEv:
 793              	.LFB46:
 134:src/TCB.cpp   ****     return status == FINISHED;
 794              		.loc 1 134 24 is_stmt 1
 795              		.cfi_startproc
 796              	.LVL68:
 797 043c 130101FF 		addi	sp,sp,-16
 798              		.cfi_def_cfa_offset 16
 799 0440 23348100 		sd	s0,8(sp)
 800              		.cfi_offset 8, -8
 801 0444 13040101 		addi	s0,sp,16
 802              		.cfi_def_cfa 8, 0
 135:src/TCB.cpp   **** }
 803              		.loc 1 135 5
 135:src/TCB.cpp   **** }
 804              		.loc 1 135 12 is_stmt 0
 805 0448 03250503 		lw	a0,48(a0)
 806              	.LVL69:
 135:src/TCB.cpp   **** }
 807              		.loc 1 135 22
 808 044c 1305D5FF 		addi	a0,a0,-3
 136:src/TCB.cpp   **** 
 809              		.loc 1 136 1
 810 0450 13351500 		seqz	a0,a0
 811 0454 03348100 		ld	s0,8(sp)
 812              		.cfi_restore 8
 813              		.cfi_def_cfa 2, 16
 814 0458 13010101 		addi	sp,sp,16
 815              		.cfi_def_cfa_offset 0
 816 045c 67800000 		jr	ra
 817              		.cfi_endproc
 818              	.LFE46:
 820              		.align	2
 821              		.globl	_ZN3TCB6endTCBEv
 823              	_ZN3TCB6endTCBEv:
 824              	.LFB42:
  87:src/TCB.cpp   ****     while (!TCB::usrMain->isFinished()) {
 825              		.loc 1 87 20 is_stmt 1
 826              		.cfi_startproc
 827 0460 130101FF 		addi	sp,sp,-16
 828              		.cfi_def_cfa_offset 16
 829 0464 23341100 		sd	ra,8(sp)
 830 0468 23308100 		sd	s0,0(sp)
 831              		.cfi_offset 1, -8
 832              		.cfi_offset 8, -16
 833 046c 13040101 		addi	s0,sp,16
GAS LISTING /tmp/ccTss4Rp.s 			page 24


 834              		.cfi_def_cfa 8, 0
 835              	.L44:
  88:src/TCB.cpp   ****         thread_dispatch();
 836              		.loc 1 88 5
  88:src/TCB.cpp   ****         thread_dispatch();
 837              		.loc 1 88 12
  88:src/TCB.cpp   ****         thread_dispatch();
 838              		.loc 1 88 37 is_stmt 0
 839 0470 17050000 		ld	a0,_ZN3TCB7usrMainE
 839      03350500 
 840 0478 97000000 		call	_ZN3TCB10isFinishedEv
 840      E7800000 
 841              	.LVL70:
  88:src/TCB.cpp   ****         thread_dispatch();
 842              		.loc 1 88 12
 843 0480 63180500 		bnez	a0,.L43
  89:src/TCB.cpp   ****     }
 844              		.loc 1 89 9 is_stmt 1
  89:src/TCB.cpp   ****     }
 845              		.loc 1 89 24 is_stmt 0
 846 0484 97000000 		call	_Z15thread_dispatchv
 846      E7800000 
 847              	.LVL71:
  88:src/TCB.cpp   ****         thread_dispatch();
 848              		.loc 1 88 5
 849 048c 6FF05FFE 		j	.L44
 850              	.L43:
  91:src/TCB.cpp   ****     myConsole::stopConsole = true;
 851              		.loc 1 91 5 is_stmt 1
  91:src/TCB.cpp   ****     myConsole::stopConsole = true;
 852              		.loc 1 91 34 is_stmt 0
 853 0490 97070000 		sd	zero,_ZN9myConsole17numberOfCharToGetE,a5
 853      23B00700 
  92:src/TCB.cpp   ****     while (!TCB::console->isFinished()) {
 854              		.loc 1 92 5 is_stmt 1
  92:src/TCB.cpp   ****     while (!TCB::console->isFinished()) {
 855              		.loc 1 92 28 is_stmt 0
 856 0498 93071000 		li	a5,1
 857 049c 17070000 		sb	a5,_ZN9myConsole11stopConsoleE,a4
 857      2300F700 
 858              	.L46:
  93:src/TCB.cpp   ****         thread_dispatch();
 859              		.loc 1 93 5 is_stmt 1
  93:src/TCB.cpp   ****         thread_dispatch();
 860              		.loc 1 93 12
  93:src/TCB.cpp   ****         thread_dispatch();
 861              		.loc 1 93 37 is_stmt 0
 862 04a4 17050000 		ld	a0,_ZN3TCB7consoleE
 862      03350500 
 863 04ac 97000000 		call	_ZN3TCB10isFinishedEv
 863      E7800000 
 864              	.LVL72:
  93:src/TCB.cpp   ****         thread_dispatch();
 865              		.loc 1 93 12
 866 04b4 63180500 		bnez	a0,.L42
  94:src/TCB.cpp   ****     }
 867              		.loc 1 94 9 is_stmt 1
GAS LISTING /tmp/ccTss4Rp.s 			page 25


  94:src/TCB.cpp   ****     }
 868              		.loc 1 94 24 is_stmt 0
 869 04b8 97000000 		call	_Z15thread_dispatchv
 869      E7800000 
 870              	.LVL73:
  93:src/TCB.cpp   ****         thread_dispatch();
 871              		.loc 1 93 5
 872 04c0 6FF05FFE 		j	.L46
 873              	.L42:
  96:src/TCB.cpp   **** 
 874              		.loc 1 96 1
 875 04c4 83308100 		ld	ra,8(sp)
 876              		.cfi_restore 1
 877 04c8 03340100 		ld	s0,0(sp)
 878              		.cfi_restore 8
 879              		.cfi_def_cfa 2, 16
 880 04cc 13010101 		addi	sp,sp,16
 881              		.cfi_def_cfa_offset 0
 882 04d0 67800000 		jr	ra
 883              		.cfi_endproc
 884              	.LFE42:
 886              		.globl	_ZN3TCB16timeSliceCounterE
 887              		.globl	_ZN3TCB11stopConsoleE
 888              		.globl	_ZN3TCB8userModeE
 889              		.globl	_ZN3TCB7usrMainE
 890              		.globl	_ZN3TCB7consoleE
 891              		.globl	_ZN3TCB7runningE
 892              		.section	.sbss,"aw",@nobits
 893              		.align	3
 896              	_ZN3TCB16timeSliceCounterE:
 897 0000 00000000 		.zero	8
 897      00000000 
 900              	_ZN3TCB11stopConsoleE:
 901 0008 00       		.zero	1
 904              	_ZN3TCB8userModeE:
 905 0009 00       		.zero	1
 906 000a 00000000 		.zero	6
 906      0000
 909              	_ZN3TCB7usrMainE:
 910 0010 00000000 		.zero	8
 910      00000000 
 913              	_ZN3TCB7consoleE:
 914 0018 00000000 		.zero	8
 914      00000000 
 917              	_ZN3TCB7runningE:
 918 0020 00000000 		.zero	8
 918      00000000 
 919              		.text
 920              	.Letext0:
 921              		.file 4 "src/../h/../lib/hw.h"
 922              		.file 5 "src/../h/MemoryAllocator.hpp"
 923              		.file 6 "src/../h/Scheduler.hpp"
 924              		.file 7 "src/../h/list.hpp"
 925              		.file 8 "src/../h/SleepingQueue.hpp"
 926              		.file 9 "src/../h/../h/Semaphore.hpp"
 927              		.file 10 "src/../h/Console.hpp"
 928              		.file 11 "src/../h/../h/syscall_c.hpp"
GAS LISTING /tmp/ccTss4Rp.s 			page 26


 929              		.file 12 "src/../test/userMain.hpp"
 5930              		.align	3
 5933              	DW.ref.__gxx_personality_v0:
 5934 0000 00000000 		.dword	__gxx_personality_v0
 5934      00000000 
 5935              		.ident	"GCC: () 9.3.0"
GAS LISTING /tmp/ccTss4Rp.s 			page 27

