GAS LISTING /tmp/ccUUmZNE.s 			page 1


   1              		.file	"buffer.cpp"
   2              		.option nopic
   3              		.option norelax
   4              		.attribute arch, "rv64i2p0_m2p0_a2p0"
   5              		.attribute unaligned_access, 0
   6              		.attribute stack_align, 16
   7              		.text
   8              	.Ltext0:
   9              		.align	2
  10              		.globl	_ZN6BufferC2Ei
  12              	_ZN6BufferC2Ei:
  13              	.LFB17:
  14              		.file 1 "test/buffer.cpp"
   1:test/buffer.cpp **** #include "buffer.hpp"
   2:test/buffer.cpp **** #include "../h/syscall_c.hpp"
   3:test/buffer.cpp **** 
   4:test/buffer.cpp **** Buffer::Buffer(int _cap) : cap(_cap + 1), head(0), tail(0) {
  15              		.loc 1 4 1
  16              		.cfi_startproc
  17              	.LVL0:
  18 0000 130101FE 		addi	sp,sp,-32
  19              		.cfi_def_cfa_offset 32
  20 0004 233C1100 		sd	ra,24(sp)
  21 0008 23388100 		sd	s0,16(sp)
  22 000c 23349100 		sd	s1,8(sp)
  23 0010 23302101 		sd	s2,0(sp)
  24              		.cfi_offset 1, -8
  25              		.cfi_offset 8, -16
  26              		.cfi_offset 9, -24
  27              		.cfi_offset 18, -32
  28 0014 13040102 		addi	s0,sp,32
  29              		.cfi_def_cfa 8, 0
  30 0018 93040500 		mv	s1,a0
  31 001c 13890500 		mv	s2,a1
  32              	.LBB2:
  33              		.loc 1 4 37 is_stmt 0
  34 0020 9B871500 		addiw	a5,a1,1
  35 0024 1B850700 		sext.w	a0,a5
  36              	.LVL1:
  37              		.loc 1 4 58
  38 0028 23A0F400 		sw	a5,0(s1)
  39 002c 23A80400 		sw	zero,16(s1)
  40 0030 23AA0400 		sw	zero,20(s1)
   5:test/buffer.cpp ****     buffer = (int *)mem_alloc(sizeof(int) * cap);
  41              		.loc 1 5 5 is_stmt 1
  42              		.loc 1 5 30 is_stmt 0
  43 0034 13152500 		slli	a0,a0,2
  44 0038 97000000 		call	_Z9mem_allocm
  44      E7800000 
  45              	.LVL2:
  46              		.loc 1 5 12
  47 0040 23B4A400 		sd	a0,8(s1)
   6:test/buffer.cpp ****     sem_open(&itemAvailable, 0);
  48              		.loc 1 6 5 is_stmt 1
  49              		.loc 1 6 13 is_stmt 0
  50 0044 93050000 		li	a1,0
  51 0048 13850402 		addi	a0,s1,32
GAS LISTING /tmp/ccUUmZNE.s 			page 2


  52 004c 97000000 		call	_Z8sem_openPP11mySemaphorej
  52      E7800000 
  53              	.LVL3:
   7:test/buffer.cpp ****     sem_open(&spaceAvailable, _cap);
  54              		.loc 1 7 5 is_stmt 1
  55              		.loc 1 7 13 is_stmt 0
  56 0054 93050900 		mv	a1,s2
  57 0058 13858401 		addi	a0,s1,24
  58 005c 97000000 		call	_Z8sem_openPP11mySemaphorej
  58      E7800000 
  59              	.LVL4:
   8:test/buffer.cpp ****     sem_open(&mutexHead, 1);
  60              		.loc 1 8 5 is_stmt 1
  61              		.loc 1 8 13 is_stmt 0
  62 0064 93051000 		li	a1,1
  63 0068 13858402 		addi	a0,s1,40
  64 006c 97000000 		call	_Z8sem_openPP11mySemaphorej
  64      E7800000 
  65              	.LVL5:
   9:test/buffer.cpp ****     sem_open(&mutexTail, 1);
  66              		.loc 1 9 5 is_stmt 1
  67              		.loc 1 9 13 is_stmt 0
  68 0074 93051000 		li	a1,1
  69 0078 13850403 		addi	a0,s1,48
  70 007c 97000000 		call	_Z8sem_openPP11mySemaphorej
  70      E7800000 
  71              	.LVL6:
  72              	.LBE2:
  10:test/buffer.cpp **** }
  73              		.loc 1 10 1
  74 0084 83308101 		ld	ra,24(sp)
  75              		.cfi_restore 1
  76 0088 03340101 		ld	s0,16(sp)
  77              		.cfi_restore 8
  78              		.cfi_def_cfa 2, 32
  79 008c 83348100 		ld	s1,8(sp)
  80              		.cfi_restore 9
  81              	.LVL7:
  82 0090 03390100 		ld	s2,0(sp)
  83              		.cfi_restore 18
  84 0094 13010102 		addi	sp,sp,32
  85              		.cfi_def_cfa_offset 0
  86 0098 67800000 		jr	ra
  87              		.cfi_endproc
  88              	.LFE17:
  90              		.globl	_ZN6BufferC1Ei
  91              		.set	_ZN6BufferC1Ei,_ZN6BufferC2Ei
  92              		.align	2
  93              		.globl	_ZN6Buffer3putEi
  95              	_ZN6Buffer3putEi:
  96              	.LFB22:
  11:test/buffer.cpp **** 
  12:test/buffer.cpp **** Buffer::~Buffer() {
  13:test/buffer.cpp ****     putc('\n');
  14:test/buffer.cpp ****     printString("Buffer deleted!\n");
  15:test/buffer.cpp ****     while (getCnt() > 0) {
  16:test/buffer.cpp ****         char ch = buffer[head];
GAS LISTING /tmp/ccUUmZNE.s 			page 3


  17:test/buffer.cpp ****         putc(ch);
  18:test/buffer.cpp ****         head = (head + 1) % cap;
  19:test/buffer.cpp ****     }
  20:test/buffer.cpp ****     putc('!');
  21:test/buffer.cpp ****     putc('\n');
  22:test/buffer.cpp **** 
  23:test/buffer.cpp ****     mem_free(buffer);
  24:test/buffer.cpp ****     sem_close(itemAvailable);
  25:test/buffer.cpp ****     sem_close(spaceAvailable);
  26:test/buffer.cpp ****     sem_close(mutexTail);
  27:test/buffer.cpp ****     sem_close(mutexHead);
  28:test/buffer.cpp **** }
  29:test/buffer.cpp **** 
  30:test/buffer.cpp **** void Buffer::put(int val) {
  97              		.loc 1 30 27 is_stmt 1
  98              		.cfi_startproc
  99              	.LVL8:
 100 009c 130101FE 		addi	sp,sp,-32
 101              		.cfi_def_cfa_offset 32
 102 00a0 233C1100 		sd	ra,24(sp)
 103 00a4 23388100 		sd	s0,16(sp)
 104 00a8 23349100 		sd	s1,8(sp)
 105 00ac 23302101 		sd	s2,0(sp)
 106              		.cfi_offset 1, -8
 107              		.cfi_offset 8, -16
 108              		.cfi_offset 9, -24
 109              		.cfi_offset 18, -32
 110 00b0 13040102 		addi	s0,sp,32
 111              		.cfi_def_cfa 8, 0
 112 00b4 93040500 		mv	s1,a0
 113 00b8 13890500 		mv	s2,a1
  31:test/buffer.cpp ****     sem_wait(spaceAvailable);
 114              		.loc 1 31 5
 115              		.loc 1 31 13 is_stmt 0
 116 00bc 03358501 		ld	a0,24(a0)
 117              	.LVL9:
 118 00c0 97000000 		call	_Z8sem_waitP11mySemaphore
 118      E7800000 
 119              	.LVL10:
  32:test/buffer.cpp **** 
  33:test/buffer.cpp ****     sem_wait(mutexTail);
 120              		.loc 1 33 5 is_stmt 1
 121              		.loc 1 33 13 is_stmt 0
 122 00c8 03B50403 		ld	a0,48(s1)
 123 00cc 97000000 		call	_Z8sem_waitP11mySemaphore
 123      E7800000 
 124              	.LVL11:
  34:test/buffer.cpp ****     buffer[tail] = val;
 125              		.loc 1 34 5 is_stmt 1
 126 00d4 83B78400 		ld	a5,8(s1)
 127              		.loc 1 34 12 is_stmt 0
 128 00d8 03A74401 		lw	a4,20(s1)
 129              		.loc 1 34 16
 130 00dc 13172700 		slli	a4,a4,2
 131 00e0 B387E700 		add	a5,a5,a4
 132              		.loc 1 34 18
 133 00e4 23A02701 		sw	s2,0(a5)
GAS LISTING /tmp/ccUUmZNE.s 			page 4


  35:test/buffer.cpp ****     tail = (tail + 1) % cap;
 134              		.loc 1 35 5 is_stmt 1
 135              		.loc 1 35 13 is_stmt 0
 136 00e8 83A74401 		lw	a5,20(s1)
 137              		.loc 1 35 18
 138 00ec 9B871700 		addiw	a5,a5,1
 139              		.loc 1 35 25
 140 00f0 03A70400 		lw	a4,0(s1)
 141              		.loc 1 35 23
 142 00f4 BBE7E702 		remw	a5,a5,a4
 143              		.loc 1 35 10
 144 00f8 23AAF400 		sw	a5,20(s1)
  36:test/buffer.cpp ****     sem_signal(mutexTail);
 145              		.loc 1 36 5 is_stmt 1
 146              		.loc 1 36 15 is_stmt 0
 147 00fc 03B50403 		ld	a0,48(s1)
 148 0100 97000000 		call	_Z10sem_signalP11mySemaphore
 148      E7800000 
 149              	.LVL12:
  37:test/buffer.cpp **** 
  38:test/buffer.cpp ****     sem_signal(itemAvailable);
 150              		.loc 1 38 5 is_stmt 1
 151              		.loc 1 38 15 is_stmt 0
 152 0108 03B50402 		ld	a0,32(s1)
 153 010c 97000000 		call	_Z10sem_signalP11mySemaphore
 153      E7800000 
 154              	.LVL13:
  39:test/buffer.cpp **** 
  40:test/buffer.cpp **** }
 155              		.loc 1 40 1
 156 0114 83308101 		ld	ra,24(sp)
 157              		.cfi_restore 1
 158 0118 03340101 		ld	s0,16(sp)
 159              		.cfi_restore 8
 160              		.cfi_def_cfa 2, 32
 161 011c 83348100 		ld	s1,8(sp)
 162              		.cfi_restore 9
 163              	.LVL14:
 164 0120 03390100 		ld	s2,0(sp)
 165              		.cfi_restore 18
 166 0124 13010102 		addi	sp,sp,32
 167              		.cfi_def_cfa_offset 0
 168 0128 67800000 		jr	ra
 169              		.cfi_endproc
 170              	.LFE22:
 172              		.align	2
 173              		.globl	_ZN6Buffer3getEv
 175              	_ZN6Buffer3getEv:
 176              	.LFB23:
  41:test/buffer.cpp **** 
  42:test/buffer.cpp **** int Buffer::get() {
 177              		.loc 1 42 19 is_stmt 1
 178              		.cfi_startproc
 179              	.LVL15:
 180 012c 130101FE 		addi	sp,sp,-32
 181              		.cfi_def_cfa_offset 32
 182 0130 233C1100 		sd	ra,24(sp)
GAS LISTING /tmp/ccUUmZNE.s 			page 5


 183 0134 23388100 		sd	s0,16(sp)
 184 0138 23349100 		sd	s1,8(sp)
 185 013c 23302101 		sd	s2,0(sp)
 186              		.cfi_offset 1, -8
 187              		.cfi_offset 8, -16
 188              		.cfi_offset 9, -24
 189              		.cfi_offset 18, -32
 190 0140 13040102 		addi	s0,sp,32
 191              		.cfi_def_cfa 8, 0
 192 0144 93040500 		mv	s1,a0
  43:test/buffer.cpp ****     sem_wait(itemAvailable);
 193              		.loc 1 43 5
 194              		.loc 1 43 13 is_stmt 0
 195 0148 03350502 		ld	a0,32(a0)
 196              	.LVL16:
 197 014c 97000000 		call	_Z8sem_waitP11mySemaphore
 197      E7800000 
 198              	.LVL17:
  44:test/buffer.cpp **** 
  45:test/buffer.cpp ****     sem_wait(mutexHead);
 199              		.loc 1 45 5 is_stmt 1
 200              		.loc 1 45 13 is_stmt 0
 201 0154 03B58402 		ld	a0,40(s1)
 202 0158 97000000 		call	_Z8sem_waitP11mySemaphore
 202      E7800000 
 203              	.LVL18:
  46:test/buffer.cpp **** 
  47:test/buffer.cpp ****     int ret = buffer[head];
 204              		.loc 1 47 5 is_stmt 1
 205              		.loc 1 47 15 is_stmt 0
 206 0160 03B78400 		ld	a4,8(s1)
 207              		.loc 1 47 22
 208 0164 83A70401 		lw	a5,16(s1)
 209              		.loc 1 47 26
 210 0168 93962700 		slli	a3,a5,2
 211 016c 3307D700 		add	a4,a4,a3
 212              		.loc 1 47 9
 213 0170 03290700 		lw	s2,0(a4)
 214              	.LVL19:
  48:test/buffer.cpp ****     head = (head + 1) % cap;
 215              		.loc 1 48 5 is_stmt 1
 216              		.loc 1 48 18 is_stmt 0
 217 0174 9B871700 		addiw	a5,a5,1
 218              		.loc 1 48 25
 219 0178 03A70400 		lw	a4,0(s1)
 220              		.loc 1 48 23
 221 017c BBE7E702 		remw	a5,a5,a4
 222              		.loc 1 48 10
 223 0180 23A8F400 		sw	a5,16(s1)
  49:test/buffer.cpp ****     sem_signal(mutexHead);
 224              		.loc 1 49 5 is_stmt 1
 225              		.loc 1 49 15 is_stmt 0
 226 0184 03B58402 		ld	a0,40(s1)
 227 0188 97000000 		call	_Z10sem_signalP11mySemaphore
 227      E7800000 
 228              	.LVL20:
  50:test/buffer.cpp **** 
GAS LISTING /tmp/ccUUmZNE.s 			page 6


  51:test/buffer.cpp ****     sem_signal(spaceAvailable);
 229              		.loc 1 51 5 is_stmt 1
 230              		.loc 1 51 15 is_stmt 0
 231 0190 03B58401 		ld	a0,24(s1)
 232 0194 97000000 		call	_Z10sem_signalP11mySemaphore
 232      E7800000 
 233              	.LVL21:
  52:test/buffer.cpp **** 
  53:test/buffer.cpp ****     return ret;
 234              		.loc 1 53 5 is_stmt 1
  54:test/buffer.cpp **** }
 235              		.loc 1 54 1 is_stmt 0
 236 019c 13050900 		mv	a0,s2
 237 01a0 83308101 		ld	ra,24(sp)
 238              		.cfi_restore 1
 239 01a4 03340101 		ld	s0,16(sp)
 240              		.cfi_restore 8
 241              		.cfi_def_cfa 2, 32
 242 01a8 83348100 		ld	s1,8(sp)
 243              		.cfi_restore 9
 244              	.LVL22:
 245 01ac 03390100 		ld	s2,0(sp)
 246              		.cfi_restore 18
 247              	.LVL23:
 248 01b0 13010102 		addi	sp,sp,32
 249              		.cfi_def_cfa_offset 0
 250 01b4 67800000 		jr	ra
 251              		.cfi_endproc
 252              	.LFE23:
 254              		.align	2
 255              		.globl	_ZN6Buffer6getCntEv
 257              	_ZN6Buffer6getCntEv:
 258              	.LFB24:
  55:test/buffer.cpp **** 
  56:test/buffer.cpp **** int Buffer::getCnt() {
 259              		.loc 1 56 22 is_stmt 1
 260              		.cfi_startproc
 261              	.LVL24:
 262 01b8 130101FE 		addi	sp,sp,-32
 263              		.cfi_def_cfa_offset 32
 264 01bc 233C1100 		sd	ra,24(sp)
 265 01c0 23388100 		sd	s0,16(sp)
 266 01c4 23349100 		sd	s1,8(sp)
 267 01c8 23302101 		sd	s2,0(sp)
 268              		.cfi_offset 1, -8
 269              		.cfi_offset 8, -16
 270              		.cfi_offset 9, -24
 271              		.cfi_offset 18, -32
 272 01cc 13040102 		addi	s0,sp,32
 273              		.cfi_def_cfa 8, 0
 274 01d0 93040500 		mv	s1,a0
  57:test/buffer.cpp ****     int ret;
 275              		.loc 1 57 5
  58:test/buffer.cpp **** 
  59:test/buffer.cpp ****     sem_wait(mutexHead);
 276              		.loc 1 59 5
 277              		.loc 1 59 13 is_stmt 0
GAS LISTING /tmp/ccUUmZNE.s 			page 7


 278 01d4 03358502 		ld	a0,40(a0)
 279              	.LVL25:
 280 01d8 97000000 		call	_Z8sem_waitP11mySemaphore
 280      E7800000 
 281              	.LVL26:
  60:test/buffer.cpp ****     sem_wait(mutexTail);
 282              		.loc 1 60 5 is_stmt 1
 283              		.loc 1 60 13 is_stmt 0
 284 01e0 03B50403 		ld	a0,48(s1)
 285 01e4 97000000 		call	_Z8sem_waitP11mySemaphore
 285      E7800000 
 286              	.LVL27:
  61:test/buffer.cpp **** 
  62:test/buffer.cpp ****     if (tail >= head) {
 287              		.loc 1 62 5 is_stmt 1
 288              		.loc 1 62 9 is_stmt 0
 289 01ec 83A74401 		lw	a5,20(s1)
 290              		.loc 1 62 17
 291 01f0 03A90401 		lw	s2,16(s1)
 292              		.loc 1 62 5
 293 01f4 63CE2703 		blt	a5,s2,.L8
  63:test/buffer.cpp ****         ret = tail - head;
 294              		.loc 1 63 9 is_stmt 1
 295              		.loc 1 63 13 is_stmt 0
 296 01f8 3B892741 		subw	s2,a5,s2
 297              	.LVL28:
 298              	.L9:
  64:test/buffer.cpp ****     } else {
  65:test/buffer.cpp ****         ret = cap - head + tail;
  66:test/buffer.cpp ****     }
  67:test/buffer.cpp **** 
  68:test/buffer.cpp ****     sem_signal(mutexTail);
 299              		.loc 1 68 5 is_stmt 1
 300              		.loc 1 68 15 is_stmt 0
 301 01fc 03B50403 		ld	a0,48(s1)
 302 0200 97000000 		call	_Z10sem_signalP11mySemaphore
 302      E7800000 
 303              	.LVL29:
  69:test/buffer.cpp ****     sem_signal(mutexHead);
 304              		.loc 1 69 5 is_stmt 1
 305              		.loc 1 69 15 is_stmt 0
 306 0208 03B58402 		ld	a0,40(s1)
 307 020c 97000000 		call	_Z10sem_signalP11mySemaphore
 307      E7800000 
 308              	.LVL30:
  70:test/buffer.cpp **** 
  71:test/buffer.cpp ****     return ret;
 309              		.loc 1 71 5 is_stmt 1
  72:test/buffer.cpp **** }
 310              		.loc 1 72 1 is_stmt 0
 311 0214 13050900 		mv	a0,s2
 312 0218 83308101 		ld	ra,24(sp)
 313              		.cfi_remember_state
 314              		.cfi_restore 1
 315 021c 03340101 		ld	s0,16(sp)
 316              		.cfi_restore 8
 317              		.cfi_def_cfa 2, 32
GAS LISTING /tmp/ccUUmZNE.s 			page 8


 318 0220 83348100 		ld	s1,8(sp)
 319              		.cfi_restore 9
 320              	.LVL31:
 321 0224 03390100 		ld	s2,0(sp)
 322              		.cfi_restore 18
 323              	.LVL32:
 324 0228 13010102 		addi	sp,sp,32
 325              		.cfi_def_cfa_offset 0
 326 022c 67800000 		jr	ra
 327              	.LVL33:
 328              	.L8:
 329              		.cfi_restore_state
  65:test/buffer.cpp ****     }
 330              		.loc 1 65 9 is_stmt 1
  65:test/buffer.cpp ****     }
 331              		.loc 1 65 15 is_stmt 0
 332 0230 03A70400 		lw	a4,0(s1)
  65:test/buffer.cpp ****     }
 333              		.loc 1 65 19
 334 0234 3B092741 		subw	s2,a4,s2
  65:test/buffer.cpp ****     }
 335              		.loc 1 65 13
 336 0238 3B09F900 		addw	s2,s2,a5
 337 023c 6FF01FFC 		j	.L9
 338              		.cfi_endproc
 339              	.LFE24:
 341              		.section	.rodata.str1.8,"aMS",@progbits,1
 342              		.align	3
 343              	.LC0:
 344 0000 42756666 		.string	"Buffer deleted!\n"
 344      65722064 
 344      656C6574 
 344      6564210A 
 344      00
 345              		.text
 346              		.align	2
 347              		.globl	_ZN6BufferD2Ev
 349              	_ZN6BufferD2Ev:
 350              	.LFB20:
  12:test/buffer.cpp ****     putc('\n');
 351              		.loc 1 12 1 is_stmt 1
 352              		.cfi_startproc
 353              		.cfi_personality 0x9b,DW.ref.__gxx_personality_v0
 354              		.cfi_lsda 0x1b,.LLSDA20
 355              	.LVL34:
 356 0240 130101FE 		addi	sp,sp,-32
 357              		.cfi_def_cfa_offset 32
 358 0244 233C1100 		sd	ra,24(sp)
 359 0248 23388100 		sd	s0,16(sp)
 360 024c 23349100 		sd	s1,8(sp)
 361              		.cfi_offset 1, -8
 362              		.cfi_offset 8, -16
 363              		.cfi_offset 9, -24
 364 0250 13040102 		addi	s0,sp,32
 365              		.cfi_def_cfa 8, 0
 366 0254 93040500 		mv	s1,a0
 367              	.LBB3:
GAS LISTING /tmp/ccUUmZNE.s 			page 9


  13:test/buffer.cpp ****     printString("Buffer deleted!\n");
 368              		.loc 1 13 5
  13:test/buffer.cpp ****     printString("Buffer deleted!\n");
 369              		.loc 1 13 9 is_stmt 0
 370 0258 1305A000 		li	a0,10
 371              	.LVL35:
 372 025c 97000000 		call	_Z4putcc
 372      E7800000 
 373              	.LVL36:
  14:test/buffer.cpp ****     while (getCnt() > 0) {
 374              		.loc 1 14 5 is_stmt 1
  14:test/buffer.cpp ****     while (getCnt() > 0) {
 375              		.loc 1 14 16 is_stmt 0
 376 0264 17050000 		lla	a0,.LC0
 376      13050500 
 377 026c 97000000 		call	_Z11printStringPKc
 377      E7800000 
 378              	.LVL37:
 379              	.L13:
  15:test/buffer.cpp ****         char ch = buffer[head];
 380              		.loc 1 15 5 is_stmt 1
  15:test/buffer.cpp ****         char ch = buffer[head];
 381              		.loc 1 15 21
  15:test/buffer.cpp ****         char ch = buffer[head];
 382              		.loc 1 15 18 is_stmt 0
 383 0274 13850400 		mv	a0,s1
 384 0278 97000000 		call	_ZN6Buffer6getCntEv
 384      E7800000 
 385              	.LVL38:
  15:test/buffer.cpp ****         char ch = buffer[head];
 386              		.loc 1 15 21
 387 0280 635CA002 		blez	a0,.L12
 388              	.LBB4:
  16:test/buffer.cpp ****         putc(ch);
 389              		.loc 1 16 9 is_stmt 1
  16:test/buffer.cpp ****         putc(ch);
 390              		.loc 1 16 19 is_stmt 0
 391 0284 83B78400 		ld	a5,8(s1)
  16:test/buffer.cpp ****         putc(ch);
 392              		.loc 1 16 26
 393 0288 03A70401 		lw	a4,16(s1)
  16:test/buffer.cpp ****         putc(ch);
 394              		.loc 1 16 30
 395 028c 13172700 		slli	a4,a4,2
 396 0290 B387E700 		add	a5,a5,a4
 397              	.LVL39:
  17:test/buffer.cpp ****         head = (head + 1) % cap;
 398              		.loc 1 17 9 is_stmt 1
  17:test/buffer.cpp ****         head = (head + 1) % cap;
 399              		.loc 1 17 13 is_stmt 0
 400 0294 03C50700 		lbu	a0,0(a5)
 401 0298 97000000 		call	_Z4putcc
 401      E7800000 
 402              	.LVL40:
  18:test/buffer.cpp ****     }
 403              		.loc 1 18 9 is_stmt 1
  18:test/buffer.cpp ****     }
GAS LISTING /tmp/ccUUmZNE.s 			page 10


 404              		.loc 1 18 17 is_stmt 0
 405 02a0 83A70401 		lw	a5,16(s1)
  18:test/buffer.cpp ****     }
 406              		.loc 1 18 22
 407 02a4 9B871700 		addiw	a5,a5,1
  18:test/buffer.cpp ****     }
 408              		.loc 1 18 29
 409 02a8 03A70400 		lw	a4,0(s1)
  18:test/buffer.cpp ****     }
 410              		.loc 1 18 27
 411 02ac BBE7E702 		remw	a5,a5,a4
  18:test/buffer.cpp ****     }
 412              		.loc 1 18 14
 413 02b0 23A8F400 		sw	a5,16(s1)
 414              	.LBE4:
  15:test/buffer.cpp ****         char ch = buffer[head];
 415              		.loc 1 15 5
 416 02b4 6FF01FFC 		j	.L13
 417              	.L12:
  20:test/buffer.cpp ****     putc('\n');
 418              		.loc 1 20 5 is_stmt 1
  20:test/buffer.cpp ****     putc('\n');
 419              		.loc 1 20 9 is_stmt 0
 420 02b8 13051002 		li	a0,33
 421 02bc 97000000 		call	_Z4putcc
 421      E7800000 
 422              	.LVL41:
  21:test/buffer.cpp **** 
 423              		.loc 1 21 5 is_stmt 1
  21:test/buffer.cpp **** 
 424              		.loc 1 21 9 is_stmt 0
 425 02c4 1305A000 		li	a0,10
 426 02c8 97000000 		call	_Z4putcc
 426      E7800000 
 427              	.LVL42:
  23:test/buffer.cpp ****     sem_close(itemAvailable);
 428              		.loc 1 23 5 is_stmt 1
  23:test/buffer.cpp ****     sem_close(itemAvailable);
 429              		.loc 1 23 13 is_stmt 0
 430 02d0 03B58400 		ld	a0,8(s1)
 431 02d4 97000000 		call	_Z8mem_freePv
 431      E7800000 
 432              	.LVL43:
  24:test/buffer.cpp ****     sem_close(spaceAvailable);
 433              		.loc 1 24 5 is_stmt 1
  24:test/buffer.cpp ****     sem_close(spaceAvailable);
 434              		.loc 1 24 14 is_stmt 0
 435 02dc 03B50402 		ld	a0,32(s1)
 436 02e0 97000000 		call	_Z9sem_closeP11mySemaphore
 436      E7800000 
 437              	.LVL44:
  25:test/buffer.cpp ****     sem_close(mutexTail);
 438              		.loc 1 25 5 is_stmt 1
  25:test/buffer.cpp ****     sem_close(mutexTail);
 439              		.loc 1 25 14 is_stmt 0
 440 02e8 03B58401 		ld	a0,24(s1)
 441 02ec 97000000 		call	_Z9sem_closeP11mySemaphore
GAS LISTING /tmp/ccUUmZNE.s 			page 11


 441      E7800000 
 442              	.LVL45:
  26:test/buffer.cpp ****     sem_close(mutexHead);
 443              		.loc 1 26 5 is_stmt 1
  26:test/buffer.cpp ****     sem_close(mutexHead);
 444              		.loc 1 26 14 is_stmt 0
 445 02f4 03B50403 		ld	a0,48(s1)
 446 02f8 97000000 		call	_Z9sem_closeP11mySemaphore
 446      E7800000 
 447              	.LVL46:
  27:test/buffer.cpp **** }
 448              		.loc 1 27 5 is_stmt 1
  27:test/buffer.cpp **** }
 449              		.loc 1 27 14 is_stmt 0
 450 0300 03B58402 		ld	a0,40(s1)
 451 0304 97000000 		call	_Z9sem_closeP11mySemaphore
 451      E7800000 
 452              	.LVL47:
 453              	.LBE3:
  28:test/buffer.cpp **** 
 454              		.loc 1 28 1
 455 030c 83308101 		ld	ra,24(sp)
 456              		.cfi_restore 1
 457 0310 03340101 		ld	s0,16(sp)
 458              		.cfi_restore 8
 459              		.cfi_def_cfa 2, 32
 460 0314 83348100 		ld	s1,8(sp)
 461              		.cfi_restore 9
 462              	.LVL48:
 463 0318 13010102 		addi	sp,sp,32
 464              		.cfi_def_cfa_offset 0
 465 031c 67800000 		jr	ra
 466              		.cfi_endproc
 467              	.LFE20:
 468              		.globl	__gxx_personality_v0
 469              		.section	.gcc_except_table,"aw",@progbits
 470              	.LLSDA20:
 471 0000 FF       		.byte	0xff
 472 0001 FF       		.byte	0xff
 473 0002 03       		.byte	0x3
 474 0003 00       		.byte	0
 475              		.text
 477              		.globl	_ZN6BufferD1Ev
 478              		.set	_ZN6BufferD1Ev,_ZN6BufferD2Ev
 479              	.Letext0:
 480              		.file 2 "test/../h/../h/../h/../lib/hw.h"
 481              		.file 3 "test/../h/../h/../h/list.hpp"
 482              		.file 4 "test/../h/../h/../h/TCB.hpp"
 483              		.file 5 "test/../h/../h/Semaphore.hpp"
 484              		.file 6 "test/../h/syscall_c.hpp"
 485              		.file 7 "test/buffer.hpp"
 486              		.file 8 "test/printing.hpp"
 3657              		.align	3
 3660              	DW.ref.__gxx_personality_v0:
 3661 0000 00000000 		.dword	__gxx_personality_v0
 3661      00000000 
 3662              		.ident	"GCC: () 9.3.0"
GAS LISTING /tmp/ccUUmZNE.s 			page 12


GAS LISTING /tmp/ccUUmZNE.s 			page 13

