GAS LISTING /tmp/cc0kJUrI.s 			page 1


   1              		.file	"Threads_CPP_API_test.cpp"
   2              		.option nopic
   3              		.option norelax
   4              		.attribute arch, "rv64i2p0_m2p0_a2p0"
   5              		.attribute unaligned_access, 0
   6              		.attribute stack_align, 16
   7              		.text
   8              	.Ltext0:
   9              		.align	2
  11              	_ZL9fibonaccim:
  12              	.LFB18:
  13              		.file 1 "test/Threads_CPP_API_test.cpp"
   1:test/Threads_CPP_API_test.cpp **** #include "../h/syscall_cpp.hpp"
   2:test/Threads_CPP_API_test.cpp **** 
   3:test/Threads_CPP_API_test.cpp **** #include "printing.hpp"
   4:test/Threads_CPP_API_test.cpp **** 
   5:test/Threads_CPP_API_test.cpp **** static volatile bool finishedA = false;
   6:test/Threads_CPP_API_test.cpp **** static volatile bool finishedB = false;
   7:test/Threads_CPP_API_test.cpp **** static volatile bool finishedC = false;
   8:test/Threads_CPP_API_test.cpp **** static volatile bool finishedD = false;
   9:test/Threads_CPP_API_test.cpp **** 
  10:test/Threads_CPP_API_test.cpp **** static uint64 fibonacci(uint64 n) {
  14              		.loc 1 10 35
  15              		.cfi_startproc
  16              	.LVL0:
  17 0000 130101FE 		addi	sp,sp,-32
  18              		.cfi_def_cfa_offset 32
  19 0004 233C1100 		sd	ra,24(sp)
  20 0008 23388100 		sd	s0,16(sp)
  21 000c 23349100 		sd	s1,8(sp)
  22 0010 23302101 		sd	s2,0(sp)
  23              		.cfi_offset 1, -8
  24              		.cfi_offset 8, -16
  25              		.cfi_offset 9, -24
  26              		.cfi_offset 18, -32
  27 0014 13040102 		addi	s0,sp,32
  28              		.cfi_def_cfa 8, 0
  29 0018 93040500 		mv	s1,a0
  11:test/Threads_CPP_API_test.cpp ****     if (n == 0 || n == 1) { return n; }
  30              		.loc 1 11 5
  31 001c 93071000 		li	a5,1
  32 0020 63F8A702 		bleu	a0,a5,.L1
  12:test/Threads_CPP_API_test.cpp ****     if (n % 10 == 0) { thread_dispatch(); }
  33              		.loc 1 12 5
  34              		.loc 1 12 11 is_stmt 0
  35 0024 9307A000 		li	a5,10
  36 0028 B377F502 		remu	a5,a0,a5
  37              		.loc 1 12 5
  38 002c 638E0702 		beqz	a5,.L6
  39              	.LVL1:
  40              	.L3:
  13:test/Threads_CPP_API_test.cpp ****     return fibonacci(n - 1) + fibonacci(n - 2);
  41              		.loc 1 13 5 is_stmt 1
  42              		.loc 1 13 21 is_stmt 0
  43 0030 1385F4FF 		addi	a0,s1,-1
  44 0034 97000000 		call	_ZL9fibonaccim
  44      E7800000 
GAS LISTING /tmp/cc0kJUrI.s 			page 2


  45              	.LVL2:
  46 003c 13090500 		mv	s2,a0
  47              		.loc 1 13 40
  48 0040 1385E4FF 		addi	a0,s1,-2
  49 0044 97000000 		call	_ZL9fibonaccim
  49      E7800000 
  50              	.LVL3:
  51              		.loc 1 13 46
  52 004c 3305A900 		add	a0,s2,a0
  53              	.L1:
  14:test/Threads_CPP_API_test.cpp **** }
  54              		.loc 1 14 1
  55 0050 83308101 		ld	ra,24(sp)
  56              		.cfi_remember_state
  57              		.cfi_restore 1
  58 0054 03340101 		ld	s0,16(sp)
  59              		.cfi_restore 8
  60              		.cfi_def_cfa 2, 32
  61 0058 83348100 		ld	s1,8(sp)
  62              		.cfi_restore 9
  63              	.LVL4:
  64 005c 03390100 		ld	s2,0(sp)
  65              		.cfi_restore 18
  66 0060 13010102 		addi	sp,sp,32
  67              		.cfi_def_cfa_offset 0
  68 0064 67800000 		jr	ra
  69              	.LVL5:
  70              	.L6:
  71              		.cfi_restore_state
  12:test/Threads_CPP_API_test.cpp ****     if (n % 10 == 0) { thread_dispatch(); }
  72              		.loc 1 12 24 is_stmt 1 discriminator 1
  12:test/Threads_CPP_API_test.cpp ****     if (n % 10 == 0) { thread_dispatch(); }
  73              		.loc 1 12 39 is_stmt 0 discriminator 1
  74 0068 97000000 		call	_Z15thread_dispatchv
  74      E7800000 
  75              	.LVL6:
  76 0070 6FF01FFC 		j	.L3
  77              		.cfi_endproc
  78              	.LFE18:
  80              		.section	.text._ZN7WorkerAD2Ev,"axG",@progbits,_ZN7WorkerAD5Ev,comdat
  81              		.align	2
  82              		.weak	_ZN7WorkerAD2Ev
  84              	_ZN7WorkerAD2Ev:
  85              	.LFB53:
  15:test/Threads_CPP_API_test.cpp **** 
  16:test/Threads_CPP_API_test.cpp **** class WorkerA: public Thread {
  86              		.loc 1 16 7 is_stmt 1
  87              		.cfi_startproc
  88              	.LVL7:
  89 0000 130101FF 		addi	sp,sp,-16
  90              		.cfi_def_cfa_offset 16
  91 0004 23341100 		sd	ra,8(sp)
  92 0008 23308100 		sd	s0,0(sp)
  93              		.cfi_offset 1, -8
  94              		.cfi_offset 8, -16
  95 000c 13040101 		addi	s0,sp,16
  96              		.cfi_def_cfa 8, 0
GAS LISTING /tmp/cc0kJUrI.s 			page 3


  97              	.LBB28:
  98              		.loc 1 16 7 is_stmt 0
  99 0010 97070000 		lla	a5,_ZTV7WorkerA+16
  99      93870700 
 100 0018 2330F500 		sd	a5,0(a0)
 101 001c 97000000 		call	_ZN6ThreadD2Ev
 101      E7800000 
 102              	.LVL8:
 103              	.LBE28:
 104 0024 83308100 		ld	ra,8(sp)
 105              		.cfi_restore 1
 106 0028 03340100 		ld	s0,0(sp)
 107              		.cfi_restore 8
 108              		.cfi_def_cfa 2, 16
 109 002c 13010101 		addi	sp,sp,16
 110              		.cfi_def_cfa_offset 0
 111 0030 67800000 		jr	ra
 112              		.cfi_endproc
 113              	.LFE53:
 115              		.weak	_ZN7WorkerAD1Ev
 116              		.set	_ZN7WorkerAD1Ev,_ZN7WorkerAD2Ev
 117              		.section	.text._ZN7WorkerAD0Ev,"axG",@progbits,_ZN7WorkerAD5Ev,comdat
 118              		.align	2
 119              		.weak	_ZN7WorkerAD0Ev
 121              	_ZN7WorkerAD0Ev:
 122              	.LFB55:
 123              		.loc 1 16 7 is_stmt 1
 124              		.cfi_startproc
 125              	.LVL9:
 126 0000 130101FE 		addi	sp,sp,-32
 127              		.cfi_def_cfa_offset 32
 128 0004 233C1100 		sd	ra,24(sp)
 129 0008 23388100 		sd	s0,16(sp)
 130 000c 23349100 		sd	s1,8(sp)
 131              		.cfi_offset 1, -8
 132              		.cfi_offset 8, -16
 133              		.cfi_offset 9, -24
 134 0010 13040102 		addi	s0,sp,32
 135              		.cfi_def_cfa 8, 0
 136 0014 93040500 		mv	s1,a0
 137              	.LVL10:
 138              	.LBB29:
 139              	.LBB30:
 140              		.loc 1 16 7 is_stmt 0
 141 0018 97070000 		lla	a5,_ZTV7WorkerA+16
 141      93870700 
 142 0020 2330F500 		sd	a5,0(a0)
 143 0024 97000000 		call	_ZN6ThreadD2Ev
 143      E7800000 
 144              	.LVL11:
 145              	.LBE30:
 146              	.LBE29:
 147 002c 13850400 		mv	a0,s1
 148 0030 97000000 		call	_ZdlPv
 148      E7800000 
 149              	.LVL12:
 150 0038 83308101 		ld	ra,24(sp)
GAS LISTING /tmp/cc0kJUrI.s 			page 4


 151              		.cfi_restore 1
 152 003c 03340101 		ld	s0,16(sp)
 153              		.cfi_restore 8
 154              		.cfi_def_cfa 2, 32
 155 0040 83348100 		ld	s1,8(sp)
 156              		.cfi_restore 9
 157              	.LVL13:
 158 0044 13010102 		addi	sp,sp,32
 159              		.cfi_def_cfa_offset 0
 160 0048 67800000 		jr	ra
 161              		.cfi_endproc
 162              	.LFE55:
 164              		.section	.text._ZN7WorkerBD2Ev,"axG",@progbits,_ZN7WorkerBD5Ev,comdat
 165              		.align	2
 166              		.weak	_ZN7WorkerBD2Ev
 168              	_ZN7WorkerBD2Ev:
 169              	.LFB49:
  17:test/Threads_CPP_API_test.cpp ****     void workerBodyA(void* arg);
  18:test/Threads_CPP_API_test.cpp **** public:
  19:test/Threads_CPP_API_test.cpp ****     WorkerA():Thread() {}
  20:test/Threads_CPP_API_test.cpp **** 
  21:test/Threads_CPP_API_test.cpp ****     void run() override {
  22:test/Threads_CPP_API_test.cpp ****         workerBodyA(nullptr);
  23:test/Threads_CPP_API_test.cpp ****     }
  24:test/Threads_CPP_API_test.cpp **** };
  25:test/Threads_CPP_API_test.cpp **** 
  26:test/Threads_CPP_API_test.cpp **** class WorkerB: public Thread {
 170              		.loc 1 26 7 is_stmt 1
 171              		.cfi_startproc
 172              	.LVL14:
 173 0000 130101FF 		addi	sp,sp,-16
 174              		.cfi_def_cfa_offset 16
 175 0004 23341100 		sd	ra,8(sp)
 176 0008 23308100 		sd	s0,0(sp)
 177              		.cfi_offset 1, -8
 178              		.cfi_offset 8, -16
 179 000c 13040101 		addi	s0,sp,16
 180              		.cfi_def_cfa 8, 0
 181              	.LBB31:
 182              		.loc 1 26 7 is_stmt 0
 183 0010 97070000 		lla	a5,_ZTV7WorkerB+16
 183      93870700 
 184 0018 2330F500 		sd	a5,0(a0)
 185 001c 97000000 		call	_ZN6ThreadD2Ev
 185      E7800000 
 186              	.LVL15:
 187              	.LBE31:
 188 0024 83308100 		ld	ra,8(sp)
 189              		.cfi_restore 1
 190 0028 03340100 		ld	s0,0(sp)
 191              		.cfi_restore 8
 192              		.cfi_def_cfa 2, 16
 193 002c 13010101 		addi	sp,sp,16
 194              		.cfi_def_cfa_offset 0
 195 0030 67800000 		jr	ra
 196              		.cfi_endproc
 197              	.LFE49:
GAS LISTING /tmp/cc0kJUrI.s 			page 5


 199              		.weak	_ZN7WorkerBD1Ev
 200              		.set	_ZN7WorkerBD1Ev,_ZN7WorkerBD2Ev
 201              		.section	.text._ZN7WorkerBD0Ev,"axG",@progbits,_ZN7WorkerBD5Ev,comdat
 202              		.align	2
 203              		.weak	_ZN7WorkerBD0Ev
 205              	_ZN7WorkerBD0Ev:
 206              	.LFB51:
 207              		.loc 1 26 7 is_stmt 1
 208              		.cfi_startproc
 209              	.LVL16:
 210 0000 130101FE 		addi	sp,sp,-32
 211              		.cfi_def_cfa_offset 32
 212 0004 233C1100 		sd	ra,24(sp)
 213 0008 23388100 		sd	s0,16(sp)
 214 000c 23349100 		sd	s1,8(sp)
 215              		.cfi_offset 1, -8
 216              		.cfi_offset 8, -16
 217              		.cfi_offset 9, -24
 218 0010 13040102 		addi	s0,sp,32
 219              		.cfi_def_cfa 8, 0
 220 0014 93040500 		mv	s1,a0
 221              	.LVL17:
 222              	.LBB32:
 223              	.LBB33:
 224              		.loc 1 26 7 is_stmt 0
 225 0018 97070000 		lla	a5,_ZTV7WorkerB+16
 225      93870700 
 226 0020 2330F500 		sd	a5,0(a0)
 227 0024 97000000 		call	_ZN6ThreadD2Ev
 227      E7800000 
 228              	.LVL18:
 229              	.LBE33:
 230              	.LBE32:
 231 002c 13850400 		mv	a0,s1
 232 0030 97000000 		call	_ZdlPv
 232      E7800000 
 233              	.LVL19:
 234 0038 83308101 		ld	ra,24(sp)
 235              		.cfi_restore 1
 236 003c 03340101 		ld	s0,16(sp)
 237              		.cfi_restore 8
 238              		.cfi_def_cfa 2, 32
 239 0040 83348100 		ld	s1,8(sp)
 240              		.cfi_restore 9
 241              	.LVL20:
 242 0044 13010102 		addi	sp,sp,32
 243              		.cfi_def_cfa_offset 0
 244 0048 67800000 		jr	ra
 245              		.cfi_endproc
 246              	.LFE51:
 248              		.section	.text._ZN7WorkerCD2Ev,"axG",@progbits,_ZN7WorkerCD5Ev,comdat
 249              		.align	2
 250              		.weak	_ZN7WorkerCD2Ev
 252              	_ZN7WorkerCD2Ev:
 253              	.LFB45:
  27:test/Threads_CPP_API_test.cpp ****     void workerBodyB(void* arg);
  28:test/Threads_CPP_API_test.cpp **** public:
GAS LISTING /tmp/cc0kJUrI.s 			page 6


  29:test/Threads_CPP_API_test.cpp ****     WorkerB():Thread() {}
  30:test/Threads_CPP_API_test.cpp **** 
  31:test/Threads_CPP_API_test.cpp ****     void run() override {
  32:test/Threads_CPP_API_test.cpp ****         workerBodyB(nullptr);
  33:test/Threads_CPP_API_test.cpp ****     }
  34:test/Threads_CPP_API_test.cpp **** };
  35:test/Threads_CPP_API_test.cpp **** 
  36:test/Threads_CPP_API_test.cpp **** class WorkerC: public Thread {
 254              		.loc 1 36 7 is_stmt 1
 255              		.cfi_startproc
 256              	.LVL21:
 257 0000 130101FF 		addi	sp,sp,-16
 258              		.cfi_def_cfa_offset 16
 259 0004 23341100 		sd	ra,8(sp)
 260 0008 23308100 		sd	s0,0(sp)
 261              		.cfi_offset 1, -8
 262              		.cfi_offset 8, -16
 263 000c 13040101 		addi	s0,sp,16
 264              		.cfi_def_cfa 8, 0
 265              	.LBB34:
 266              		.loc 1 36 7 is_stmt 0
 267 0010 97070000 		lla	a5,_ZTV7WorkerC+16
 267      93870700 
 268 0018 2330F500 		sd	a5,0(a0)
 269 001c 97000000 		call	_ZN6ThreadD2Ev
 269      E7800000 
 270              	.LVL22:
 271              	.LBE34:
 272 0024 83308100 		ld	ra,8(sp)
 273              		.cfi_restore 1
 274 0028 03340100 		ld	s0,0(sp)
 275              		.cfi_restore 8
 276              		.cfi_def_cfa 2, 16
 277 002c 13010101 		addi	sp,sp,16
 278              		.cfi_def_cfa_offset 0
 279 0030 67800000 		jr	ra
 280              		.cfi_endproc
 281              	.LFE45:
 283              		.weak	_ZN7WorkerCD1Ev
 284              		.set	_ZN7WorkerCD1Ev,_ZN7WorkerCD2Ev
 285              		.section	.text._ZN7WorkerCD0Ev,"axG",@progbits,_ZN7WorkerCD5Ev,comdat
 286              		.align	2
 287              		.weak	_ZN7WorkerCD0Ev
 289              	_ZN7WorkerCD0Ev:
 290              	.LFB47:
 291              		.loc 1 36 7 is_stmt 1
 292              		.cfi_startproc
 293              	.LVL23:
 294 0000 130101FE 		addi	sp,sp,-32
 295              		.cfi_def_cfa_offset 32
 296 0004 233C1100 		sd	ra,24(sp)
 297 0008 23388100 		sd	s0,16(sp)
 298 000c 23349100 		sd	s1,8(sp)
 299              		.cfi_offset 1, -8
 300              		.cfi_offset 8, -16
 301              		.cfi_offset 9, -24
 302 0010 13040102 		addi	s0,sp,32
GAS LISTING /tmp/cc0kJUrI.s 			page 7


 303              		.cfi_def_cfa 8, 0
 304 0014 93040500 		mv	s1,a0
 305              	.LVL24:
 306              	.LBB35:
 307              	.LBB36:
 308              		.loc 1 36 7 is_stmt 0
 309 0018 97070000 		lla	a5,_ZTV7WorkerC+16
 309      93870700 
 310 0020 2330F500 		sd	a5,0(a0)
 311 0024 97000000 		call	_ZN6ThreadD2Ev
 311      E7800000 
 312              	.LVL25:
 313              	.LBE36:
 314              	.LBE35:
 315 002c 13850400 		mv	a0,s1
 316 0030 97000000 		call	_ZdlPv
 316      E7800000 
 317              	.LVL26:
 318 0038 83308101 		ld	ra,24(sp)
 319              		.cfi_restore 1
 320 003c 03340101 		ld	s0,16(sp)
 321              		.cfi_restore 8
 322              		.cfi_def_cfa 2, 32
 323 0040 83348100 		ld	s1,8(sp)
 324              		.cfi_restore 9
 325              	.LVL27:
 326 0044 13010102 		addi	sp,sp,32
 327              		.cfi_def_cfa_offset 0
 328 0048 67800000 		jr	ra
 329              		.cfi_endproc
 330              	.LFE47:
 332              		.section	.text._ZN7WorkerDD2Ev,"axG",@progbits,_ZN7WorkerDD5Ev,comdat
 333              		.align	2
 334              		.weak	_ZN7WorkerDD2Ev
 336              	_ZN7WorkerDD2Ev:
 337              	.LFB41:
  37:test/Threads_CPP_API_test.cpp ****     void workerBodyC(void* arg);
  38:test/Threads_CPP_API_test.cpp **** public:
  39:test/Threads_CPP_API_test.cpp ****     WorkerC():Thread() {}
  40:test/Threads_CPP_API_test.cpp **** 
  41:test/Threads_CPP_API_test.cpp ****     void run() override {
  42:test/Threads_CPP_API_test.cpp ****         workerBodyC(nullptr);
  43:test/Threads_CPP_API_test.cpp ****     }
  44:test/Threads_CPP_API_test.cpp **** };
  45:test/Threads_CPP_API_test.cpp **** 
  46:test/Threads_CPP_API_test.cpp **** class WorkerD: public Thread {
 338              		.loc 1 46 7 is_stmt 1
 339              		.cfi_startproc
 340              	.LVL28:
 341 0000 130101FF 		addi	sp,sp,-16
 342              		.cfi_def_cfa_offset 16
 343 0004 23341100 		sd	ra,8(sp)
 344 0008 23308100 		sd	s0,0(sp)
 345              		.cfi_offset 1, -8
 346              		.cfi_offset 8, -16
 347 000c 13040101 		addi	s0,sp,16
 348              		.cfi_def_cfa 8, 0
GAS LISTING /tmp/cc0kJUrI.s 			page 8


 349              	.LBB37:
 350              		.loc 1 46 7 is_stmt 0
 351 0010 97070000 		lla	a5,_ZTV7WorkerD+16
 351      93870700 
 352 0018 2330F500 		sd	a5,0(a0)
 353 001c 97000000 		call	_ZN6ThreadD2Ev
 353      E7800000 
 354              	.LVL29:
 355              	.LBE37:
 356 0024 83308100 		ld	ra,8(sp)
 357              		.cfi_restore 1
 358 0028 03340100 		ld	s0,0(sp)
 359              		.cfi_restore 8
 360              		.cfi_def_cfa 2, 16
 361 002c 13010101 		addi	sp,sp,16
 362              		.cfi_def_cfa_offset 0
 363 0030 67800000 		jr	ra
 364              		.cfi_endproc
 365              	.LFE41:
 367              		.weak	_ZN7WorkerDD1Ev
 368              		.set	_ZN7WorkerDD1Ev,_ZN7WorkerDD2Ev
 369              		.section	.text._ZN7WorkerDD0Ev,"axG",@progbits,_ZN7WorkerDD5Ev,comdat
 370              		.align	2
 371              		.weak	_ZN7WorkerDD0Ev
 373              	_ZN7WorkerDD0Ev:
 374              	.LFB43:
 375              		.loc 1 46 7 is_stmt 1
 376              		.cfi_startproc
 377              	.LVL30:
 378 0000 130101FE 		addi	sp,sp,-32
 379              		.cfi_def_cfa_offset 32
 380 0004 233C1100 		sd	ra,24(sp)
 381 0008 23388100 		sd	s0,16(sp)
 382 000c 23349100 		sd	s1,8(sp)
 383              		.cfi_offset 1, -8
 384              		.cfi_offset 8, -16
 385              		.cfi_offset 9, -24
 386 0010 13040102 		addi	s0,sp,32
 387              		.cfi_def_cfa 8, 0
 388 0014 93040500 		mv	s1,a0
 389              	.LVL31:
 390              	.LBB38:
 391              	.LBB39:
 392              		.loc 1 46 7 is_stmt 0
 393 0018 97070000 		lla	a5,_ZTV7WorkerD+16
 393      93870700 
 394 0020 2330F500 		sd	a5,0(a0)
 395 0024 97000000 		call	_ZN6ThreadD2Ev
 395      E7800000 
 396              	.LVL32:
 397              	.LBE39:
 398              	.LBE38:
 399 002c 13850400 		mv	a0,s1
 400 0030 97000000 		call	_ZdlPv
 400      E7800000 
 401              	.LVL33:
 402 0038 83308101 		ld	ra,24(sp)
GAS LISTING /tmp/cc0kJUrI.s 			page 9


 403              		.cfi_restore 1
 404 003c 03340101 		ld	s0,16(sp)
 405              		.cfi_restore 8
 406              		.cfi_def_cfa 2, 32
 407 0040 83348100 		ld	s1,8(sp)
 408              		.cfi_restore 9
 409              	.LVL34:
 410 0044 13010102 		addi	sp,sp,32
 411              		.cfi_def_cfa_offset 0
 412 0048 67800000 		jr	ra
 413              		.cfi_endproc
 414              	.LFE43:
 416              		.section	.rodata.str1.8,"aMS",@progbits,1
 417              		.align	3
 418              	.LC0:
 419 0000 413A2069 		.string	"A: i="
 419      3D00
 420 0006 0000     		.align	3
 421              	.LC1:
 422 0008 0A00     		.string	"\n"
 423 000a 00000000 		.align	3
 423      0000
 424              	.LC2:
 425 0010 41206669 		.string	"A finished!\n"
 425      6E697368 
 425      6564210A 
 425      00
 426              		.text
 427              		.align	2
 428              		.globl	_ZN7WorkerA11workerBodyAEPv
 430              	_ZN7WorkerA11workerBodyAEPv:
 431              	.LFB35:
  47:test/Threads_CPP_API_test.cpp ****     void workerBodyD(void* arg);
  48:test/Threads_CPP_API_test.cpp **** public:
  49:test/Threads_CPP_API_test.cpp ****     WorkerD():Thread() {}
  50:test/Threads_CPP_API_test.cpp **** 
  51:test/Threads_CPP_API_test.cpp ****     void run() override {
  52:test/Threads_CPP_API_test.cpp ****         workerBodyD(nullptr);
  53:test/Threads_CPP_API_test.cpp ****     }
  54:test/Threads_CPP_API_test.cpp **** };
  55:test/Threads_CPP_API_test.cpp **** 
  56:test/Threads_CPP_API_test.cpp **** void WorkerA::workerBodyA(void *arg) {
 432              		.loc 1 56 38 is_stmt 1
 433              		.cfi_startproc
 434              	.LVL35:
 435 0074 130101FE 		addi	sp,sp,-32
 436              		.cfi_def_cfa_offset 32
 437 0078 233C1100 		sd	ra,24(sp)
 438 007c 23388100 		sd	s0,16(sp)
 439 0080 23349100 		sd	s1,8(sp)
 440 0084 23302101 		sd	s2,0(sp)
 441              		.cfi_offset 1, -8
 442              		.cfi_offset 8, -16
 443              		.cfi_offset 9, -24
 444              		.cfi_offset 18, -32
 445 0088 13040102 		addi	s0,sp,32
 446              		.cfi_def_cfa 8, 0
GAS LISTING /tmp/cc0kJUrI.s 			page 10


  57:test/Threads_CPP_API_test.cpp ****     for (uint64 i = 0; i < 10; i++) {
 447              		.loc 1 57 5
 448              	.LVL36:
 449              	.LBB40:
 450              		.loc 1 57 17 is_stmt 0
 451 008c 13090000 		li	s2,0
 452 0090 6F008003 		j	.L29
 453              	.LVL37:
 454              	.L26:
 455              	.LBB41:
 456              	.LBB42:
 457              	.LBB43:
  58:test/Threads_CPP_API_test.cpp ****         printString("A: i="); printInt(i); printString("\n");
  59:test/Threads_CPP_API_test.cpp ****         for (uint64 j = 0; j < 10000; j++) {
  60:test/Threads_CPP_API_test.cpp ****             for (uint64 k = 0; k < 30000; k++) { /* busy wait */ }
  61:test/Threads_CPP_API_test.cpp ****             thread_dispatch();
 458              		.loc 1 61 13 is_stmt 1 discriminator 2
 459              		.loc 1 61 28 is_stmt 0 discriminator 2
 460 0094 97000000 		call	_Z15thread_dispatchv
 460      E7800000 
 461              	.LVL38:
 462              	.LBE43:
  59:test/Threads_CPP_API_test.cpp ****             for (uint64 k = 0; k < 30000; k++) { /* busy wait */ }
 463              		.loc 1 59 9 is_stmt 1 discriminator 2
 464 009c 93841400 		addi	s1,s1,1
 465              	.LVL39:
 466              	.L28:
  59:test/Threads_CPP_API_test.cpp ****             for (uint64 k = 0; k < 30000; k++) { /* busy wait */ }
 467              		.loc 1 59 30 discriminator 1
 468 00a0 B7270000 		li	a5,8192
 469 00a4 9387F770 		addi	a5,a5,1807
 470 00a8 63EE9700 		bgtu	s1,a5,.L25
 471              	.LBB45:
 472              	.LBB44:
  60:test/Threads_CPP_API_test.cpp ****             thread_dispatch();
 473              		.loc 1 60 25 is_stmt 0
 474 00ac 13070000 		li	a4,0
 475              	.L27:
 476              	.LVL40:
  60:test/Threads_CPP_API_test.cpp ****             thread_dispatch();
 477              		.loc 1 60 34 is_stmt 1 discriminator 3
 478 00b0 B7770000 		li	a5,28672
 479 00b4 9387F752 		addi	a5,a5,1327
 480 00b8 E3EEE7FC 		bgtu	a4,a5,.L26
  60:test/Threads_CPP_API_test.cpp ****             thread_dispatch();
 481              		.loc 1 60 13 discriminator 2
 482 00bc 13071700 		addi	a4,a4,1
 483              	.LVL41:
 484 00c0 6FF01FFF 		j	.L27
 485              	.LVL42:
 486              	.L25:
 487              	.LBE44:
 488              	.LBE45:
 489              	.LBE42:
 490              	.LBE41:
  57:test/Threads_CPP_API_test.cpp ****         printString("A: i="); printInt(i); printString("\n");
 491              		.loc 1 57 5 discriminator 2
GAS LISTING /tmp/cc0kJUrI.s 			page 11


 492 00c4 13091900 		addi	s2,s2,1
 493              	.LVL43:
 494              	.L29:
  57:test/Threads_CPP_API_test.cpp ****         printString("A: i="); printInt(i); printString("\n");
 495              		.loc 1 57 26 discriminator 1
 496 00c8 93079000 		li	a5,9
 497 00cc 63E02705 		bgtu	s2,a5,.L24
 498              	.LBB47:
  58:test/Threads_CPP_API_test.cpp ****         for (uint64 j = 0; j < 10000; j++) {
 499              		.loc 1 58 9
  58:test/Threads_CPP_API_test.cpp ****         for (uint64 j = 0; j < 10000; j++) {
 500              		.loc 1 58 20 is_stmt 0
 501 00d0 17050000 		lla	a0,.LC0
 501      13050500 
 502 00d8 97000000 		call	_Z11printStringPKc
 502      E7800000 
 503              	.LVL44:
  58:test/Threads_CPP_API_test.cpp ****         for (uint64 j = 0; j < 10000; j++) {
 504              		.loc 1 58 31 is_stmt 1
  58:test/Threads_CPP_API_test.cpp ****         for (uint64 j = 0; j < 10000; j++) {
 505              		.loc 1 58 39 is_stmt 0
 506 00e0 13060000 		li	a2,0
 507 00e4 9305A000 		li	a1,10
 508 00e8 1B050900 		sext.w	a0,s2
 509 00ec 97000000 		call	_Z8printIntiii
 509      E7800000 
 510              	.LVL45:
  58:test/Threads_CPP_API_test.cpp ****         for (uint64 j = 0; j < 10000; j++) {
 511              		.loc 1 58 44 is_stmt 1
  58:test/Threads_CPP_API_test.cpp ****         for (uint64 j = 0; j < 10000; j++) {
 512              		.loc 1 58 55 is_stmt 0
 513 00f4 17050000 		lla	a0,.LC1
 513      13050500 
 514 00fc 97000000 		call	_Z11printStringPKc
 514      E7800000 
 515              	.LVL46:
  59:test/Threads_CPP_API_test.cpp ****             for (uint64 k = 0; k < 30000; k++) { /* busy wait */ }
 516              		.loc 1 59 9 is_stmt 1
 517              	.LBB46:
  59:test/Threads_CPP_API_test.cpp ****             for (uint64 k = 0; k < 30000; k++) { /* busy wait */ }
 518              		.loc 1 59 21 is_stmt 0
 519 0104 93040000 		li	s1,0
 520 0108 6FF09FF9 		j	.L28
 521              	.LVL47:
 522              	.L24:
 523              	.LBE46:
 524              	.LBE47:
 525              	.LBE40:
  62:test/Threads_CPP_API_test.cpp ****         }
  63:test/Threads_CPP_API_test.cpp ****     }
  64:test/Threads_CPP_API_test.cpp ****     printString("A finished!\n");
 526              		.loc 1 64 5 is_stmt 1
 527              		.loc 1 64 16 is_stmt 0
 528 010c 17050000 		lla	a0,.LC2
 528      13050500 
 529 0114 97000000 		call	_Z11printStringPKc
 529      E7800000 
GAS LISTING /tmp/cc0kJUrI.s 			page 12


 530              	.LVL48:
  65:test/Threads_CPP_API_test.cpp ****     finishedA = true;
 531              		.loc 1 65 5 is_stmt 1
 532              		.loc 1 65 15 is_stmt 0
 533 011c 93071000 		li	a5,1
 534 0120 17070000 		sb	a5,_ZL9finishedA,a4
 534      2300F700 
  66:test/Threads_CPP_API_test.cpp **** }
 535              		.loc 1 66 1
 536 0128 83308101 		ld	ra,24(sp)
 537              		.cfi_restore 1
 538 012c 03340101 		ld	s0,16(sp)
 539              		.cfi_restore 8
 540              		.cfi_def_cfa 2, 32
 541 0130 83348100 		ld	s1,8(sp)
 542              		.cfi_restore 9
 543 0134 03390100 		ld	s2,0(sp)
 544              		.cfi_restore 18
 545              	.LVL49:
 546 0138 13010102 		addi	sp,sp,32
 547              		.cfi_def_cfa_offset 0
 548 013c 67800000 		jr	ra
 549              		.cfi_endproc
 550              	.LFE35:
 552              		.section	.text._ZN7WorkerA3runEv,"axG",@progbits,_ZN7WorkerA3runEv,comdat
 553              		.align	2
 554              		.weak	_ZN7WorkerA3runEv
 556              	_ZN7WorkerA3runEv:
 557              	.LFB22:
  21:test/Threads_CPP_API_test.cpp ****         workerBodyA(nullptr);
 558              		.loc 1 21 10 is_stmt 1
 559              		.cfi_startproc
 560              	.LVL50:
 561 0000 130101FF 		addi	sp,sp,-16
 562              		.cfi_def_cfa_offset 16
 563 0004 23341100 		sd	ra,8(sp)
 564 0008 23308100 		sd	s0,0(sp)
 565              		.cfi_offset 1, -8
 566              		.cfi_offset 8, -16
 567 000c 13040101 		addi	s0,sp,16
 568              		.cfi_def_cfa 8, 0
  22:test/Threads_CPP_API_test.cpp ****     }
 569              		.loc 1 22 9
  22:test/Threads_CPP_API_test.cpp ****     }
 570              		.loc 1 22 20 is_stmt 0
 571 0010 93050000 		li	a1,0
 572 0014 97000000 		call	_ZN7WorkerA11workerBodyAEPv
 572      E7800000 
 573              	.LVL51:
  23:test/Threads_CPP_API_test.cpp **** };
 574              		.loc 1 23 5
 575 001c 83308100 		ld	ra,8(sp)
 576              		.cfi_restore 1
 577 0020 03340100 		ld	s0,0(sp)
 578              		.cfi_restore 8
 579              		.cfi_def_cfa 2, 16
 580 0024 13010101 		addi	sp,sp,16
GAS LISTING /tmp/cc0kJUrI.s 			page 13


 581              		.cfi_def_cfa_offset 0
 582 0028 67800000 		jr	ra
 583              		.cfi_endproc
 584              	.LFE22:
 586              		.section	.rodata.str1.8
 587 001d 000000   		.align	3
 588              	.LC3:
 589 0020 423A2069 		.string	"B: i="
 589      3D00
 590 0026 0000     		.align	3
 591              	.LC4:
 592 0028 42206669 		.string	"B finished!\n"
 592      6E697368 
 592      6564210A 
 592      00
 593              		.text
 594              		.align	2
 595              		.globl	_ZN7WorkerB11workerBodyBEPv
 597              	_ZN7WorkerB11workerBodyBEPv:
 598              	.LFB36:
  67:test/Threads_CPP_API_test.cpp **** 
  68:test/Threads_CPP_API_test.cpp **** void WorkerB::workerBodyB(void *arg) {
 599              		.loc 1 68 38 is_stmt 1
 600              		.cfi_startproc
 601              	.LVL52:
 602 0140 130101FE 		addi	sp,sp,-32
 603              		.cfi_def_cfa_offset 32
 604 0144 233C1100 		sd	ra,24(sp)
 605 0148 23388100 		sd	s0,16(sp)
 606 014c 23349100 		sd	s1,8(sp)
 607 0150 23302101 		sd	s2,0(sp)
 608              		.cfi_offset 1, -8
 609              		.cfi_offset 8, -16
 610              		.cfi_offset 9, -24
 611              		.cfi_offset 18, -32
 612 0154 13040102 		addi	s0,sp,32
 613              		.cfi_def_cfa 8, 0
  69:test/Threads_CPP_API_test.cpp ****     for (uint64 i = 0; i < 16; i++) {
 614              		.loc 1 69 5
 615              	.LVL53:
 616              	.LBB48:
 617              		.loc 1 69 17 is_stmt 0
 618 0158 13090000 		li	s2,0
 619 015c 6F008003 		j	.L39
 620              	.LVL54:
 621              	.L36:
 622              	.LBB49:
 623              	.LBB50:
 624              	.LBB51:
  70:test/Threads_CPP_API_test.cpp ****         printString("B: i="); printInt(i); printString("\n");
  71:test/Threads_CPP_API_test.cpp ****         for (uint64 j = 0; j < 10000; j++) {
  72:test/Threads_CPP_API_test.cpp ****             for (uint64 k = 0; k < 30000; k++) { /* busy wait */ }
  73:test/Threads_CPP_API_test.cpp ****             thread_dispatch();
 625              		.loc 1 73 13 is_stmt 1 discriminator 2
 626              		.loc 1 73 28 is_stmt 0 discriminator 2
 627 0160 97000000 		call	_Z15thread_dispatchv
 627      E7800000 
GAS LISTING /tmp/cc0kJUrI.s 			page 14


 628              	.LVL55:
 629              	.LBE51:
  71:test/Threads_CPP_API_test.cpp ****             for (uint64 k = 0; k < 30000; k++) { /* busy wait */ }
 630              		.loc 1 71 9 is_stmt 1 discriminator 2
 631 0168 93841400 		addi	s1,s1,1
 632              	.LVL56:
 633              	.L38:
  71:test/Threads_CPP_API_test.cpp ****             for (uint64 k = 0; k < 30000; k++) { /* busy wait */ }
 634              		.loc 1 71 30 discriminator 1
 635 016c B7270000 		li	a5,8192
 636 0170 9387F770 		addi	a5,a5,1807
 637 0174 63EE9700 		bgtu	s1,a5,.L35
 638              	.LBB53:
 639              	.LBB52:
  72:test/Threads_CPP_API_test.cpp ****             thread_dispatch();
 640              		.loc 1 72 25 is_stmt 0
 641 0178 13070000 		li	a4,0
 642              	.L37:
 643              	.LVL57:
  72:test/Threads_CPP_API_test.cpp ****             thread_dispatch();
 644              		.loc 1 72 34 is_stmt 1 discriminator 3
 645 017c B7770000 		li	a5,28672
 646 0180 9387F752 		addi	a5,a5,1327
 647 0184 E3EEE7FC 		bgtu	a4,a5,.L36
  72:test/Threads_CPP_API_test.cpp ****             thread_dispatch();
 648              		.loc 1 72 13 discriminator 2
 649 0188 13071700 		addi	a4,a4,1
 650              	.LVL58:
 651 018c 6FF01FFF 		j	.L37
 652              	.LVL59:
 653              	.L35:
 654              	.LBE52:
 655              	.LBE53:
 656              	.LBE50:
 657              	.LBE49:
  69:test/Threads_CPP_API_test.cpp ****         printString("B: i="); printInt(i); printString("\n");
 658              		.loc 1 69 5 discriminator 2
 659 0190 13091900 		addi	s2,s2,1
 660              	.LVL60:
 661              	.L39:
  69:test/Threads_CPP_API_test.cpp ****         printString("B: i="); printInt(i); printString("\n");
 662              		.loc 1 69 26 discriminator 1
 663 0194 9307F000 		li	a5,15
 664 0198 63E02705 		bgtu	s2,a5,.L34
 665              	.LBB55:
  70:test/Threads_CPP_API_test.cpp ****         for (uint64 j = 0; j < 10000; j++) {
 666              		.loc 1 70 9
  70:test/Threads_CPP_API_test.cpp ****         for (uint64 j = 0; j < 10000; j++) {
 667              		.loc 1 70 20 is_stmt 0
 668 019c 17050000 		lla	a0,.LC3
 668      13050500 
 669 01a4 97000000 		call	_Z11printStringPKc
 669      E7800000 
 670              	.LVL61:
  70:test/Threads_CPP_API_test.cpp ****         for (uint64 j = 0; j < 10000; j++) {
 671              		.loc 1 70 31 is_stmt 1
  70:test/Threads_CPP_API_test.cpp ****         for (uint64 j = 0; j < 10000; j++) {
GAS LISTING /tmp/cc0kJUrI.s 			page 15


 672              		.loc 1 70 39 is_stmt 0
 673 01ac 13060000 		li	a2,0
 674 01b0 9305A000 		li	a1,10
 675 01b4 1B050900 		sext.w	a0,s2
 676 01b8 97000000 		call	_Z8printIntiii
 676      E7800000 
 677              	.LVL62:
  70:test/Threads_CPP_API_test.cpp ****         for (uint64 j = 0; j < 10000; j++) {
 678              		.loc 1 70 44 is_stmt 1
  70:test/Threads_CPP_API_test.cpp ****         for (uint64 j = 0; j < 10000; j++) {
 679              		.loc 1 70 55 is_stmt 0
 680 01c0 17050000 		lla	a0,.LC1
 680      13050500 
 681 01c8 97000000 		call	_Z11printStringPKc
 681      E7800000 
 682              	.LVL63:
  71:test/Threads_CPP_API_test.cpp ****             for (uint64 k = 0; k < 30000; k++) { /* busy wait */ }
 683              		.loc 1 71 9 is_stmt 1
 684              	.LBB54:
  71:test/Threads_CPP_API_test.cpp ****             for (uint64 k = 0; k < 30000; k++) { /* busy wait */ }
 685              		.loc 1 71 21 is_stmt 0
 686 01d0 93040000 		li	s1,0
 687 01d4 6FF09FF9 		j	.L38
 688              	.LVL64:
 689              	.L34:
 690              	.LBE54:
 691              	.LBE55:
 692              	.LBE48:
  74:test/Threads_CPP_API_test.cpp ****         }
  75:test/Threads_CPP_API_test.cpp ****     }
  76:test/Threads_CPP_API_test.cpp ****     printString("B finished!\n");
 693              		.loc 1 76 5 is_stmt 1
 694              		.loc 1 76 16 is_stmt 0
 695 01d8 17050000 		lla	a0,.LC4
 695      13050500 
 696 01e0 97000000 		call	_Z11printStringPKc
 696      E7800000 
 697              	.LVL65:
  77:test/Threads_CPP_API_test.cpp ****     finishedB = true;
 698              		.loc 1 77 5 is_stmt 1
 699              		.loc 1 77 15 is_stmt 0
 700 01e8 93071000 		li	a5,1
 701 01ec 17070000 		sb	a5,_ZL9finishedB,a4
 701      2300F700 
  78:test/Threads_CPP_API_test.cpp ****     thread_dispatch();
 702              		.loc 1 78 5 is_stmt 1
 703              		.loc 1 78 20 is_stmt 0
 704 01f4 97000000 		call	_Z15thread_dispatchv
 704      E7800000 
 705              	.LVL66:
  79:test/Threads_CPP_API_test.cpp **** }
 706              		.loc 1 79 1
 707 01fc 83308101 		ld	ra,24(sp)
 708              		.cfi_restore 1
 709 0200 03340101 		ld	s0,16(sp)
 710              		.cfi_restore 8
 711              		.cfi_def_cfa 2, 32
GAS LISTING /tmp/cc0kJUrI.s 			page 16


 712 0204 83348100 		ld	s1,8(sp)
 713              		.cfi_restore 9
 714 0208 03390100 		ld	s2,0(sp)
 715              		.cfi_restore 18
 716              	.LVL67:
 717 020c 13010102 		addi	sp,sp,32
 718              		.cfi_def_cfa_offset 0
 719 0210 67800000 		jr	ra
 720              		.cfi_endproc
 721              	.LFE36:
 723              		.section	.text._ZN7WorkerB3runEv,"axG",@progbits,_ZN7WorkerB3runEv,comdat
 724              		.align	2
 725              		.weak	_ZN7WorkerB3runEv
 727              	_ZN7WorkerB3runEv:
 728              	.LFB26:
  31:test/Threads_CPP_API_test.cpp ****         workerBodyB(nullptr);
 729              		.loc 1 31 10 is_stmt 1
 730              		.cfi_startproc
 731              	.LVL68:
 732 0000 130101FF 		addi	sp,sp,-16
 733              		.cfi_def_cfa_offset 16
 734 0004 23341100 		sd	ra,8(sp)
 735 0008 23308100 		sd	s0,0(sp)
 736              		.cfi_offset 1, -8
 737              		.cfi_offset 8, -16
 738 000c 13040101 		addi	s0,sp,16
 739              		.cfi_def_cfa 8, 0
  32:test/Threads_CPP_API_test.cpp ****     }
 740              		.loc 1 32 9
  32:test/Threads_CPP_API_test.cpp ****     }
 741              		.loc 1 32 20 is_stmt 0
 742 0010 93050000 		li	a1,0
 743 0014 97000000 		call	_ZN7WorkerB11workerBodyBEPv
 743      E7800000 
 744              	.LVL69:
  33:test/Threads_CPP_API_test.cpp **** };
 745              		.loc 1 33 5
 746 001c 83308100 		ld	ra,8(sp)
 747              		.cfi_restore 1
 748 0020 03340100 		ld	s0,0(sp)
 749              		.cfi_restore 8
 750              		.cfi_def_cfa 2, 16
 751 0024 13010101 		addi	sp,sp,16
 752              		.cfi_def_cfa_offset 0
 753 0028 67800000 		jr	ra
 754              		.cfi_endproc
 755              	.LFE26:
 757              		.section	.rodata.str1.8
 758 0035 000000   		.align	3
 759              	.LC5:
 760 0038 433A2069 		.string	"C: i="
 760      3D00
 761 003e 0000     		.align	3
 762              	.LC6:
 763 0040 433A2064 		.string	"C: dispatch\n"
 763      69737061 
 763      7463680A 
GAS LISTING /tmp/cc0kJUrI.s 			page 17


 763      00
 764 004d 000000   		.align	3
 765              	.LC7:
 766 0050 433A2074 		.string	"C: t1="
 766      313D00
 767 0057 00       		.align	3
 768              	.LC8:
 769 0058 433A2066 		.string	"C: fibonaci="
 769      69626F6E 
 769      6163693D 
 769      00
 770              		.text
 771              		.align	2
 772              		.globl	_ZN7WorkerC11workerBodyCEPv
 774              	_ZN7WorkerC11workerBodyCEPv:
 775              	.LFB37:
  80:test/Threads_CPP_API_test.cpp **** 
  81:test/Threads_CPP_API_test.cpp **** void WorkerC::workerBodyC(void *arg) {
 776              		.loc 1 81 38 is_stmt 1
 777              		.cfi_startproc
 778              	.LVL70:
 779 0214 130101FE 		addi	sp,sp,-32
 780              		.cfi_def_cfa_offset 32
 781 0218 233C1100 		sd	ra,24(sp)
 782 021c 23388100 		sd	s0,16(sp)
 783 0220 23349100 		sd	s1,8(sp)
 784 0224 23302101 		sd	s2,0(sp)
 785              		.cfi_offset 1, -8
 786              		.cfi_offset 8, -16
 787              		.cfi_offset 9, -24
 788              		.cfi_offset 18, -32
 789 0228 13040102 		addi	s0,sp,32
 790              		.cfi_def_cfa 8, 0
  82:test/Threads_CPP_API_test.cpp ****     uint8 i = 0;
 791              		.loc 1 82 5
 792              	.LVL71:
 793              		.loc 1 82 11 is_stmt 0
 794 022c 93040000 		li	s1,0
 795 0230 6F000004 		j	.L45
 796              	.LVL72:
 797              	.L49:
  83:test/Threads_CPP_API_test.cpp ****     for (; i < 3; i++) {
  84:test/Threads_CPP_API_test.cpp ****         printString("C: i="); printInt(i); printString("\n");
 798              		.loc 1 84 9 is_stmt 1 discriminator 1
 799              		.loc 1 84 20 is_stmt 0 discriminator 1
 800 0234 17050000 		lla	a0,.LC5
 800      13050500 
 801 023c 97000000 		call	_Z11printStringPKc
 801      E7800000 
 802              	.LVL73:
 803              		.loc 1 84 31 is_stmt 1 discriminator 1
 804              		.loc 1 84 39 is_stmt 0 discriminator 1
 805 0244 13060000 		li	a2,0
 806 0248 9305A000 		li	a1,10
 807 024c 13850400 		mv	a0,s1
 808 0250 97000000 		call	_Z8printIntiii
 808      E7800000 
GAS LISTING /tmp/cc0kJUrI.s 			page 18


 809              	.LVL74:
 810              		.loc 1 84 44 is_stmt 1 discriminator 1
 811              		.loc 1 84 55 is_stmt 0 discriminator 1
 812 0258 17050000 		lla	a0,.LC1
 812      13050500 
 813 0260 97000000 		call	_Z11printStringPKc
 813      E7800000 
 814              	.LVL75:
  83:test/Threads_CPP_API_test.cpp ****     for (; i < 3; i++) {
 815              		.loc 1 83 5 is_stmt 1 discriminator 1
 816 0268 9B841400 		addiw	s1,s1,1
 817              	.LVL76:
 818 026c 93F4F40F 		andi	s1,s1,0xff
 819              	.LVL77:
 820              	.L45:
  83:test/Threads_CPP_API_test.cpp ****     for (; i < 3; i++) {
 821              		.loc 1 83 5 discriminator 2
  83:test/Threads_CPP_API_test.cpp ****     for (; i < 3; i++) {
 822              		.loc 1 83 14 discriminator 2
 823 0270 93072000 		li	a5,2
 824 0274 E3F097FC 		bleu	s1,a5,.L49
  85:test/Threads_CPP_API_test.cpp ****     }
  86:test/Threads_CPP_API_test.cpp **** 
  87:test/Threads_CPP_API_test.cpp ****     printString("C: dispatch\n");
 825              		.loc 1 87 5
 826              		.loc 1 87 16 is_stmt 0
 827 0278 17050000 		lla	a0,.LC6
 827      13050500 
 828 0280 97000000 		call	_Z11printStringPKc
 828      E7800000 
 829              	.LVL78:
  88:test/Threads_CPP_API_test.cpp ****     __asm__ ("li t1, 7");
 830              		.loc 1 88 5 is_stmt 1
 831              		.loc 1 88 25 is_stmt 0
 832              	 #APP
 833              	# 88 "test/Threads_CPP_API_test.cpp" 1
  89              	    thread_dispatch();
 834              		li t1, 7
 835              	# 0 "" 2
 836              		.loc 1 89 5 is_stmt 1
 837              		.loc 1 89 20 is_stmt 0
 838              	 #NO_APP
 839 028c 97000000 		call	_Z15thread_dispatchv
 839      E7800000 
 840              	.LVL79:
  90:test/Threads_CPP_API_test.cpp **** 
  91:test/Threads_CPP_API_test.cpp ****     uint64 t1 = 0;
 841              		.loc 1 91 5 is_stmt 1
  92:test/Threads_CPP_API_test.cpp ****     __asm__ ("mv %[t1], t1" : [t1] "=r"(t1));
 842              		.loc 1 92 5
 843              		.loc 1 92 45 is_stmt 0
 844              	 #APP
 845              	# 92 "test/Threads_CPP_API_test.cpp" 1
  93              	
 846              		mv s2, t1
 847              	# 0 "" 2
 848              	.LVL80:
GAS LISTING /tmp/cc0kJUrI.s 			page 19


  94:test/Threads_CPP_API_test.cpp ****     printString("C: t1="); printInt(t1); printString("\n");
 849              		.loc 1 94 5 is_stmt 1
 850              		.loc 1 94 16 is_stmt 0
 851              	 #NO_APP
 852 0298 17050000 		lla	a0,.LC7
 852      13050500 
 853 02a0 97000000 		call	_Z11printStringPKc
 853      E7800000 
 854              	.LVL81:
 855              		.loc 1 94 28 is_stmt 1
 856              		.loc 1 94 36 is_stmt 0
 857 02a8 13060000 		li	a2,0
 858 02ac 9305A000 		li	a1,10
 859 02b0 1B050900 		sext.w	a0,s2
 860 02b4 97000000 		call	_Z8printIntiii
 860      E7800000 
 861              	.LVL82:
 862              		.loc 1 94 42 is_stmt 1
 863              		.loc 1 94 53 is_stmt 0
 864 02bc 17050000 		lla	a0,.LC1
 864      13050500 
 865 02c4 97000000 		call	_Z11printStringPKc
 865      E7800000 
 866              	.LVL83:
  95:test/Threads_CPP_API_test.cpp **** 
  96:test/Threads_CPP_API_test.cpp ****     uint64 result = fibonacci(12);
 867              		.loc 1 96 5 is_stmt 1
 868              		.loc 1 96 30 is_stmt 0
 869 02cc 1305C000 		li	a0,12
 870 02d0 97000000 		call	_ZL9fibonaccim
 870      E7800000 
 871              	.LVL84:
 872 02d8 13090500 		mv	s2,a0
 873              	.LVL85:
  97:test/Threads_CPP_API_test.cpp ****     printString("C: fibonaci="); printInt(result); printString("\n");
 874              		.loc 1 97 5 is_stmt 1
 875              		.loc 1 97 16 is_stmt 0
 876 02dc 17050000 		lla	a0,.LC8
 876      13050500 
 877              	.LVL86:
 878 02e4 97000000 		call	_Z11printStringPKc
 878      E7800000 
 879              	.LVL87:
 880              		.loc 1 97 34 is_stmt 1
 881              		.loc 1 97 42 is_stmt 0
 882 02ec 13060000 		li	a2,0
 883 02f0 9305A000 		li	a1,10
 884 02f4 1B050900 		sext.w	a0,s2
 885 02f8 97000000 		call	_Z8printIntiii
 885      E7800000 
 886              	.LVL88:
 887              		.loc 1 97 52 is_stmt 1
 888              		.loc 1 97 63 is_stmt 0
 889 0300 17050000 		lla	a0,.LC1
 889      13050500 
 890 0308 97000000 		call	_Z11printStringPKc
 890      E7800000 
GAS LISTING /tmp/cc0kJUrI.s 			page 20


 891              	.LVL89:
 892 0310 6F000004 		j	.L47
 893              	.L50:
  98:test/Threads_CPP_API_test.cpp **** 
  99:test/Threads_CPP_API_test.cpp ****     for (; i < 6; i++) {
 100:test/Threads_CPP_API_test.cpp ****         printString("C: i="); printInt(i); printString("\n");
 894              		.loc 1 100 9 is_stmt 1 discriminator 1
 895              		.loc 1 100 20 is_stmt 0 discriminator 1
 896 0314 17050000 		lla	a0,.LC5
 896      13050500 
 897 031c 97000000 		call	_Z11printStringPKc
 897      E7800000 
 898              	.LVL90:
 899              		.loc 1 100 31 is_stmt 1 discriminator 1
 900              		.loc 1 100 39 is_stmt 0 discriminator 1
 901 0324 13060000 		li	a2,0
 902 0328 9305A000 		li	a1,10
 903 032c 13850400 		mv	a0,s1
 904 0330 97000000 		call	_Z8printIntiii
 904      E7800000 
 905              	.LVL91:
 906              		.loc 1 100 44 is_stmt 1 discriminator 1
 907              		.loc 1 100 55 is_stmt 0 discriminator 1
 908 0338 17050000 		lla	a0,.LC1
 908      13050500 
 909 0340 97000000 		call	_Z11printStringPKc
 909      E7800000 
 910              	.LVL92:
  99:test/Threads_CPP_API_test.cpp ****         printString("C: i="); printInt(i); printString("\n");
 911              		.loc 1 99 5 is_stmt 1 discriminator 1
 912 0348 9B841400 		addiw	s1,s1,1
 913              	.LVL93:
 914 034c 93F4F40F 		andi	s1,s1,0xff
 915              	.LVL94:
 916              	.L47:
  99:test/Threads_CPP_API_test.cpp ****         printString("C: i="); printInt(i); printString("\n");
 917              		.loc 1 99 5 discriminator 2
  99:test/Threads_CPP_API_test.cpp ****         printString("C: i="); printInt(i); printString("\n");
 918              		.loc 1 99 14 discriminator 2
 919 0350 93075000 		li	a5,5
 920 0354 E3F097FC 		bleu	s1,a5,.L50
 101:test/Threads_CPP_API_test.cpp ****     }
 102:test/Threads_CPP_API_test.cpp **** 
 103:test/Threads_CPP_API_test.cpp ****     printString("A finished!\n");
 921              		.loc 1 103 5
 922              		.loc 1 103 16 is_stmt 0
 923 0358 17050000 		lla	a0,.LC2
 923      13050500 
 924 0360 97000000 		call	_Z11printStringPKc
 924      E7800000 
 925              	.LVL95:
 104:test/Threads_CPP_API_test.cpp ****     finishedC = true;
 926              		.loc 1 104 5 is_stmt 1
 927              		.loc 1 104 15 is_stmt 0
 928 0368 93071000 		li	a5,1
 929 036c 17070000 		sb	a5,_ZL9finishedC,a4
 929      2300F700 
GAS LISTING /tmp/cc0kJUrI.s 			page 21


 105:test/Threads_CPP_API_test.cpp ****     thread_dispatch();
 930              		.loc 1 105 5 is_stmt 1
 931              		.loc 1 105 20 is_stmt 0
 932 0374 97000000 		call	_Z15thread_dispatchv
 932      E7800000 
 933              	.LVL96:
 106:test/Threads_CPP_API_test.cpp **** }
 934              		.loc 1 106 1
 935 037c 83308101 		ld	ra,24(sp)
 936              		.cfi_restore 1
 937 0380 03340101 		ld	s0,16(sp)
 938              		.cfi_restore 8
 939              		.cfi_def_cfa 2, 32
 940 0384 83348100 		ld	s1,8(sp)
 941              		.cfi_restore 9
 942              	.LVL97:
 943 0388 03390100 		ld	s2,0(sp)
 944              		.cfi_restore 18
 945              	.LVL98:
 946 038c 13010102 		addi	sp,sp,32
 947              		.cfi_def_cfa_offset 0
 948 0390 67800000 		jr	ra
 949              		.cfi_endproc
 950              	.LFE37:
 952              		.section	.text._ZN7WorkerC3runEv,"axG",@progbits,_ZN7WorkerC3runEv,comdat
 953              		.align	2
 954              		.weak	_ZN7WorkerC3runEv
 956              	_ZN7WorkerC3runEv:
 957              	.LFB30:
  41:test/Threads_CPP_API_test.cpp ****         workerBodyC(nullptr);
 958              		.loc 1 41 10 is_stmt 1
 959              		.cfi_startproc
 960              	.LVL99:
 961 0000 130101FF 		addi	sp,sp,-16
 962              		.cfi_def_cfa_offset 16
 963 0004 23341100 		sd	ra,8(sp)
 964 0008 23308100 		sd	s0,0(sp)
 965              		.cfi_offset 1, -8
 966              		.cfi_offset 8, -16
 967 000c 13040101 		addi	s0,sp,16
 968              		.cfi_def_cfa 8, 0
  42:test/Threads_CPP_API_test.cpp ****     }
 969              		.loc 1 42 9
  42:test/Threads_CPP_API_test.cpp ****     }
 970              		.loc 1 42 20 is_stmt 0
 971 0010 93050000 		li	a1,0
 972 0014 97000000 		call	_ZN7WorkerC11workerBodyCEPv
 972      E7800000 
 973              	.LVL100:
  43:test/Threads_CPP_API_test.cpp **** };
 974              		.loc 1 43 5
 975 001c 83308100 		ld	ra,8(sp)
 976              		.cfi_restore 1
 977 0020 03340100 		ld	s0,0(sp)
 978              		.cfi_restore 8
 979              		.cfi_def_cfa 2, 16
 980 0024 13010101 		addi	sp,sp,16
GAS LISTING /tmp/cc0kJUrI.s 			page 22


 981              		.cfi_def_cfa_offset 0
 982 0028 67800000 		jr	ra
 983              		.cfi_endproc
 984              	.LFE30:
 986              		.section	.rodata.str1.8
 987 0065 000000   		.align	3
 988              	.LC9:
 989 0068 443A2069 		.string	"D: i="
 989      3D00
 990 006e 0000     		.align	3
 991              	.LC10:
 992 0070 443A2064 		.string	"D: dispatch\n"
 992      69737061 
 992      7463680A 
 992      00
 993 007d 000000   		.align	3
 994              	.LC11:
 995 0080 443A2066 		.string	"D: fibonaci="
 995      69626F6E 
 995      6163693D 
 995      00
 996 008d 000000   		.align	3
 997              	.LC12:
 998 0090 44206669 		.string	"D finished!\n"
 998      6E697368 
 998      6564210A 
 998      00
 999              		.text
 1000              		.align	2
 1001              		.globl	_ZN7WorkerD11workerBodyDEPv
 1003              	_ZN7WorkerD11workerBodyDEPv:
 1004              	.LFB38:
 107:test/Threads_CPP_API_test.cpp **** 
 108:test/Threads_CPP_API_test.cpp **** void WorkerD::workerBodyD(void* arg) {
 1005              		.loc 1 108 38 is_stmt 1
 1006              		.cfi_startproc
 1007              	.LVL101:
 1008 0394 130101FE 		addi	sp,sp,-32
 1009              		.cfi_def_cfa_offset 32
 1010 0398 233C1100 		sd	ra,24(sp)
 1011 039c 23388100 		sd	s0,16(sp)
 1012 03a0 23349100 		sd	s1,8(sp)
 1013 03a4 23302101 		sd	s2,0(sp)
 1014              		.cfi_offset 1, -8
 1015              		.cfi_offset 8, -16
 1016              		.cfi_offset 9, -24
 1017              		.cfi_offset 18, -32
 1018 03a8 13040102 		addi	s0,sp,32
 1019              		.cfi_def_cfa 8, 0
 109:test/Threads_CPP_API_test.cpp ****     uint8 i = 10;
 1020              		.loc 1 109 5
 1021              	.LVL102:
 1022              		.loc 1 109 11 is_stmt 0
 1023 03ac 9304A000 		li	s1,10
 1024 03b0 6F000004 		j	.L55
 1025              	.LVL103:
 1026              	.L59:
GAS LISTING /tmp/cc0kJUrI.s 			page 23


 110:test/Threads_CPP_API_test.cpp ****     for (; i < 13; i++) {
 111:test/Threads_CPP_API_test.cpp ****         printString("D: i="); printInt(i); printString("\n");
 1027              		.loc 1 111 9 is_stmt 1 discriminator 1
 1028              		.loc 1 111 20 is_stmt 0 discriminator 1
 1029 03b4 17050000 		lla	a0,.LC9
 1029      13050500 
 1030 03bc 97000000 		call	_Z11printStringPKc
 1030      E7800000 
 1031              	.LVL104:
 1032              		.loc 1 111 31 is_stmt 1 discriminator 1
 1033              		.loc 1 111 39 is_stmt 0 discriminator 1
 1034 03c4 13060000 		li	a2,0
 1035 03c8 9305A000 		li	a1,10
 1036 03cc 13850400 		mv	a0,s1
 1037 03d0 97000000 		call	_Z8printIntiii
 1037      E7800000 
 1038              	.LVL105:
 1039              		.loc 1 111 44 is_stmt 1 discriminator 1
 1040              		.loc 1 111 55 is_stmt 0 discriminator 1
 1041 03d8 17050000 		lla	a0,.LC1
 1041      13050500 
 1042 03e0 97000000 		call	_Z11printStringPKc
 1042      E7800000 
 1043              	.LVL106:
 110:test/Threads_CPP_API_test.cpp ****     for (; i < 13; i++) {
 1044              		.loc 1 110 5 is_stmt 1 discriminator 1
 1045 03e8 9B841400 		addiw	s1,s1,1
 1046              	.LVL107:
 1047 03ec 93F4F40F 		andi	s1,s1,0xff
 1048              	.LVL108:
 1049              	.L55:
 110:test/Threads_CPP_API_test.cpp ****     for (; i < 13; i++) {
 1050              		.loc 1 110 5 discriminator 2
 110:test/Threads_CPP_API_test.cpp ****     for (; i < 13; i++) {
 1051              		.loc 1 110 14 discriminator 2
 1052 03f0 9307C000 		li	a5,12
 1053 03f4 E3F097FC 		bleu	s1,a5,.L59
 112:test/Threads_CPP_API_test.cpp ****     }
 113:test/Threads_CPP_API_test.cpp **** 
 114:test/Threads_CPP_API_test.cpp ****     printString("D: dispatch\n");
 1054              		.loc 1 114 5
 1055              		.loc 1 114 16 is_stmt 0
 1056 03f8 17050000 		lla	a0,.LC10
 1056      13050500 
 1057 0400 97000000 		call	_Z11printStringPKc
 1057      E7800000 
 1058              	.LVL109:
 115:test/Threads_CPP_API_test.cpp ****     __asm__ ("li t1, 5");
 1059              		.loc 1 115 5 is_stmt 1
 1060              		.loc 1 115 25 is_stmt 0
 1061              	 #APP
 1062              	# 115 "test/Threads_CPP_API_test.cpp" 1
 116              	    thread_dispatch();
 1063              		li t1, 5
 1064              	# 0 "" 2
 1065              		.loc 1 116 5 is_stmt 1
 1066              		.loc 1 116 20 is_stmt 0
GAS LISTING /tmp/cc0kJUrI.s 			page 24


 1067              	 #NO_APP
 1068 040c 97000000 		call	_Z15thread_dispatchv
 1068      E7800000 
 1069              	.LVL110:
 117:test/Threads_CPP_API_test.cpp **** 
 118:test/Threads_CPP_API_test.cpp ****     uint64 result = fibonacci(16);
 1070              		.loc 1 118 5 is_stmt 1
 1071              		.loc 1 118 30 is_stmt 0
 1072 0414 13050001 		li	a0,16
 1073 0418 97000000 		call	_ZL9fibonaccim
 1073      E7800000 
 1074              	.LVL111:
 1075 0420 13090500 		mv	s2,a0
 1076              	.LVL112:
 119:test/Threads_CPP_API_test.cpp ****     printString("D: fibonaci="); printInt(result); printString("\n");
 1077              		.loc 1 119 5 is_stmt 1
 1078              		.loc 1 119 16 is_stmt 0
 1079 0424 17050000 		lla	a0,.LC11
 1079      13050500 
 1080              	.LVL113:
 1081 042c 97000000 		call	_Z11printStringPKc
 1081      E7800000 
 1082              	.LVL114:
 1083              		.loc 1 119 34 is_stmt 1
 1084              		.loc 1 119 42 is_stmt 0
 1085 0434 13060000 		li	a2,0
 1086 0438 9305A000 		li	a1,10
 1087 043c 1B050900 		sext.w	a0,s2
 1088 0440 97000000 		call	_Z8printIntiii
 1088      E7800000 
 1089              	.LVL115:
 1090              		.loc 1 119 52 is_stmt 1
 1091              		.loc 1 119 63 is_stmt 0
 1092 0448 17050000 		lla	a0,.LC1
 1092      13050500 
 1093 0450 97000000 		call	_Z11printStringPKc
 1093      E7800000 
 1094              	.LVL116:
 1095 0458 6F000004 		j	.L57
 1096              	.L60:
 120:test/Threads_CPP_API_test.cpp **** 
 121:test/Threads_CPP_API_test.cpp ****     for (; i < 16; i++) {
 122:test/Threads_CPP_API_test.cpp ****         printString("D: i="); printInt(i); printString("\n");
 1097              		.loc 1 122 9 is_stmt 1 discriminator 1
 1098              		.loc 1 122 20 is_stmt 0 discriminator 1
 1099 045c 17050000 		lla	a0,.LC9
 1099      13050500 
 1100 0464 97000000 		call	_Z11printStringPKc
 1100      E7800000 
 1101              	.LVL117:
 1102              		.loc 1 122 31 is_stmt 1 discriminator 1
 1103              		.loc 1 122 39 is_stmt 0 discriminator 1
 1104 046c 13060000 		li	a2,0
 1105 0470 9305A000 		li	a1,10
 1106 0474 13850400 		mv	a0,s1
 1107 0478 97000000 		call	_Z8printIntiii
 1107      E7800000 
GAS LISTING /tmp/cc0kJUrI.s 			page 25


 1108              	.LVL118:
 1109              		.loc 1 122 44 is_stmt 1 discriminator 1
 1110              		.loc 1 122 55 is_stmt 0 discriminator 1
 1111 0480 17050000 		lla	a0,.LC1
 1111      13050500 
 1112 0488 97000000 		call	_Z11printStringPKc
 1112      E7800000 
 1113              	.LVL119:
 121:test/Threads_CPP_API_test.cpp ****         printString("D: i="); printInt(i); printString("\n");
 1114              		.loc 1 121 5 is_stmt 1 discriminator 1
 1115 0490 9B841400 		addiw	s1,s1,1
 1116              	.LVL120:
 1117 0494 93F4F40F 		andi	s1,s1,0xff
 1118              	.LVL121:
 1119              	.L57:
 121:test/Threads_CPP_API_test.cpp ****         printString("D: i="); printInt(i); printString("\n");
 1120              		.loc 1 121 5 discriminator 2
 121:test/Threads_CPP_API_test.cpp ****         printString("D: i="); printInt(i); printString("\n");
 1121              		.loc 1 121 14 discriminator 2
 1122 0498 9307F000 		li	a5,15
 1123 049c E3F097FC 		bleu	s1,a5,.L60
 123:test/Threads_CPP_API_test.cpp ****     }
 124:test/Threads_CPP_API_test.cpp **** 
 125:test/Threads_CPP_API_test.cpp ****     printString("D finished!\n");
 1124              		.loc 1 125 5
 1125              		.loc 1 125 16 is_stmt 0
 1126 04a0 17050000 		lla	a0,.LC12
 1126      13050500 
 1127 04a8 97000000 		call	_Z11printStringPKc
 1127      E7800000 
 1128              	.LVL122:
 126:test/Threads_CPP_API_test.cpp ****     finishedD = true;
 1129              		.loc 1 126 5 is_stmt 1
 1130              		.loc 1 126 15 is_stmt 0
 1131 04b0 93071000 		li	a5,1
 1132 04b4 17070000 		sb	a5,_ZL9finishedD,a4
 1132      2300F700 
 127:test/Threads_CPP_API_test.cpp ****     thread_dispatch();
 1133              		.loc 1 127 5 is_stmt 1
 1134              		.loc 1 127 20 is_stmt 0
 1135 04bc 97000000 		call	_Z15thread_dispatchv
 1135      E7800000 
 1136              	.LVL123:
 128:test/Threads_CPP_API_test.cpp **** }
 1137              		.loc 1 128 1
 1138 04c4 83308101 		ld	ra,24(sp)
 1139              		.cfi_restore 1
 1140 04c8 03340101 		ld	s0,16(sp)
 1141              		.cfi_restore 8
 1142              		.cfi_def_cfa 2, 32
 1143 04cc 83348100 		ld	s1,8(sp)
 1144              		.cfi_restore 9
 1145              	.LVL124:
 1146 04d0 03390100 		ld	s2,0(sp)
 1147              		.cfi_restore 18
 1148              	.LVL125:
 1149 04d4 13010102 		addi	sp,sp,32
GAS LISTING /tmp/cc0kJUrI.s 			page 26


 1150              		.cfi_def_cfa_offset 0
 1151 04d8 67800000 		jr	ra
 1152              		.cfi_endproc
 1153              	.LFE38:
 1155              		.section	.text._ZN7WorkerD3runEv,"axG",@progbits,_ZN7WorkerD3runEv,comdat
 1156              		.align	2
 1157              		.weak	_ZN7WorkerD3runEv
 1159              	_ZN7WorkerD3runEv:
 1160              	.LFB34:
  51:test/Threads_CPP_API_test.cpp ****         workerBodyD(nullptr);
 1161              		.loc 1 51 10 is_stmt 1
 1162              		.cfi_startproc
 1163              	.LVL126:
 1164 0000 130101FF 		addi	sp,sp,-16
 1165              		.cfi_def_cfa_offset 16
 1166 0004 23341100 		sd	ra,8(sp)
 1167 0008 23308100 		sd	s0,0(sp)
 1168              		.cfi_offset 1, -8
 1169              		.cfi_offset 8, -16
 1170 000c 13040101 		addi	s0,sp,16
 1171              		.cfi_def_cfa 8, 0
  52:test/Threads_CPP_API_test.cpp ****     }
 1172              		.loc 1 52 9
  52:test/Threads_CPP_API_test.cpp ****     }
 1173              		.loc 1 52 20 is_stmt 0
 1174 0010 93050000 		li	a1,0
 1175 0014 97000000 		call	_ZN7WorkerD11workerBodyDEPv
 1175      E7800000 
 1176              	.LVL127:
  53:test/Threads_CPP_API_test.cpp **** };
 1177              		.loc 1 53 5
 1178 001c 83308100 		ld	ra,8(sp)
 1179              		.cfi_restore 1
 1180 0020 03340100 		ld	s0,0(sp)
 1181              		.cfi_restore 8
 1182              		.cfi_def_cfa 2, 16
 1183 0024 13010101 		addi	sp,sp,16
 1184              		.cfi_def_cfa_offset 0
 1185 0028 67800000 		jr	ra
 1186              		.cfi_endproc
 1187              	.LFE34:
 1189              		.section	.rodata.str1.8
 1190 009d 000000   		.align	3
 1191              	.LC13:
 1192 00a0 54687265 		.string	"ThreadA created\n"
 1192      61644120 
 1192      63726561 
 1192      7465640A 
 1192      00
 1193 00b1 00000000 		.align	3
 1193      000000
 1194              	.LC14:
 1195 00b8 54687265 		.string	"ThreadB created\n"
 1195      61644220 
 1195      63726561 
 1195      7465640A 
 1195      00
GAS LISTING /tmp/cc0kJUrI.s 			page 27


 1196 00c9 00000000 		.align	3
 1196      000000
 1197              	.LC15:
 1198 00d0 54687265 		.string	"ThreadC created\n"
 1198      61644320 
 1198      63726561 
 1198      7465640A 
 1198      00
 1199 00e1 00000000 		.align	3
 1199      000000
 1200              	.LC16:
 1201 00e8 54687265 		.string	"ThreadD created\n"
 1201      61644420 
 1201      63726561 
 1201      7465640A 
 1201      00
 1202              		.text
 1203              		.align	2
 1204              		.globl	_Z20Threads_CPP_API_testv
 1206              	_Z20Threads_CPP_API_testv:
 1207              	.LFB39:
 129:test/Threads_CPP_API_test.cpp **** 
 130:test/Threads_CPP_API_test.cpp **** 
 131:test/Threads_CPP_API_test.cpp **** void Threads_CPP_API_test() {
 1208              		.loc 1 131 29 is_stmt 1
 1209              		.cfi_startproc
 1210              		.cfi_personality 0x9b,DW.ref.__gxx_personality_v0
 1211              		.cfi_lsda 0x1b,.LLSDA39
 1212 04dc 130101FC 		addi	sp,sp,-64
 1213              		.cfi_def_cfa_offset 64
 1214 04e0 233C1102 		sd	ra,56(sp)
 1215 04e4 23388102 		sd	s0,48(sp)
 1216 04e8 23349102 		sd	s1,40(sp)
 1217 04ec 23302103 		sd	s2,32(sp)
 1218              		.cfi_offset 1, -8
 1219              		.cfi_offset 8, -16
 1220              		.cfi_offset 9, -24
 1221              		.cfi_offset 18, -32
 1222 04f0 13040104 		addi	s0,sp,64
 1223              		.cfi_def_cfa 8, 0
 132:test/Threads_CPP_API_test.cpp ****     Thread* threads[4];
 1224              		.loc 1 132 5
 133:test/Threads_CPP_API_test.cpp **** 
 134:test/Threads_CPP_API_test.cpp ****     threads[0] = new WorkerA();
 1225              		.loc 1 134 5
 1226              		.loc 1 134 30 is_stmt 0
 1227 04f4 13050002 		li	a0,32
 1228              	.LEHB0:
 1229 04f8 97000000 		call	_Znwm
 1229      E7800000 
 1230              	.LVL128:
 1231              	.LEHE0:
 1232 0500 93040500 		mv	s1,a0
 1233              	.LVL129:
 1234              	.LEHB1:
 1235              	.LBB56:
 1236              	.LBB57:
GAS LISTING /tmp/cc0kJUrI.s 			page 28


  19:test/Threads_CPP_API_test.cpp **** 
 1237              		.loc 1 19 22
 1238 0504 97000000 		call	_ZN6ThreadC2Ev
 1238      E7800000 
 1239              	.LVL130:
 1240              	.LEHE1:
 1241 050c 97070000 		lla	a5,_ZTV7WorkerA+16
 1241      93870700 
 1242 0514 23B0F400 		sd	a5,0(s1)
 1243              	.LVL131:
 1244              	.LBE57:
 1245              	.LBE56:
 1246              		.loc 1 134 16
 1247 0518 233094FC 		sd	s1,-64(s0)
 135:test/Threads_CPP_API_test.cpp ****     printString("ThreadA created\n");
 1248              		.loc 1 135 5 is_stmt 1
 1249              		.loc 1 135 16 is_stmt 0
 1250 051c 17050000 		lla	a0,.LC13
 1250      13050500 
 1251              	.LEHB2:
 1252 0524 97000000 		call	_Z11printStringPKc
 1252      E7800000 
 1253              	.LVL132:
 136:test/Threads_CPP_API_test.cpp **** 
 137:test/Threads_CPP_API_test.cpp ****     threads[1] = new WorkerB();
 1254              		.loc 1 137 5 is_stmt 1
 1255              		.loc 1 137 30 is_stmt 0
 1256 052c 13050002 		li	a0,32
 1257 0530 97000000 		call	_Znwm
 1257      E7800000 
 1258              	.LVL133:
 1259              	.LEHE2:
 1260 0538 93040500 		mv	s1,a0
 1261              	.LVL134:
 1262              	.LEHB3:
 1263              	.LBB58:
 1264              	.LBB59:
  29:test/Threads_CPP_API_test.cpp **** 
 1265              		.loc 1 29 22
 1266 053c 97000000 		call	_ZN6ThreadC2Ev
 1266      E7800000 
 1267              	.LVL135:
 1268              	.LEHE3:
 1269 0544 97070000 		lla	a5,_ZTV7WorkerB+16
 1269      93870700 
 1270 054c 23B0F400 		sd	a5,0(s1)
 1271              	.LVL136:
 1272              	.LBE59:
 1273              	.LBE58:
 1274              		.loc 1 137 16
 1275 0550 233494FC 		sd	s1,-56(s0)
 138:test/Threads_CPP_API_test.cpp ****     printString("ThreadB created\n");
 1276              		.loc 1 138 5 is_stmt 1
 1277              		.loc 1 138 16 is_stmt 0
 1278 0554 17050000 		lla	a0,.LC14
 1278      13050500 
 1279              	.LEHB4:
GAS LISTING /tmp/cc0kJUrI.s 			page 29


 1280 055c 97000000 		call	_Z11printStringPKc
 1280      E7800000 
 1281              	.LVL137:
 139:test/Threads_CPP_API_test.cpp **** 
 140:test/Threads_CPP_API_test.cpp ****     threads[2] = new WorkerC();
 1282              		.loc 1 140 5 is_stmt 1
 1283              		.loc 1 140 30 is_stmt 0
 1284 0564 13050002 		li	a0,32
 1285 0568 97000000 		call	_Znwm
 1285      E7800000 
 1286              	.LVL138:
 1287              	.LEHE4:
 1288 0570 93040500 		mv	s1,a0
 1289              	.LVL139:
 1290              	.LEHB5:
 1291              	.LBB60:
 1292              	.LBB61:
  39:test/Threads_CPP_API_test.cpp **** 
 1293              		.loc 1 39 22
 1294 0574 97000000 		call	_ZN6ThreadC2Ev
 1294      E7800000 
 1295              	.LVL140:
 1296              	.LEHE5:
 1297 057c 97070000 		lla	a5,_ZTV7WorkerC+16
 1297      93870700 
 1298 0584 23B0F400 		sd	a5,0(s1)
 1299              	.LVL141:
 1300              	.LBE61:
 1301              	.LBE60:
 1302              		.loc 1 140 16
 1303 0588 233894FC 		sd	s1,-48(s0)
 141:test/Threads_CPP_API_test.cpp ****     printString("ThreadC created\n");
 1304              		.loc 1 141 5 is_stmt 1
 1305              		.loc 1 141 16 is_stmt 0
 1306 058c 17050000 		lla	a0,.LC15
 1306      13050500 
 1307              	.LEHB6:
 1308 0594 97000000 		call	_Z11printStringPKc
 1308      E7800000 
 1309              	.LVL142:
 142:test/Threads_CPP_API_test.cpp **** 
 143:test/Threads_CPP_API_test.cpp ****     threads[3] = new WorkerD();
 1310              		.loc 1 143 5 is_stmt 1
 1311              		.loc 1 143 30 is_stmt 0
 1312 059c 13050002 		li	a0,32
 1313 05a0 97000000 		call	_Znwm
 1313      E7800000 
 1314              	.LVL143:
 1315              	.LEHE6:
 1316 05a8 93040500 		mv	s1,a0
 1317              	.LVL144:
 1318              	.LEHB7:
 1319              	.LBB62:
 1320              	.LBB63:
  49:test/Threads_CPP_API_test.cpp **** 
 1321              		.loc 1 49 22
 1322 05ac 97000000 		call	_ZN6ThreadC2Ev
GAS LISTING /tmp/cc0kJUrI.s 			page 30


 1322      E7800000 
 1323              	.LVL145:
 1324              	.LEHE7:
 1325 05b4 97070000 		lla	a5,_ZTV7WorkerD+16
 1325      93870700 
 1326 05bc 23B0F400 		sd	a5,0(s1)
 1327              	.LVL146:
 1328              	.LBE63:
 1329              	.LBE62:
 1330              		.loc 1 143 16
 1331 05c0 233C94FC 		sd	s1,-40(s0)
 144:test/Threads_CPP_API_test.cpp ****     printString("ThreadD created\n");
 1332              		.loc 1 144 5 is_stmt 1
 1333              		.loc 1 144 16 is_stmt 0
 1334 05c4 17050000 		lla	a0,.LC16
 1334      13050500 
 1335              	.LEHB8:
 1336 05cc 97000000 		call	_Z11printStringPKc
 1336      E7800000 
 1337              	.LVL147:
 1338              	.LBB64:
 145:test/Threads_CPP_API_test.cpp **** 
 146:test/Threads_CPP_API_test.cpp ****     for(int i=0; i<4; i++) {
 1339              		.loc 1 146 13
 1340 05d4 93040000 		li	s1,0
 1341              	.L65:
 1342              	.LVL148:
 1343              		.loc 1 146 19 is_stmt 1 discriminator 1
 1344 05d8 93073000 		li	a5,3
 1345 05dc 63C69702 		bgt	s1,a5,.L64
 147:test/Threads_CPP_API_test.cpp ****         threads[i]->start();
 1346              		.loc 1 147 9
 1347              		.loc 1 147 18 is_stmt 0
 1348 05e0 93973400 		slli	a5,s1,3
 1349 05e4 130704FE 		addi	a4,s0,-32
 1350 05e8 B307F700 		add	a5,a4,a5
 1351              		.loc 1 147 26
 1352 05ec 03B507FE 		ld	a0,-32(a5)
 1353 05f0 97000000 		call	_ZN6Thread5startEv
 1353      E7800000 
 1354              	.LVL149:
 146:test/Threads_CPP_API_test.cpp ****         threads[i]->start();
 1355              		.loc 1 146 5 is_stmt 1
 1356 05f8 9B841400 		addiw	s1,s1,1
 1357              	.LVL150:
 1358 05fc 6FF0DFFD 		j	.L65
 1359              	.LVL151:
 1360              	.L66:
 1361              	.LBE64:
 148:test/Threads_CPP_API_test.cpp ****     }
 149:test/Threads_CPP_API_test.cpp **** 
 150:test/Threads_CPP_API_test.cpp ****     while (!(finishedA && finishedB && finishedC && finishedD)) {
 151:test/Threads_CPP_API_test.cpp ****         Thread::dispatch();
 1362              		.loc 1 151 9
 1363              		.loc 1 151 25 is_stmt 0
 1364 0600 97000000 		call	_ZN6Thread8dispatchEv
 1364      E7800000 
GAS LISTING /tmp/cc0kJUrI.s 			page 31


 1365              	.LVL152:
 1366              	.L64:
 150:test/Threads_CPP_API_test.cpp ****         Thread::dispatch();
 1367              		.loc 1 150 5 is_stmt 1
 150:test/Threads_CPP_API_test.cpp ****         Thread::dispatch();
 1368              		.loc 1 150 12
 150:test/Threads_CPP_API_test.cpp ****         Thread::dispatch();
 1369              		.loc 1 150 14 is_stmt 0
 1370 0608 97070000 		lbu	a5,_ZL9finishedA
 1370      83C70700 
 150:test/Threads_CPP_API_test.cpp ****         Thread::dispatch();
 1371              		.loc 1 150 12
 1372 0610 E38807FE 		beqz	a5,.L66
 150:test/Threads_CPP_API_test.cpp ****         Thread::dispatch();
 1373              		.loc 1 150 27 discriminator 2
 1374 0614 97070000 		lbu	a5,_ZL9finishedB
 1374      83C70700 
 150:test/Threads_CPP_API_test.cpp ****         Thread::dispatch();
 1375              		.loc 1 150 24 discriminator 2
 1376 061c E38207FE 		beqz	a5,.L66
 150:test/Threads_CPP_API_test.cpp ****         Thread::dispatch();
 1377              		.loc 1 150 40 discriminator 4
 1378 0620 97070000 		lbu	a5,_ZL9finishedC
 1378      83C70700 
 150:test/Threads_CPP_API_test.cpp ****         Thread::dispatch();
 1379              		.loc 1 150 37 discriminator 4
 1380 0628 E38C07FC 		beqz	a5,.L66
 150:test/Threads_CPP_API_test.cpp ****         Thread::dispatch();
 1381              		.loc 1 150 53 discriminator 6
 1382 062c 97070000 		lbu	a5,_ZL9finishedD
 1382      83C70700 
 150:test/Threads_CPP_API_test.cpp ****         Thread::dispatch();
 1383              		.loc 1 150 12 discriminator 6
 1384 0634 E38607FC 		beqz	a5,.L66
 1385 0638 930404FC 		addi	s1,s0,-64
 1386              	.LVL153:
 1387 063c 6F008000 		j	.L67
 1388              	.LVL154:
 1389              	.L69:
 1390              	.LBB65:
 152:test/Threads_CPP_API_test.cpp ****     }
 153:test/Threads_CPP_API_test.cpp **** 
 154:test/Threads_CPP_API_test.cpp ****     for (auto thread: threads) { delete thread; }
 1391              		.loc 1 154 5 is_stmt 1 discriminator 5
 1392 0640 93848400 		addi	s1,s1,8
 1393              	.LVL155:
 1394              	.L67:
 1395              		.loc 1 154 23 discriminator 6
 1396 0644 930704FE 		addi	a5,s0,-32
 1397 0648 6386F408 		beq	s1,a5,.L63
 1398              		.loc 1 154 15 is_stmt 0 discriminator 2
 1399 064c 03B50400 		ld	a0,0(s1)
 1400              	.LVL156:
 1401              		.loc 1 154 34 is_stmt 1 discriminator 2
 1402              		.loc 1 154 47 is_stmt 0 discriminator 2
 1403 0650 E30805FE 		beqz	a0,.L69
 1404              		.loc 1 154 41 discriminator 3
GAS LISTING /tmp/cc0kJUrI.s 			page 32


 1405 0654 83370500 		ld	a5,0(a0)
 1406 0658 83B78700 		ld	a5,8(a5)
 1407 065c E7800700 		jalr	a5
 1408              	.LVL157:
 1409 0660 6FF01FFE 		j	.L69
 1410              	.LVL158:
 1411              	.L75:
 1412 0664 13090500 		mv	s2,a0
 1413              	.LBE65:
 134:test/Threads_CPP_API_test.cpp ****     printString("ThreadA created\n");
 1414              		.loc 1 134 30
 1415 0668 13850400 		mv	a0,s1
 1416 066c 97000000 		call	_ZdlPv
 1416      E7800000 
 1417              	.LVL159:
 1418 0674 13050900 		mv	a0,s2
 1419 0678 97000000 		call	_Unwind_Resume
 1419      E7800000 
 1420              	.LVL160:
 1421              	.L76:
 1422 0680 13090500 		mv	s2,a0
 137:test/Threads_CPP_API_test.cpp ****     printString("ThreadB created\n");
 1423              		.loc 1 137 30
 1424 0684 13850400 		mv	a0,s1
 1425 0688 97000000 		call	_ZdlPv
 1425      E7800000 
 1426              	.LVL161:
 1427 0690 13050900 		mv	a0,s2
 1428 0694 97000000 		call	_Unwind_Resume
 1428      E7800000 
 1429              	.LVL162:
 1430              	.L77:
 1431 069c 13090500 		mv	s2,a0
 140:test/Threads_CPP_API_test.cpp ****     printString("ThreadC created\n");
 1432              		.loc 1 140 30
 1433 06a0 13850400 		mv	a0,s1
 1434 06a4 97000000 		call	_ZdlPv
 1434      E7800000 
 1435              	.LVL163:
 1436 06ac 13050900 		mv	a0,s2
 1437 06b0 97000000 		call	_Unwind_Resume
 1437      E7800000 
 1438              	.LVL164:
 1439              	.L78:
 1440 06b8 13090500 		mv	s2,a0
 143:test/Threads_CPP_API_test.cpp ****     printString("ThreadD created\n");
 1441              		.loc 1 143 30
 1442 06bc 13850400 		mv	a0,s1
 1443 06c0 97000000 		call	_ZdlPv
 1443      E7800000 
 1444              	.LVL165:
 1445 06c8 13050900 		mv	a0,s2
 1446 06cc 97000000 		call	_Unwind_Resume
 1446      E7800000 
 1447              	.LVL166:
 1448              	.LEHE8:
 1449              	.L63:
GAS LISTING /tmp/cc0kJUrI.s 			page 33


 155:test/Threads_CPP_API_test.cpp **** }
 1450              		.loc 1 155 1
 1451 06d4 83308103 		ld	ra,56(sp)
 1452              		.cfi_restore 1
 1453 06d8 03340103 		ld	s0,48(sp)
 1454              		.cfi_restore 8
 1455              		.cfi_def_cfa 2, 64
 1456 06dc 83348102 		ld	s1,40(sp)
 1457              		.cfi_restore 9
 1458              	.LVL167:
 1459 06e0 03390102 		ld	s2,32(sp)
 1460              		.cfi_restore 18
 1461 06e4 13010104 		addi	sp,sp,64
 1462              		.cfi_def_cfa_offset 0
 1463 06e8 67800000 		jr	ra
 1464              		.cfi_endproc
 1465              	.LFE39:
 1466              		.globl	__gxx_personality_v0
 1467              		.section	.gcc_except_table,"aw",@progbits
 1468              	.LLSDA39:
 1469 0000 FF       		.byte	0xff
 1470 0001 FF       		.byte	0xff
 1471 0002 03       		.byte	0x3
 1472 0003 75       		.byte	0x75
 1473 0004 00000000 		.4byte	.LEHB0-.LFB39
 1474 0008 00000000 		.4byte	.LEHE0-.LEHB0
 1475 000c 00000000 		.4byte	0
 1476 0010 00       		.byte	0
 1477 0011 00000000 		.4byte	.LEHB1-.LFB39
 1478 0015 00000000 		.4byte	.LEHE1-.LEHB1
 1479 0019 00000000 		.4byte	.L75-.LFB39
 1480 001d 00       		.byte	0
 1481 001e 00000000 		.4byte	.LEHB2-.LFB39
 1482 0022 00000000 		.4byte	.LEHE2-.LEHB2
 1483 0026 00000000 		.4byte	0
 1484 002a 00       		.byte	0
 1485 002b 00000000 		.4byte	.LEHB3-.LFB39
 1486 002f 00000000 		.4byte	.LEHE3-.LEHB3
 1487 0033 00000000 		.4byte	.L76-.LFB39
 1488 0037 00       		.byte	0
 1489 0038 00000000 		.4byte	.LEHB4-.LFB39
 1490 003c 00000000 		.4byte	.LEHE4-.LEHB4
 1491 0040 00000000 		.4byte	0
 1492 0044 00       		.byte	0
 1493 0045 00000000 		.4byte	.LEHB5-.LFB39
 1494 0049 00000000 		.4byte	.LEHE5-.LEHB5
 1495 004d 00000000 		.4byte	.L77-.LFB39
 1496 0051 00       		.byte	0
 1497 0052 00000000 		.4byte	.LEHB6-.LFB39
 1498 0056 00000000 		.4byte	.LEHE6-.LEHB6
 1499 005a 00000000 		.4byte	0
 1500 005e 00       		.byte	0
 1501 005f 00000000 		.4byte	.LEHB7-.LFB39
 1502 0063 00000000 		.4byte	.LEHE7-.LEHB7
 1503 0067 00000000 		.4byte	.L78-.LFB39
 1504 006b 00       		.byte	0
 1505 006c 00000000 		.4byte	.LEHB8-.LFB39
GAS LISTING /tmp/cc0kJUrI.s 			page 34


 1506 0070 00000000 		.4byte	.LEHE8-.LEHB8
 1507 0074 00000000 		.4byte	0
 1508 0078 00       		.byte	0
 1509              		.text
 1511              		.weak	_ZTV7WorkerA
 1512              		.section	.rodata._ZTV7WorkerA,"aG",@progbits,_ZTV7WorkerA,comdat
 1513              		.align	3
 1516              	_ZTV7WorkerA:
 1517 0000 00000000 		.dword	0
 1517      00000000 
 1518 0008 00000000 		.dword	0
 1518      00000000 
 1519 0010 00000000 		.dword	_ZN7WorkerAD1Ev
 1519      00000000 
 1520 0018 00000000 		.dword	_ZN7WorkerAD0Ev
 1520      00000000 
 1521 0020 00000000 		.dword	_ZN7WorkerA3runEv
 1521      00000000 
 1522              		.weak	_ZTV7WorkerB
 1523              		.section	.rodata._ZTV7WorkerB,"aG",@progbits,_ZTV7WorkerB,comdat
 1524              		.align	3
 1527              	_ZTV7WorkerB:
 1528 0000 00000000 		.dword	0
 1528      00000000 
 1529 0008 00000000 		.dword	0
 1529      00000000 
 1530 0010 00000000 		.dword	_ZN7WorkerBD1Ev
 1530      00000000 
 1531 0018 00000000 		.dword	_ZN7WorkerBD0Ev
 1531      00000000 
 1532 0020 00000000 		.dword	_ZN7WorkerB3runEv
 1532      00000000 
 1533              		.weak	_ZTV7WorkerC
 1534              		.section	.rodata._ZTV7WorkerC,"aG",@progbits,_ZTV7WorkerC,comdat
 1535              		.align	3
 1538              	_ZTV7WorkerC:
 1539 0000 00000000 		.dword	0
 1539      00000000 
 1540 0008 00000000 		.dword	0
 1540      00000000 
 1541 0010 00000000 		.dword	_ZN7WorkerCD1Ev
 1541      00000000 
 1542 0018 00000000 		.dword	_ZN7WorkerCD0Ev
 1542      00000000 
 1543 0020 00000000 		.dword	_ZN7WorkerC3runEv
 1543      00000000 
 1544              		.weak	_ZTV7WorkerD
 1545              		.section	.rodata._ZTV7WorkerD,"aG",@progbits,_ZTV7WorkerD,comdat
 1546              		.align	3
 1549              	_ZTV7WorkerD:
 1550 0000 00000000 		.dword	0
 1550      00000000 
 1551 0008 00000000 		.dword	0
 1551      00000000 
 1552 0010 00000000 		.dword	_ZN7WorkerDD1Ev
 1552      00000000 
 1553 0018 00000000 		.dword	_ZN7WorkerDD0Ev
GAS LISTING /tmp/cc0kJUrI.s 			page 35


 1553      00000000 
 1554 0020 00000000 		.dword	_ZN7WorkerD3runEv
 1554      00000000 
 1555              		.section	.sbss,"aw",@nobits
 1558              	_ZL9finishedD:
 1559 0000 00       		.zero	1
 1562              	_ZL9finishedC:
 1563 0001 00       		.zero	1
 1566              	_ZL9finishedB:
 1567 0002 00       		.zero	1
 1570              	_ZL9finishedA:
 1571 0003 00       		.zero	1
 1572              		.text
 1573              	.Letext0:
 1574              		.file 2 "test/../h/../h/../h/../lib/hw.h"
 1575              		.file 3 "test/../h/syscall_cpp.hpp"
 1576              		.file 4 "test/../h/syscall_c.hpp"
 1577              		.file 5 "test/printing.hpp"
 5425              		.align	3
 5428              	DW.ref.__gxx_personality_v0:
 5429 0000 00000000 		.dword	__gxx_personality_v0
 5429      00000000 
 5430              		.ident	"GCC: () 9.3.0"
GAS LISTING /tmp/cc0kJUrI.s 			page 36


DEFINED SYMBOLS
                            *ABS*:0000000000000000 Threads_CPP_API_test.cpp
     /tmp/cc0kJUrI.s:11     .text:0000000000000000 _ZL9fibonaccim
     /tmp/cc0kJUrI.s:15     .text:0000000000000000 .L0 
     /tmp/cc0kJUrI.s:17     .text:0000000000000000 .L0 
     /tmp/cc0kJUrI.s:18     .text:0000000000000004 .L0 
     /tmp/cc0kJUrI.s:23     .text:0000000000000014 .L0 
     /tmp/cc0kJUrI.s:24     .text:0000000000000014 .L0 
     /tmp/cc0kJUrI.s:25     .text:0000000000000014 .L0 
     /tmp/cc0kJUrI.s:26     .text:0000000000000014 .L0 
     /tmp/cc0kJUrI.s:28     .text:0000000000000018 .L0 
     /tmp/cc0kJUrI.s:31     .text:000000000000001c .L0 
     /tmp/cc0kJUrI.s:34     .text:0000000000000024 .L0 
     /tmp/cc0kJUrI.s:35     .text:0000000000000024 .L0 
     /tmp/cc0kJUrI.s:38     .text:000000000000002c .L0 
     /tmp/cc0kJUrI.s:42     .text:0000000000000030 .L0 
     /tmp/cc0kJUrI.s:43     .text:0000000000000030 .L0 
     /tmp/cc0kJUrI.s:48     .text:0000000000000040 .L0 
     /tmp/cc0kJUrI.s:52     .text:000000000000004c .L0 
     /tmp/cc0kJUrI.s:55     .text:0000000000000050 .L0 
     /tmp/cc0kJUrI.s:56     .text:0000000000000054 .L0 
     /tmp/cc0kJUrI.s:57     .text:0000000000000054 .L0 
     /tmp/cc0kJUrI.s:59     .text:0000000000000058 .L0 
     /tmp/cc0kJUrI.s:60     .text:0000000000000058 .L0 
     /tmp/cc0kJUrI.s:62     .text:000000000000005c .L0 
     /tmp/cc0kJUrI.s:65     .text:0000000000000060 .L0 
     /tmp/cc0kJUrI.s:67     .text:0000000000000064 .L0 
     /tmp/cc0kJUrI.s:71     .text:0000000000000068 .L0 
     /tmp/cc0kJUrI.s:73     .text:0000000000000068 .L0 
     /tmp/cc0kJUrI.s:74     .text:0000000000000068 .L0 
     /tmp/cc0kJUrI.s:77     .text:0000000000000074 .L0 
     /tmp/cc0kJUrI.s:84     .text._ZN7WorkerAD2Ev:0000000000000000 _ZN7WorkerAD2Ev
     /tmp/cc0kJUrI.s:87     .text._ZN7WorkerAD2Ev:0000000000000000 .L0 
     /tmp/cc0kJUrI.s:89     .text._ZN7WorkerAD2Ev:0000000000000000 .L0 
     /tmp/cc0kJUrI.s:90     .text._ZN7WorkerAD2Ev:0000000000000004 .L0 
     /tmp/cc0kJUrI.s:93     .text._ZN7WorkerAD2Ev:000000000000000c .L0 
     /tmp/cc0kJUrI.s:94     .text._ZN7WorkerAD2Ev:000000000000000c .L0 
     /tmp/cc0kJUrI.s:96     .text._ZN7WorkerAD2Ev:0000000000000010 .L0 
     /tmp/cc0kJUrI.s:1516   .rodata._ZTV7WorkerA:0000000000000000 _ZTV7WorkerA
     /tmp/cc0kJUrI.s:99     .text._ZN7WorkerAD2Ev:0000000000000010 .L0 
     /tmp/cc0kJUrI.s:105    .text._ZN7WorkerAD2Ev:0000000000000028 .L0 
     /tmp/cc0kJUrI.s:107    .text._ZN7WorkerAD2Ev:000000000000002c .L0 
     /tmp/cc0kJUrI.s:108    .text._ZN7WorkerAD2Ev:000000000000002c .L0 
     /tmp/cc0kJUrI.s:110    .text._ZN7WorkerAD2Ev:0000000000000030 .L0 
     /tmp/cc0kJUrI.s:112    .text._ZN7WorkerAD2Ev:0000000000000034 .L0 
     /tmp/cc0kJUrI.s:84     .text._ZN7WorkerAD2Ev:0000000000000000 _ZN7WorkerAD1Ev
     /tmp/cc0kJUrI.s:121    .text._ZN7WorkerAD0Ev:0000000000000000 _ZN7WorkerAD0Ev
     /tmp/cc0kJUrI.s:124    .text._ZN7WorkerAD0Ev:0000000000000000 .L0 
     /tmp/cc0kJUrI.s:126    .text._ZN7WorkerAD0Ev:0000000000000000 .L0 
     /tmp/cc0kJUrI.s:127    .text._ZN7WorkerAD0Ev:0000000000000004 .L0 
     /tmp/cc0kJUrI.s:131    .text._ZN7WorkerAD0Ev:0000000000000010 .L0 
     /tmp/cc0kJUrI.s:132    .text._ZN7WorkerAD0Ev:0000000000000010 .L0 
     /tmp/cc0kJUrI.s:133    .text._ZN7WorkerAD0Ev:0000000000000010 .L0 
     /tmp/cc0kJUrI.s:135    .text._ZN7WorkerAD0Ev:0000000000000014 .L0 
     /tmp/cc0kJUrI.s:141    .text._ZN7WorkerAD0Ev:0000000000000018 .L0 
     /tmp/cc0kJUrI.s:151    .text._ZN7WorkerAD0Ev:000000000000003c .L0 
     /tmp/cc0kJUrI.s:153    .text._ZN7WorkerAD0Ev:0000000000000040 .L0 
GAS LISTING /tmp/cc0kJUrI.s 			page 37


     /tmp/cc0kJUrI.s:154    .text._ZN7WorkerAD0Ev:0000000000000040 .L0 
     /tmp/cc0kJUrI.s:156    .text._ZN7WorkerAD0Ev:0000000000000044 .L0 
     /tmp/cc0kJUrI.s:159    .text._ZN7WorkerAD0Ev:0000000000000048 .L0 
     /tmp/cc0kJUrI.s:161    .text._ZN7WorkerAD0Ev:000000000000004c .L0 
     /tmp/cc0kJUrI.s:168    .text._ZN7WorkerBD2Ev:0000000000000000 _ZN7WorkerBD2Ev
     /tmp/cc0kJUrI.s:171    .text._ZN7WorkerBD2Ev:0000000000000000 .L0 
     /tmp/cc0kJUrI.s:173    .text._ZN7WorkerBD2Ev:0000000000000000 .L0 
     /tmp/cc0kJUrI.s:174    .text._ZN7WorkerBD2Ev:0000000000000004 .L0 
     /tmp/cc0kJUrI.s:177    .text._ZN7WorkerBD2Ev:000000000000000c .L0 
     /tmp/cc0kJUrI.s:178    .text._ZN7WorkerBD2Ev:000000000000000c .L0 
     /tmp/cc0kJUrI.s:180    .text._ZN7WorkerBD2Ev:0000000000000010 .L0 
     /tmp/cc0kJUrI.s:1527   .rodata._ZTV7WorkerB:0000000000000000 _ZTV7WorkerB
     /tmp/cc0kJUrI.s:183    .text._ZN7WorkerBD2Ev:0000000000000010 .L0 
     /tmp/cc0kJUrI.s:189    .text._ZN7WorkerBD2Ev:0000000000000028 .L0 
     /tmp/cc0kJUrI.s:191    .text._ZN7WorkerBD2Ev:000000000000002c .L0 
     /tmp/cc0kJUrI.s:192    .text._ZN7WorkerBD2Ev:000000000000002c .L0 
     /tmp/cc0kJUrI.s:194    .text._ZN7WorkerBD2Ev:0000000000000030 .L0 
     /tmp/cc0kJUrI.s:196    .text._ZN7WorkerBD2Ev:0000000000000034 .L0 
     /tmp/cc0kJUrI.s:168    .text._ZN7WorkerBD2Ev:0000000000000000 _ZN7WorkerBD1Ev
     /tmp/cc0kJUrI.s:205    .text._ZN7WorkerBD0Ev:0000000000000000 _ZN7WorkerBD0Ev
     /tmp/cc0kJUrI.s:208    .text._ZN7WorkerBD0Ev:0000000000000000 .L0 
     /tmp/cc0kJUrI.s:210    .text._ZN7WorkerBD0Ev:0000000000000000 .L0 
     /tmp/cc0kJUrI.s:211    .text._ZN7WorkerBD0Ev:0000000000000004 .L0 
     /tmp/cc0kJUrI.s:215    .text._ZN7WorkerBD0Ev:0000000000000010 .L0 
     /tmp/cc0kJUrI.s:216    .text._ZN7WorkerBD0Ev:0000000000000010 .L0 
     /tmp/cc0kJUrI.s:217    .text._ZN7WorkerBD0Ev:0000000000000010 .L0 
     /tmp/cc0kJUrI.s:219    .text._ZN7WorkerBD0Ev:0000000000000014 .L0 
     /tmp/cc0kJUrI.s:225    .text._ZN7WorkerBD0Ev:0000000000000018 .L0 
     /tmp/cc0kJUrI.s:235    .text._ZN7WorkerBD0Ev:000000000000003c .L0 
     /tmp/cc0kJUrI.s:237    .text._ZN7WorkerBD0Ev:0000000000000040 .L0 
     /tmp/cc0kJUrI.s:238    .text._ZN7WorkerBD0Ev:0000000000000040 .L0 
     /tmp/cc0kJUrI.s:240    .text._ZN7WorkerBD0Ev:0000000000000044 .L0 
     /tmp/cc0kJUrI.s:243    .text._ZN7WorkerBD0Ev:0000000000000048 .L0 
     /tmp/cc0kJUrI.s:245    .text._ZN7WorkerBD0Ev:000000000000004c .L0 
     /tmp/cc0kJUrI.s:252    .text._ZN7WorkerCD2Ev:0000000000000000 _ZN7WorkerCD2Ev
     /tmp/cc0kJUrI.s:255    .text._ZN7WorkerCD2Ev:0000000000000000 .L0 
     /tmp/cc0kJUrI.s:257    .text._ZN7WorkerCD2Ev:0000000000000000 .L0 
     /tmp/cc0kJUrI.s:258    .text._ZN7WorkerCD2Ev:0000000000000004 .L0 
     /tmp/cc0kJUrI.s:261    .text._ZN7WorkerCD2Ev:000000000000000c .L0 
     /tmp/cc0kJUrI.s:262    .text._ZN7WorkerCD2Ev:000000000000000c .L0 
     /tmp/cc0kJUrI.s:264    .text._ZN7WorkerCD2Ev:0000000000000010 .L0 
     /tmp/cc0kJUrI.s:1538   .rodata._ZTV7WorkerC:0000000000000000 _ZTV7WorkerC
     /tmp/cc0kJUrI.s:267    .text._ZN7WorkerCD2Ev:0000000000000010 .L0 
     /tmp/cc0kJUrI.s:273    .text._ZN7WorkerCD2Ev:0000000000000028 .L0 
     /tmp/cc0kJUrI.s:275    .text._ZN7WorkerCD2Ev:000000000000002c .L0 
     /tmp/cc0kJUrI.s:276    .text._ZN7WorkerCD2Ev:000000000000002c .L0 
     /tmp/cc0kJUrI.s:278    .text._ZN7WorkerCD2Ev:0000000000000030 .L0 
     /tmp/cc0kJUrI.s:280    .text._ZN7WorkerCD2Ev:0000000000000034 .L0 
     /tmp/cc0kJUrI.s:252    .text._ZN7WorkerCD2Ev:0000000000000000 _ZN7WorkerCD1Ev
     /tmp/cc0kJUrI.s:289    .text._ZN7WorkerCD0Ev:0000000000000000 _ZN7WorkerCD0Ev
     /tmp/cc0kJUrI.s:292    .text._ZN7WorkerCD0Ev:0000000000000000 .L0 
     /tmp/cc0kJUrI.s:294    .text._ZN7WorkerCD0Ev:0000000000000000 .L0 
     /tmp/cc0kJUrI.s:295    .text._ZN7WorkerCD0Ev:0000000000000004 .L0 
     /tmp/cc0kJUrI.s:299    .text._ZN7WorkerCD0Ev:0000000000000010 .L0 
     /tmp/cc0kJUrI.s:300    .text._ZN7WorkerCD0Ev:0000000000000010 .L0 
     /tmp/cc0kJUrI.s:301    .text._ZN7WorkerCD0Ev:0000000000000010 .L0 
     /tmp/cc0kJUrI.s:303    .text._ZN7WorkerCD0Ev:0000000000000014 .L0 
GAS LISTING /tmp/cc0kJUrI.s 			page 38


     /tmp/cc0kJUrI.s:309    .text._ZN7WorkerCD0Ev:0000000000000018 .L0 
     /tmp/cc0kJUrI.s:319    .text._ZN7WorkerCD0Ev:000000000000003c .L0 
     /tmp/cc0kJUrI.s:321    .text._ZN7WorkerCD0Ev:0000000000000040 .L0 
     /tmp/cc0kJUrI.s:322    .text._ZN7WorkerCD0Ev:0000000000000040 .L0 
     /tmp/cc0kJUrI.s:324    .text._ZN7WorkerCD0Ev:0000000000000044 .L0 
     /tmp/cc0kJUrI.s:327    .text._ZN7WorkerCD0Ev:0000000000000048 .L0 
     /tmp/cc0kJUrI.s:329    .text._ZN7WorkerCD0Ev:000000000000004c .L0 
     /tmp/cc0kJUrI.s:336    .text._ZN7WorkerDD2Ev:0000000000000000 _ZN7WorkerDD2Ev
     /tmp/cc0kJUrI.s:339    .text._ZN7WorkerDD2Ev:0000000000000000 .L0 
     /tmp/cc0kJUrI.s:341    .text._ZN7WorkerDD2Ev:0000000000000000 .L0 
     /tmp/cc0kJUrI.s:342    .text._ZN7WorkerDD2Ev:0000000000000004 .L0 
     /tmp/cc0kJUrI.s:345    .text._ZN7WorkerDD2Ev:000000000000000c .L0 
     /tmp/cc0kJUrI.s:346    .text._ZN7WorkerDD2Ev:000000000000000c .L0 
     /tmp/cc0kJUrI.s:348    .text._ZN7WorkerDD2Ev:0000000000000010 .L0 
     /tmp/cc0kJUrI.s:1549   .rodata._ZTV7WorkerD:0000000000000000 _ZTV7WorkerD
     /tmp/cc0kJUrI.s:351    .text._ZN7WorkerDD2Ev:0000000000000010 .L0 
     /tmp/cc0kJUrI.s:357    .text._ZN7WorkerDD2Ev:0000000000000028 .L0 
     /tmp/cc0kJUrI.s:359    .text._ZN7WorkerDD2Ev:000000000000002c .L0 
     /tmp/cc0kJUrI.s:360    .text._ZN7WorkerDD2Ev:000000000000002c .L0 
     /tmp/cc0kJUrI.s:362    .text._ZN7WorkerDD2Ev:0000000000000030 .L0 
     /tmp/cc0kJUrI.s:364    .text._ZN7WorkerDD2Ev:0000000000000034 .L0 
     /tmp/cc0kJUrI.s:336    .text._ZN7WorkerDD2Ev:0000000000000000 _ZN7WorkerDD1Ev
     /tmp/cc0kJUrI.s:373    .text._ZN7WorkerDD0Ev:0000000000000000 _ZN7WorkerDD0Ev
     /tmp/cc0kJUrI.s:376    .text._ZN7WorkerDD0Ev:0000000000000000 .L0 
     /tmp/cc0kJUrI.s:378    .text._ZN7WorkerDD0Ev:0000000000000000 .L0 
     /tmp/cc0kJUrI.s:379    .text._ZN7WorkerDD0Ev:0000000000000004 .L0 
     /tmp/cc0kJUrI.s:383    .text._ZN7WorkerDD0Ev:0000000000000010 .L0 
     /tmp/cc0kJUrI.s:384    .text._ZN7WorkerDD0Ev:0000000000000010 .L0 
     /tmp/cc0kJUrI.s:385    .text._ZN7WorkerDD0Ev:0000000000000010 .L0 
     /tmp/cc0kJUrI.s:387    .text._ZN7WorkerDD0Ev:0000000000000014 .L0 
     /tmp/cc0kJUrI.s:393    .text._ZN7WorkerDD0Ev:0000000000000018 .L0 
     /tmp/cc0kJUrI.s:403    .text._ZN7WorkerDD0Ev:000000000000003c .L0 
     /tmp/cc0kJUrI.s:405    .text._ZN7WorkerDD0Ev:0000000000000040 .L0 
     /tmp/cc0kJUrI.s:406    .text._ZN7WorkerDD0Ev:0000000000000040 .L0 
     /tmp/cc0kJUrI.s:408    .text._ZN7WorkerDD0Ev:0000000000000044 .L0 
     /tmp/cc0kJUrI.s:411    .text._ZN7WorkerDD0Ev:0000000000000048 .L0 
     /tmp/cc0kJUrI.s:413    .text._ZN7WorkerDD0Ev:000000000000004c .L0 
     /tmp/cc0kJUrI.s:430    .text:0000000000000074 _ZN7WorkerA11workerBodyAEPv
     /tmp/cc0kJUrI.s:433    .text:0000000000000074 .L0 
     /tmp/cc0kJUrI.s:435    .text:0000000000000074 .L0 
     /tmp/cc0kJUrI.s:436    .text:0000000000000078 .L0 
     /tmp/cc0kJUrI.s:441    .text:0000000000000088 .L0 
     /tmp/cc0kJUrI.s:442    .text:0000000000000088 .L0 
     /tmp/cc0kJUrI.s:443    .text:0000000000000088 .L0 
     /tmp/cc0kJUrI.s:444    .text:0000000000000088 .L0 
     /tmp/cc0kJUrI.s:446    .text:000000000000008c .L0 
     /tmp/cc0kJUrI.s:450    .text:000000000000008c .L0 
     /tmp/cc0kJUrI.s:451    .text:000000000000008c .L0 
     /tmp/cc0kJUrI.s:459    .text:0000000000000094 .L0 
     /tmp/cc0kJUrI.s:460    .text:0000000000000094 .L0 
     /tmp/cc0kJUrI.s:464    .text:000000000000009c .L0 
     /tmp/cc0kJUrI.s:468    .text:00000000000000a0 .L0 
     /tmp/cc0kJUrI.s:474    .text:00000000000000ac .L0 
     /tmp/cc0kJUrI.s:478    .text:00000000000000b0 .L0 
     /tmp/cc0kJUrI.s:482    .text:00000000000000bc .L0 
     /tmp/cc0kJUrI.s:492    .text:00000000000000c4 .L0 
     /tmp/cc0kJUrI.s:496    .text:00000000000000c8 .L0 
GAS LISTING /tmp/cc0kJUrI.s 			page 39


     /tmp/cc0kJUrI.s:500    .text:00000000000000d0 .L0 
     /tmp/cc0kJUrI.s:501    .text:00000000000000d0 .L0 
     /tmp/cc0kJUrI.s:505    .text:00000000000000e0 .L0 
     /tmp/cc0kJUrI.s:506    .text:00000000000000e0 .L0 
     /tmp/cc0kJUrI.s:512    .text:00000000000000f4 .L0 
     /tmp/cc0kJUrI.s:513    .text:00000000000000f4 .L0 
     /tmp/cc0kJUrI.s:518    .text:0000000000000104 .L0 
     /tmp/cc0kJUrI.s:519    .text:0000000000000104 .L0 
     /tmp/cc0kJUrI.s:527    .text:000000000000010c .L0 
     /tmp/cc0kJUrI.s:528    .text:000000000000010c .L0 
     /tmp/cc0kJUrI.s:532    .text:000000000000011c .L0 
     /tmp/cc0kJUrI.s:533    .text:000000000000011c .L0 
     /tmp/cc0kJUrI.s:1570   .sbss:0000000000000003 _ZL9finishedA
     /tmp/cc0kJUrI.s:536    .text:0000000000000128 .L0 
     /tmp/cc0kJUrI.s:537    .text:000000000000012c .L0 
     /tmp/cc0kJUrI.s:539    .text:0000000000000130 .L0 
     /tmp/cc0kJUrI.s:540    .text:0000000000000130 .L0 
     /tmp/cc0kJUrI.s:542    .text:0000000000000134 .L0 
     /tmp/cc0kJUrI.s:544    .text:0000000000000138 .L0 
     /tmp/cc0kJUrI.s:547    .text:000000000000013c .L0 
     /tmp/cc0kJUrI.s:549    .text:0000000000000140 .L0 
     /tmp/cc0kJUrI.s:556    .text._ZN7WorkerA3runEv:0000000000000000 _ZN7WorkerA3runEv
     /tmp/cc0kJUrI.s:559    .text._ZN7WorkerA3runEv:0000000000000000 .L0 
     /tmp/cc0kJUrI.s:561    .text._ZN7WorkerA3runEv:0000000000000000 .L0 
     /tmp/cc0kJUrI.s:562    .text._ZN7WorkerA3runEv:0000000000000004 .L0 
     /tmp/cc0kJUrI.s:565    .text._ZN7WorkerA3runEv:000000000000000c .L0 
     /tmp/cc0kJUrI.s:566    .text._ZN7WorkerA3runEv:000000000000000c .L0 
     /tmp/cc0kJUrI.s:568    .text._ZN7WorkerA3runEv:0000000000000010 .L0 
     /tmp/cc0kJUrI.s:570    .text._ZN7WorkerA3runEv:0000000000000010 .L0 
     /tmp/cc0kJUrI.s:571    .text._ZN7WorkerA3runEv:0000000000000010 .L0 
     /tmp/cc0kJUrI.s:575    .text._ZN7WorkerA3runEv:000000000000001c .L0 
     /tmp/cc0kJUrI.s:576    .text._ZN7WorkerA3runEv:0000000000000020 .L0 
     /tmp/cc0kJUrI.s:578    .text._ZN7WorkerA3runEv:0000000000000024 .L0 
     /tmp/cc0kJUrI.s:579    .text._ZN7WorkerA3runEv:0000000000000024 .L0 
     /tmp/cc0kJUrI.s:581    .text._ZN7WorkerA3runEv:0000000000000028 .L0 
     /tmp/cc0kJUrI.s:583    .text._ZN7WorkerA3runEv:000000000000002c .L0 
     /tmp/cc0kJUrI.s:597    .text:0000000000000140 _ZN7WorkerB11workerBodyBEPv
     /tmp/cc0kJUrI.s:600    .text:0000000000000140 .L0 
     /tmp/cc0kJUrI.s:602    .text:0000000000000140 .L0 
     /tmp/cc0kJUrI.s:603    .text:0000000000000144 .L0 
     /tmp/cc0kJUrI.s:608    .text:0000000000000154 .L0 
     /tmp/cc0kJUrI.s:609    .text:0000000000000154 .L0 
     /tmp/cc0kJUrI.s:610    .text:0000000000000154 .L0 
     /tmp/cc0kJUrI.s:611    .text:0000000000000154 .L0 
     /tmp/cc0kJUrI.s:613    .text:0000000000000158 .L0 
     /tmp/cc0kJUrI.s:617    .text:0000000000000158 .L0 
     /tmp/cc0kJUrI.s:618    .text:0000000000000158 .L0 
     /tmp/cc0kJUrI.s:626    .text:0000000000000160 .L0 
     /tmp/cc0kJUrI.s:627    .text:0000000000000160 .L0 
     /tmp/cc0kJUrI.s:631    .text:0000000000000168 .L0 
     /tmp/cc0kJUrI.s:635    .text:000000000000016c .L0 
     /tmp/cc0kJUrI.s:641    .text:0000000000000178 .L0 
     /tmp/cc0kJUrI.s:645    .text:000000000000017c .L0 
     /tmp/cc0kJUrI.s:649    .text:0000000000000188 .L0 
     /tmp/cc0kJUrI.s:659    .text:0000000000000190 .L0 
     /tmp/cc0kJUrI.s:663    .text:0000000000000194 .L0 
     /tmp/cc0kJUrI.s:667    .text:000000000000019c .L0 
GAS LISTING /tmp/cc0kJUrI.s 			page 40


     /tmp/cc0kJUrI.s:668    .text:000000000000019c .L0 
     /tmp/cc0kJUrI.s:672    .text:00000000000001ac .L0 
     /tmp/cc0kJUrI.s:673    .text:00000000000001ac .L0 
     /tmp/cc0kJUrI.s:679    .text:00000000000001c0 .L0 
     /tmp/cc0kJUrI.s:680    .text:00000000000001c0 .L0 
     /tmp/cc0kJUrI.s:685    .text:00000000000001d0 .L0 
     /tmp/cc0kJUrI.s:686    .text:00000000000001d0 .L0 
     /tmp/cc0kJUrI.s:694    .text:00000000000001d8 .L0 
     /tmp/cc0kJUrI.s:695    .text:00000000000001d8 .L0 
     /tmp/cc0kJUrI.s:699    .text:00000000000001e8 .L0 
     /tmp/cc0kJUrI.s:700    .text:00000000000001e8 .L0 
     /tmp/cc0kJUrI.s:1566   .sbss:0000000000000002 _ZL9finishedB
     /tmp/cc0kJUrI.s:703    .text:00000000000001f4 .L0 
     /tmp/cc0kJUrI.s:704    .text:00000000000001f4 .L0 
     /tmp/cc0kJUrI.s:707    .text:00000000000001fc .L0 
     /tmp/cc0kJUrI.s:708    .text:0000000000000200 .L0 
     /tmp/cc0kJUrI.s:710    .text:0000000000000204 .L0 
     /tmp/cc0kJUrI.s:711    .text:0000000000000204 .L0 
     /tmp/cc0kJUrI.s:713    .text:0000000000000208 .L0 
     /tmp/cc0kJUrI.s:715    .text:000000000000020c .L0 
     /tmp/cc0kJUrI.s:718    .text:0000000000000210 .L0 
     /tmp/cc0kJUrI.s:720    .text:0000000000000214 .L0 
     /tmp/cc0kJUrI.s:727    .text._ZN7WorkerB3runEv:0000000000000000 _ZN7WorkerB3runEv
     /tmp/cc0kJUrI.s:730    .text._ZN7WorkerB3runEv:0000000000000000 .L0 
     /tmp/cc0kJUrI.s:732    .text._ZN7WorkerB3runEv:0000000000000000 .L0 
     /tmp/cc0kJUrI.s:733    .text._ZN7WorkerB3runEv:0000000000000004 .L0 
     /tmp/cc0kJUrI.s:736    .text._ZN7WorkerB3runEv:000000000000000c .L0 
     /tmp/cc0kJUrI.s:737    .text._ZN7WorkerB3runEv:000000000000000c .L0 
     /tmp/cc0kJUrI.s:739    .text._ZN7WorkerB3runEv:0000000000000010 .L0 
     /tmp/cc0kJUrI.s:741    .text._ZN7WorkerB3runEv:0000000000000010 .L0 
     /tmp/cc0kJUrI.s:742    .text._ZN7WorkerB3runEv:0000000000000010 .L0 
     /tmp/cc0kJUrI.s:746    .text._ZN7WorkerB3runEv:000000000000001c .L0 
     /tmp/cc0kJUrI.s:747    .text._ZN7WorkerB3runEv:0000000000000020 .L0 
     /tmp/cc0kJUrI.s:749    .text._ZN7WorkerB3runEv:0000000000000024 .L0 
     /tmp/cc0kJUrI.s:750    .text._ZN7WorkerB3runEv:0000000000000024 .L0 
     /tmp/cc0kJUrI.s:752    .text._ZN7WorkerB3runEv:0000000000000028 .L0 
     /tmp/cc0kJUrI.s:754    .text._ZN7WorkerB3runEv:000000000000002c .L0 
     /tmp/cc0kJUrI.s:774    .text:0000000000000214 _ZN7WorkerC11workerBodyCEPv
     /tmp/cc0kJUrI.s:777    .text:0000000000000214 .L0 
     /tmp/cc0kJUrI.s:779    .text:0000000000000214 .L0 
     /tmp/cc0kJUrI.s:780    .text:0000000000000218 .L0 
     /tmp/cc0kJUrI.s:785    .text:0000000000000228 .L0 
     /tmp/cc0kJUrI.s:786    .text:0000000000000228 .L0 
     /tmp/cc0kJUrI.s:787    .text:0000000000000228 .L0 
     /tmp/cc0kJUrI.s:788    .text:0000000000000228 .L0 
     /tmp/cc0kJUrI.s:790    .text:000000000000022c .L0 
     /tmp/cc0kJUrI.s:793    .text:000000000000022c .L0 
     /tmp/cc0kJUrI.s:794    .text:000000000000022c .L0 
     /tmp/cc0kJUrI.s:799    .text:0000000000000234 .L0 
     /tmp/cc0kJUrI.s:800    .text:0000000000000234 .L0 
     /tmp/cc0kJUrI.s:804    .text:0000000000000244 .L0 
     /tmp/cc0kJUrI.s:805    .text:0000000000000244 .L0 
     /tmp/cc0kJUrI.s:811    .text:0000000000000258 .L0 
     /tmp/cc0kJUrI.s:812    .text:0000000000000258 .L0 
     /tmp/cc0kJUrI.s:816    .text:0000000000000268 .L0 
     /tmp/cc0kJUrI.s:822    .text:0000000000000270 .L0 
     /tmp/cc0kJUrI.s:823    .text:0000000000000270 .L0 
GAS LISTING /tmp/cc0kJUrI.s 			page 41


     /tmp/cc0kJUrI.s:826    .text:0000000000000278 .L0 
     /tmp/cc0kJUrI.s:827    .text:0000000000000278 .L0 
     /tmp/cc0kJUrI.s:831    .text:0000000000000288 .L0 
test/Threads_CPP_API_test.cpp:88     .text:0000000000000288 .L0 
     /tmp/cc0kJUrI.s:837    .text:000000000000028c .L0 
     /tmp/cc0kJUrI.s:839    .text:000000000000028c .L0 
     /tmp/cc0kJUrI.s:842    .text:0000000000000294 .L0 
     /tmp/cc0kJUrI.s:843    .text:0000000000000294 .L0 
test/Threads_CPP_API_test.cpp:92     .text:0000000000000294 .L0 
     /tmp/cc0kJUrI.s:850    .text:0000000000000298 .L0 
     /tmp/cc0kJUrI.s:852    .text:0000000000000298 .L0 
     /tmp/cc0kJUrI.s:856    .text:00000000000002a8 .L0 
     /tmp/cc0kJUrI.s:857    .text:00000000000002a8 .L0 
     /tmp/cc0kJUrI.s:863    .text:00000000000002bc .L0 
     /tmp/cc0kJUrI.s:864    .text:00000000000002bc .L0 
     /tmp/cc0kJUrI.s:868    .text:00000000000002cc .L0 
     /tmp/cc0kJUrI.s:869    .text:00000000000002cc .L0 
     /tmp/cc0kJUrI.s:875    .text:00000000000002dc .L0 
     /tmp/cc0kJUrI.s:876    .text:00000000000002dc .L0 
     /tmp/cc0kJUrI.s:881    .text:00000000000002ec .L0 
     /tmp/cc0kJUrI.s:882    .text:00000000000002ec .L0 
     /tmp/cc0kJUrI.s:888    .text:0000000000000300 .L0 
     /tmp/cc0kJUrI.s:889    .text:0000000000000300 .L0 
     /tmp/cc0kJUrI.s:895    .text:0000000000000314 .L0 
     /tmp/cc0kJUrI.s:896    .text:0000000000000314 .L0 
     /tmp/cc0kJUrI.s:900    .text:0000000000000324 .L0 
     /tmp/cc0kJUrI.s:901    .text:0000000000000324 .L0 
     /tmp/cc0kJUrI.s:907    .text:0000000000000338 .L0 
     /tmp/cc0kJUrI.s:908    .text:0000000000000338 .L0 
     /tmp/cc0kJUrI.s:912    .text:0000000000000348 .L0 
     /tmp/cc0kJUrI.s:918    .text:0000000000000350 .L0 
     /tmp/cc0kJUrI.s:919    .text:0000000000000350 .L0 
     /tmp/cc0kJUrI.s:922    .text:0000000000000358 .L0 
     /tmp/cc0kJUrI.s:923    .text:0000000000000358 .L0 
     /tmp/cc0kJUrI.s:927    .text:0000000000000368 .L0 
     /tmp/cc0kJUrI.s:928    .text:0000000000000368 .L0 
     /tmp/cc0kJUrI.s:1562   .sbss:0000000000000001 _ZL9finishedC
     /tmp/cc0kJUrI.s:931    .text:0000000000000374 .L0 
     /tmp/cc0kJUrI.s:932    .text:0000000000000374 .L0 
     /tmp/cc0kJUrI.s:935    .text:000000000000037c .L0 
     /tmp/cc0kJUrI.s:936    .text:0000000000000380 .L0 
     /tmp/cc0kJUrI.s:938    .text:0000000000000384 .L0 
     /tmp/cc0kJUrI.s:939    .text:0000000000000384 .L0 
     /tmp/cc0kJUrI.s:941    .text:0000000000000388 .L0 
     /tmp/cc0kJUrI.s:944    .text:000000000000038c .L0 
     /tmp/cc0kJUrI.s:947    .text:0000000000000390 .L0 
     /tmp/cc0kJUrI.s:949    .text:0000000000000394 .L0 
     /tmp/cc0kJUrI.s:956    .text._ZN7WorkerC3runEv:0000000000000000 _ZN7WorkerC3runEv
     /tmp/cc0kJUrI.s:959    .text._ZN7WorkerC3runEv:0000000000000000 .L0 
     /tmp/cc0kJUrI.s:961    .text._ZN7WorkerC3runEv:0000000000000000 .L0 
     /tmp/cc0kJUrI.s:962    .text._ZN7WorkerC3runEv:0000000000000004 .L0 
     /tmp/cc0kJUrI.s:965    .text._ZN7WorkerC3runEv:000000000000000c .L0 
     /tmp/cc0kJUrI.s:966    .text._ZN7WorkerC3runEv:000000000000000c .L0 
     /tmp/cc0kJUrI.s:968    .text._ZN7WorkerC3runEv:0000000000000010 .L0 
     /tmp/cc0kJUrI.s:970    .text._ZN7WorkerC3runEv:0000000000000010 .L0 
     /tmp/cc0kJUrI.s:971    .text._ZN7WorkerC3runEv:0000000000000010 .L0 
     /tmp/cc0kJUrI.s:975    .text._ZN7WorkerC3runEv:000000000000001c .L0 
GAS LISTING /tmp/cc0kJUrI.s 			page 42


     /tmp/cc0kJUrI.s:976    .text._ZN7WorkerC3runEv:0000000000000020 .L0 
     /tmp/cc0kJUrI.s:978    .text._ZN7WorkerC3runEv:0000000000000024 .L0 
     /tmp/cc0kJUrI.s:979    .text._ZN7WorkerC3runEv:0000000000000024 .L0 
     /tmp/cc0kJUrI.s:981    .text._ZN7WorkerC3runEv:0000000000000028 .L0 
     /tmp/cc0kJUrI.s:983    .text._ZN7WorkerC3runEv:000000000000002c .L0 
     /tmp/cc0kJUrI.s:1003   .text:0000000000000394 _ZN7WorkerD11workerBodyDEPv
     /tmp/cc0kJUrI.s:1006   .text:0000000000000394 .L0 
     /tmp/cc0kJUrI.s:1008   .text:0000000000000394 .L0 
     /tmp/cc0kJUrI.s:1009   .text:0000000000000398 .L0 
     /tmp/cc0kJUrI.s:1014   .text:00000000000003a8 .L0 
     /tmp/cc0kJUrI.s:1015   .text:00000000000003a8 .L0 
     /tmp/cc0kJUrI.s:1016   .text:00000000000003a8 .L0 
     /tmp/cc0kJUrI.s:1017   .text:00000000000003a8 .L0 
     /tmp/cc0kJUrI.s:1019   .text:00000000000003ac .L0 
     /tmp/cc0kJUrI.s:1022   .text:00000000000003ac .L0 
     /tmp/cc0kJUrI.s:1023   .text:00000000000003ac .L0 
     /tmp/cc0kJUrI.s:1028   .text:00000000000003b4 .L0 
     /tmp/cc0kJUrI.s:1029   .text:00000000000003b4 .L0 
     /tmp/cc0kJUrI.s:1033   .text:00000000000003c4 .L0 
     /tmp/cc0kJUrI.s:1034   .text:00000000000003c4 .L0 
     /tmp/cc0kJUrI.s:1040   .text:00000000000003d8 .L0 
     /tmp/cc0kJUrI.s:1041   .text:00000000000003d8 .L0 
     /tmp/cc0kJUrI.s:1045   .text:00000000000003e8 .L0 
     /tmp/cc0kJUrI.s:1051   .text:00000000000003f0 .L0 
     /tmp/cc0kJUrI.s:1052   .text:00000000000003f0 .L0 
     /tmp/cc0kJUrI.s:1055   .text:00000000000003f8 .L0 
     /tmp/cc0kJUrI.s:1056   .text:00000000000003f8 .L0 
     /tmp/cc0kJUrI.s:1060   .text:0000000000000408 .L0 
test/Threads_CPP_API_test.cpp:115    .text:0000000000000408 .L0 
     /tmp/cc0kJUrI.s:1066   .text:000000000000040c .L0 
     /tmp/cc0kJUrI.s:1068   .text:000000000000040c .L0 
     /tmp/cc0kJUrI.s:1071   .text:0000000000000414 .L0 
     /tmp/cc0kJUrI.s:1072   .text:0000000000000414 .L0 
     /tmp/cc0kJUrI.s:1078   .text:0000000000000424 .L0 
     /tmp/cc0kJUrI.s:1079   .text:0000000000000424 .L0 
     /tmp/cc0kJUrI.s:1084   .text:0000000000000434 .L0 
     /tmp/cc0kJUrI.s:1085   .text:0000000000000434 .L0 
     /tmp/cc0kJUrI.s:1091   .text:0000000000000448 .L0 
     /tmp/cc0kJUrI.s:1092   .text:0000000000000448 .L0 
     /tmp/cc0kJUrI.s:1098   .text:000000000000045c .L0 
     /tmp/cc0kJUrI.s:1099   .text:000000000000045c .L0 
     /tmp/cc0kJUrI.s:1103   .text:000000000000046c .L0 
     /tmp/cc0kJUrI.s:1104   .text:000000000000046c .L0 
     /tmp/cc0kJUrI.s:1110   .text:0000000000000480 .L0 
     /tmp/cc0kJUrI.s:1111   .text:0000000000000480 .L0 
     /tmp/cc0kJUrI.s:1115   .text:0000000000000490 .L0 
     /tmp/cc0kJUrI.s:1121   .text:0000000000000498 .L0 
     /tmp/cc0kJUrI.s:1122   .text:0000000000000498 .L0 
     /tmp/cc0kJUrI.s:1125   .text:00000000000004a0 .L0 
     /tmp/cc0kJUrI.s:1126   .text:00000000000004a0 .L0 
     /tmp/cc0kJUrI.s:1130   .text:00000000000004b0 .L0 
     /tmp/cc0kJUrI.s:1131   .text:00000000000004b0 .L0 
     /tmp/cc0kJUrI.s:1558   .sbss:0000000000000000 _ZL9finishedD
     /tmp/cc0kJUrI.s:1134   .text:00000000000004bc .L0 
     /tmp/cc0kJUrI.s:1135   .text:00000000000004bc .L0 
     /tmp/cc0kJUrI.s:1138   .text:00000000000004c4 .L0 
     /tmp/cc0kJUrI.s:1139   .text:00000000000004c8 .L0 
GAS LISTING /tmp/cc0kJUrI.s 			page 43


     /tmp/cc0kJUrI.s:1141   .text:00000000000004cc .L0 
     /tmp/cc0kJUrI.s:1142   .text:00000000000004cc .L0 
     /tmp/cc0kJUrI.s:1144   .text:00000000000004d0 .L0 
     /tmp/cc0kJUrI.s:1147   .text:00000000000004d4 .L0 
     /tmp/cc0kJUrI.s:1150   .text:00000000000004d8 .L0 
     /tmp/cc0kJUrI.s:1152   .text:00000000000004dc .L0 
     /tmp/cc0kJUrI.s:1159   .text._ZN7WorkerD3runEv:0000000000000000 _ZN7WorkerD3runEv
     /tmp/cc0kJUrI.s:1162   .text._ZN7WorkerD3runEv:0000000000000000 .L0 
     /tmp/cc0kJUrI.s:1164   .text._ZN7WorkerD3runEv:0000000000000000 .L0 
     /tmp/cc0kJUrI.s:1165   .text._ZN7WorkerD3runEv:0000000000000004 .L0 
     /tmp/cc0kJUrI.s:1168   .text._ZN7WorkerD3runEv:000000000000000c .L0 
     /tmp/cc0kJUrI.s:1169   .text._ZN7WorkerD3runEv:000000000000000c .L0 
     /tmp/cc0kJUrI.s:1171   .text._ZN7WorkerD3runEv:0000000000000010 .L0 
     /tmp/cc0kJUrI.s:1173   .text._ZN7WorkerD3runEv:0000000000000010 .L0 
     /tmp/cc0kJUrI.s:1174   .text._ZN7WorkerD3runEv:0000000000000010 .L0 
     /tmp/cc0kJUrI.s:1178   .text._ZN7WorkerD3runEv:000000000000001c .L0 
     /tmp/cc0kJUrI.s:1179   .text._ZN7WorkerD3runEv:0000000000000020 .L0 
     /tmp/cc0kJUrI.s:1181   .text._ZN7WorkerD3runEv:0000000000000024 .L0 
     /tmp/cc0kJUrI.s:1182   .text._ZN7WorkerD3runEv:0000000000000024 .L0 
     /tmp/cc0kJUrI.s:1184   .text._ZN7WorkerD3runEv:0000000000000028 .L0 
     /tmp/cc0kJUrI.s:1186   .text._ZN7WorkerD3runEv:000000000000002c .L0 
     /tmp/cc0kJUrI.s:1206   .text:00000000000004dc _Z20Threads_CPP_API_testv
     /tmp/cc0kJUrI.s:1209   .text:00000000000004dc .L0 
     /tmp/cc0kJUrI.s:5428   .sdata.DW.ref.__gxx_personality_v0:0000000000000000 DW.ref.__gxx_personality_v0
     /tmp/cc0kJUrI.s:1212   .text:00000000000004dc .L0 
     /tmp/cc0kJUrI.s:1213   .text:00000000000004e0 .L0 
     /tmp/cc0kJUrI.s:1218   .text:00000000000004f0 .L0 
     /tmp/cc0kJUrI.s:1219   .text:00000000000004f0 .L0 
     /tmp/cc0kJUrI.s:1220   .text:00000000000004f0 .L0 
     /tmp/cc0kJUrI.s:1221   .text:00000000000004f0 .L0 
     /tmp/cc0kJUrI.s:1223   .text:00000000000004f4 .L0 
     /tmp/cc0kJUrI.s:1225   .text:00000000000004f4 .L0 
     /tmp/cc0kJUrI.s:1226   .text:00000000000004f4 .L0 
     /tmp/cc0kJUrI.s:1227   .text:00000000000004f4 .L0 
     /tmp/cc0kJUrI.s:1238   .text:0000000000000504 .L0 
     /tmp/cc0kJUrI.s:1247   .text:0000000000000518 .L0 
     /tmp/cc0kJUrI.s:1249   .text:000000000000051c .L0 
     /tmp/cc0kJUrI.s:1250   .text:000000000000051c .L0 
     /tmp/cc0kJUrI.s:1255   .text:000000000000052c .L0 
     /tmp/cc0kJUrI.s:1256   .text:000000000000052c .L0 
     /tmp/cc0kJUrI.s:1266   .text:000000000000053c .L0 
     /tmp/cc0kJUrI.s:1275   .text:0000000000000550 .L0 
     /tmp/cc0kJUrI.s:1277   .text:0000000000000554 .L0 
     /tmp/cc0kJUrI.s:1278   .text:0000000000000554 .L0 
     /tmp/cc0kJUrI.s:1283   .text:0000000000000564 .L0 
     /tmp/cc0kJUrI.s:1284   .text:0000000000000564 .L0 
     /tmp/cc0kJUrI.s:1294   .text:0000000000000574 .L0 
     /tmp/cc0kJUrI.s:1303   .text:0000000000000588 .L0 
     /tmp/cc0kJUrI.s:1305   .text:000000000000058c .L0 
     /tmp/cc0kJUrI.s:1306   .text:000000000000058c .L0 
     /tmp/cc0kJUrI.s:1311   .text:000000000000059c .L0 
     /tmp/cc0kJUrI.s:1312   .text:000000000000059c .L0 
     /tmp/cc0kJUrI.s:1322   .text:00000000000005ac .L0 
     /tmp/cc0kJUrI.s:1331   .text:00000000000005c0 .L0 
     /tmp/cc0kJUrI.s:1333   .text:00000000000005c4 .L0 
     /tmp/cc0kJUrI.s:1334   .text:00000000000005c4 .L0 
     /tmp/cc0kJUrI.s:1340   .text:00000000000005d4 .L0 
GAS LISTING /tmp/cc0kJUrI.s 			page 44


     /tmp/cc0kJUrI.s:1344   .text:00000000000005d8 .L0 
     /tmp/cc0kJUrI.s:1347   .text:00000000000005e0 .L0 
     /tmp/cc0kJUrI.s:1348   .text:00000000000005e0 .L0 
     /tmp/cc0kJUrI.s:1352   .text:00000000000005ec .L0 
     /tmp/cc0kJUrI.s:1356   .text:00000000000005f8 .L0 
     /tmp/cc0kJUrI.s:1363   .text:0000000000000600 .L0 
     /tmp/cc0kJUrI.s:1364   .text:0000000000000600 .L0 
     /tmp/cc0kJUrI.s:1368   .text:0000000000000608 .L0 
     /tmp/cc0kJUrI.s:1369   .text:0000000000000608 .L0 
     /tmp/cc0kJUrI.s:1370   .text:0000000000000608 .L0 
     /tmp/cc0kJUrI.s:1372   .text:0000000000000610 .L0 
     /tmp/cc0kJUrI.s:1374   .text:0000000000000614 .L0 
     /tmp/cc0kJUrI.s:1376   .text:000000000000061c .L0 
     /tmp/cc0kJUrI.s:1378   .text:0000000000000620 .L0 
     /tmp/cc0kJUrI.s:1380   .text:0000000000000628 .L0 
     /tmp/cc0kJUrI.s:1382   .text:000000000000062c .L0 
     /tmp/cc0kJUrI.s:1384   .text:0000000000000634 .L0 
     /tmp/cc0kJUrI.s:1392   .text:0000000000000640 .L0 
     /tmp/cc0kJUrI.s:1396   .text:0000000000000644 .L0 
     /tmp/cc0kJUrI.s:1399   .text:000000000000064c .L0 
     /tmp/cc0kJUrI.s:1402   .text:0000000000000650 .L0 
     /tmp/cc0kJUrI.s:1403   .text:0000000000000650 .L0 
     /tmp/cc0kJUrI.s:1405   .text:0000000000000654 .L0 
     /tmp/cc0kJUrI.s:1415   .text:0000000000000668 .L0 
     /tmp/cc0kJUrI.s:1424   .text:0000000000000684 .L0 
     /tmp/cc0kJUrI.s:1433   .text:00000000000006a0 .L0 
     /tmp/cc0kJUrI.s:1442   .text:00000000000006bc .L0 
     /tmp/cc0kJUrI.s:1451   .text:00000000000006d4 .L0 
     /tmp/cc0kJUrI.s:1452   .text:00000000000006d8 .L0 
     /tmp/cc0kJUrI.s:1454   .text:00000000000006dc .L0 
     /tmp/cc0kJUrI.s:1455   .text:00000000000006dc .L0 
     /tmp/cc0kJUrI.s:1457   .text:00000000000006e0 .L0 
     /tmp/cc0kJUrI.s:1460   .text:00000000000006e4 .L0 
     /tmp/cc0kJUrI.s:1462   .text:00000000000006e8 .L0 
     /tmp/cc0kJUrI.s:1464   .text:00000000000006ec .L0 
     /tmp/cc0kJUrI.s:1578   .text:00000000000006ec .L0 
     /tmp/cc0kJUrI.s:117    .text._ZN7WorkerAD2Ev:0000000000000034 .L0 
     /tmp/cc0kJUrI.s:164    .text._ZN7WorkerAD0Ev:000000000000004c .L0 
     /tmp/cc0kJUrI.s:201    .text._ZN7WorkerBD2Ev:0000000000000034 .L0 
     /tmp/cc0kJUrI.s:248    .text._ZN7WorkerBD0Ev:000000000000004c .L0 
     /tmp/cc0kJUrI.s:285    .text._ZN7WorkerCD2Ev:0000000000000034 .L0 
     /tmp/cc0kJUrI.s:332    .text._ZN7WorkerCD0Ev:000000000000004c .L0 
     /tmp/cc0kJUrI.s:369    .text._ZN7WorkerDD2Ev:0000000000000034 .L0 
     /tmp/cc0kJUrI.s:416    .text._ZN7WorkerDD0Ev:000000000000004c .L0 
     /tmp/cc0kJUrI.s:586    .text._ZN7WorkerA3runEv:000000000000002c .L0 
     /tmp/cc0kJUrI.s:757    .text._ZN7WorkerB3runEv:000000000000002c .L0 
     /tmp/cc0kJUrI.s:986    .text._ZN7WorkerC3runEv:000000000000002c .L0 
     /tmp/cc0kJUrI.s:1189   .text._ZN7WorkerD3runEv:000000000000002c .L0 
     /tmp/cc0kJUrI.s:418    .rodata.str1.8:0000000000000000 .LC0
     /tmp/cc0kJUrI.s:501    .text:00000000000000d0 .L0 
     /tmp/cc0kJUrI.s:421    .rodata.str1.8:0000000000000008 .LC1
     /tmp/cc0kJUrI.s:513    .text:00000000000000f4 .L0 
     /tmp/cc0kJUrI.s:424    .rodata.str1.8:0000000000000010 .LC2
     /tmp/cc0kJUrI.s:528    .text:000000000000010c .L0 
     /tmp/cc0kJUrI.s:534    .text:0000000000000120 .L0 
     /tmp/cc0kJUrI.s:588    .rodata.str1.8:0000000000000020 .LC3
     /tmp/cc0kJUrI.s:668    .text:000000000000019c .L0 
GAS LISTING /tmp/cc0kJUrI.s 			page 45


     /tmp/cc0kJUrI.s:680    .text:00000000000001c0 .L0 
     /tmp/cc0kJUrI.s:591    .rodata.str1.8:0000000000000028 .LC4
     /tmp/cc0kJUrI.s:695    .text:00000000000001d8 .L0 
     /tmp/cc0kJUrI.s:701    .text:00000000000001ec .L0 
     /tmp/cc0kJUrI.s:759    .rodata.str1.8:0000000000000038 .LC5
     /tmp/cc0kJUrI.s:800    .text:0000000000000234 .L0 
     /tmp/cc0kJUrI.s:812    .text:0000000000000258 .L0 
     /tmp/cc0kJUrI.s:762    .rodata.str1.8:0000000000000040 .LC6
     /tmp/cc0kJUrI.s:827    .text:0000000000000278 .L0 
     /tmp/cc0kJUrI.s:765    .rodata.str1.8:0000000000000050 .LC7
     /tmp/cc0kJUrI.s:852    .text:0000000000000298 .L0 
     /tmp/cc0kJUrI.s:864    .text:00000000000002bc .L0 
     /tmp/cc0kJUrI.s:768    .rodata.str1.8:0000000000000058 .LC8
     /tmp/cc0kJUrI.s:876    .text:00000000000002dc .L0 
     /tmp/cc0kJUrI.s:889    .text:0000000000000300 .L0 
     /tmp/cc0kJUrI.s:896    .text:0000000000000314 .L0 
     /tmp/cc0kJUrI.s:908    .text:0000000000000338 .L0 
     /tmp/cc0kJUrI.s:923    .text:0000000000000358 .L0 
     /tmp/cc0kJUrI.s:929    .text:000000000000036c .L0 
     /tmp/cc0kJUrI.s:988    .rodata.str1.8:0000000000000068 .LC9
     /tmp/cc0kJUrI.s:1029   .text:00000000000003b4 .L0 
     /tmp/cc0kJUrI.s:1041   .text:00000000000003d8 .L0 
     /tmp/cc0kJUrI.s:991    .rodata.str1.8:0000000000000070 .LC10
     /tmp/cc0kJUrI.s:1056   .text:00000000000003f8 .L0 
     /tmp/cc0kJUrI.s:994    .rodata.str1.8:0000000000000080 .LC11
     /tmp/cc0kJUrI.s:1079   .text:0000000000000424 .L0 
     /tmp/cc0kJUrI.s:1092   .text:0000000000000448 .L0 
     /tmp/cc0kJUrI.s:1099   .text:000000000000045c .L0 
     /tmp/cc0kJUrI.s:1111   .text:0000000000000480 .L0 
     /tmp/cc0kJUrI.s:997    .rodata.str1.8:0000000000000090 .LC12
     /tmp/cc0kJUrI.s:1126   .text:00000000000004a0 .L0 
     /tmp/cc0kJUrI.s:1132   .text:00000000000004b4 .L0 
     /tmp/cc0kJUrI.s:1241   .text:000000000000050c .L0 
     /tmp/cc0kJUrI.s:1191   .rodata.str1.8:00000000000000a0 .LC13
     /tmp/cc0kJUrI.s:1250   .text:000000000000051c .L0 
     /tmp/cc0kJUrI.s:1269   .text:0000000000000544 .L0 
     /tmp/cc0kJUrI.s:1194   .rodata.str1.8:00000000000000b8 .LC14
     /tmp/cc0kJUrI.s:1278   .text:0000000000000554 .L0 
     /tmp/cc0kJUrI.s:1297   .text:000000000000057c .L0 
     /tmp/cc0kJUrI.s:1197   .rodata.str1.8:00000000000000d0 .LC15
     /tmp/cc0kJUrI.s:1306   .text:000000000000058c .L0 
     /tmp/cc0kJUrI.s:1325   .text:00000000000005b4 .L0 
     /tmp/cc0kJUrI.s:1200   .rodata.str1.8:00000000000000e8 .LC16
     /tmp/cc0kJUrI.s:1334   .text:00000000000005c4 .L0 
     /tmp/cc0kJUrI.s:1370   .text:0000000000000608 .L0 
     /tmp/cc0kJUrI.s:1374   .text:0000000000000614 .L0 
     /tmp/cc0kJUrI.s:1378   .text:0000000000000620 .L0 
     /tmp/cc0kJUrI.s:1382   .text:000000000000062c .L0 
     /tmp/cc0kJUrI.s:53     .text:0000000000000050 .L1
     /tmp/cc0kJUrI.s:70     .text:0000000000000068 .L6
     /tmp/cc0kJUrI.s:40     .text:0000000000000030 .L3
     /tmp/cc0kJUrI.s:494    .text:00000000000000c8 .L29
     /tmp/cc0kJUrI.s:486    .text:00000000000000c4 .L25
     /tmp/cc0kJUrI.s:454    .text:0000000000000094 .L26
     /tmp/cc0kJUrI.s:475    .text:00000000000000b0 .L27
     /tmp/cc0kJUrI.s:522    .text:000000000000010c .L24
     /tmp/cc0kJUrI.s:466    .text:00000000000000a0 .L28
GAS LISTING /tmp/cc0kJUrI.s 			page 46


     /tmp/cc0kJUrI.s:661    .text:0000000000000194 .L39
     /tmp/cc0kJUrI.s:653    .text:0000000000000190 .L35
     /tmp/cc0kJUrI.s:621    .text:0000000000000160 .L36
     /tmp/cc0kJUrI.s:642    .text:000000000000017c .L37
     /tmp/cc0kJUrI.s:689    .text:00000000000001d8 .L34
     /tmp/cc0kJUrI.s:633    .text:000000000000016c .L38
     /tmp/cc0kJUrI.s:820    .text:0000000000000270 .L45
     /tmp/cc0kJUrI.s:797    .text:0000000000000234 .L49
     /tmp/cc0kJUrI.s:916    .text:0000000000000350 .L47
     /tmp/cc0kJUrI.s:893    .text:0000000000000314 .L50
     /tmp/cc0kJUrI.s:1049   .text:00000000000003f0 .L55
     /tmp/cc0kJUrI.s:1026   .text:00000000000003b4 .L59
     /tmp/cc0kJUrI.s:1119   .text:0000000000000498 .L57
     /tmp/cc0kJUrI.s:1096   .text:000000000000045c .L60
     /tmp/cc0kJUrI.s:1366   .text:0000000000000608 .L64
     /tmp/cc0kJUrI.s:1341   .text:00000000000005d8 .L65
     /tmp/cc0kJUrI.s:1360   .text:0000000000000600 .L66
     /tmp/cc0kJUrI.s:1394   .text:0000000000000644 .L67
     /tmp/cc0kJUrI.s:1449   .text:00000000000006d4 .L63
     /tmp/cc0kJUrI.s:1389   .text:0000000000000640 .L69
     /tmp/cc0kJUrI.s:99     .text._ZN7WorkerAD2Ev:0000000000000010 .L0 
     /tmp/cc0kJUrI.s:141    .text._ZN7WorkerAD0Ev:0000000000000018 .L0 
     /tmp/cc0kJUrI.s:183    .text._ZN7WorkerBD2Ev:0000000000000010 .L0 
     /tmp/cc0kJUrI.s:225    .text._ZN7WorkerBD0Ev:0000000000000018 .L0 
     /tmp/cc0kJUrI.s:267    .text._ZN7WorkerCD2Ev:0000000000000010 .L0 
     /tmp/cc0kJUrI.s:309    .text._ZN7WorkerCD0Ev:0000000000000018 .L0 
     /tmp/cc0kJUrI.s:351    .text._ZN7WorkerDD2Ev:0000000000000010 .L0 
     /tmp/cc0kJUrI.s:393    .text._ZN7WorkerDD0Ev:0000000000000018 .L0 
     /tmp/cc0kJUrI.s:1228   .text:00000000000004f8 .LEHB0
     /tmp/cc0kJUrI.s:1207   .text:00000000000004dc .LFB39
     /tmp/cc0kJUrI.s:1231   .text:0000000000000500 .LEHE0
     /tmp/cc0kJUrI.s:1234   .text:0000000000000504 .LEHB1
     /tmp/cc0kJUrI.s:1240   .text:000000000000050c .LEHE1
     /tmp/cc0kJUrI.s:1411   .text:0000000000000664 .L75
     /tmp/cc0kJUrI.s:1251   .text:0000000000000524 .LEHB2
     /tmp/cc0kJUrI.s:1259   .text:0000000000000538 .LEHE2
     /tmp/cc0kJUrI.s:1262   .text:000000000000053c .LEHB3
     /tmp/cc0kJUrI.s:1268   .text:0000000000000544 .LEHE3
     /tmp/cc0kJUrI.s:1421   .text:0000000000000680 .L76
     /tmp/cc0kJUrI.s:1279   .text:000000000000055c .LEHB4
     /tmp/cc0kJUrI.s:1287   .text:0000000000000570 .LEHE4
     /tmp/cc0kJUrI.s:1290   .text:0000000000000574 .LEHB5
     /tmp/cc0kJUrI.s:1296   .text:000000000000057c .LEHE5
     /tmp/cc0kJUrI.s:1430   .text:000000000000069c .L77
     /tmp/cc0kJUrI.s:1307   .text:0000000000000594 .LEHB6
     /tmp/cc0kJUrI.s:1315   .text:00000000000005a8 .LEHE6
     /tmp/cc0kJUrI.s:1318   .text:00000000000005ac .LEHB7
     /tmp/cc0kJUrI.s:1324   .text:00000000000005b4 .LEHE7
     /tmp/cc0kJUrI.s:1439   .text:00000000000006b8 .L78
     /tmp/cc0kJUrI.s:1335   .text:00000000000005cc .LEHB8
     /tmp/cc0kJUrI.s:1448   .text:00000000000006d4 .LEHE8
     /tmp/cc0kJUrI.s:3794   .debug_abbrev:0000000000000000 .Ldebug_abbrev0
     /tmp/cc0kJUrI.s:5374   .debug_str:00000000000004b6 .LASF93
     /tmp/cc0kJUrI.s:5274   .debug_str:00000000000001ab .LASF94
     /tmp/cc0kJUrI.s:5280   .debug_str:00000000000001e0 .LASF95
     /tmp/cc0kJUrI.s:5172   .debug_ranges:0000000000000000 .Ldebug_ranges0
     /tmp/cc0kJUrI.s:5214   .debug_line:0000000000000000 .Ldebug_line0
GAS LISTING /tmp/cc0kJUrI.s 			page 47


     /tmp/cc0kJUrI.s:5282   .debug_str:0000000000000207 .LASF0
     /tmp/cc0kJUrI.s:5296   .debug_str:0000000000000293 .LASF1
     /tmp/cc0kJUrI.s:5352   .debug_str:0000000000000429 .LASF2
     /tmp/cc0kJUrI.s:5258   .debug_str:0000000000000142 .LASF3
     /tmp/cc0kJUrI.s:5356   .debug_str:0000000000000441 .LASF4
     /tmp/cc0kJUrI.s:5286   .debug_str:0000000000000226 .LASF5
     /tmp/cc0kJUrI.s:5224   .debug_str:000000000000003f .LASF6
     /tmp/cc0kJUrI.s:5330   .debug_str:00000000000003a9 .LASF7
     /tmp/cc0kJUrI.s:5292   .debug_str:000000000000026e .LASF8
     /tmp/cc0kJUrI.s:5268   .debug_str:0000000000000175 .LASF9
     /tmp/cc0kJUrI.s:5272   .debug_str:000000000000019d .LASF10
     /tmp/cc0kJUrI.s:5238   .debug_str:00000000000000a8 .LASF11
     /tmp/cc0kJUrI.s:5264   .debug_str:0000000000000161 .LASF12
     /tmp/cc0kJUrI.s:5246   .debug_str:00000000000000ec .LASF13
     /tmp/cc0kJUrI.s:5236   .debug_str:0000000000000098 .LASF14
     /tmp/cc0kJUrI.s:5376   .debug_str:000000000000057a .LASF15
     /tmp/cc0kJUrI.s:5254   .debug_str:0000000000000125 .LASF16
     /tmp/cc0kJUrI.s:5370   .debug_str:0000000000000494 .LASF17
     /tmp/cc0kJUrI.s:5306   .debug_str:00000000000002e6 .LASF18
     /tmp/cc0kJUrI.s:5380   .debug_str:0000000000000590 .LASF19
     /tmp/cc0kJUrI.s:5354   .debug_str:0000000000000437 .LASF20
     /tmp/cc0kJUrI.s:5312   .debug_str:000000000000030a .LASF21
     /tmp/cc0kJUrI.s:5358   .debug_str:0000000000000448 .LASF22
     /tmp/cc0kJUrI.s:5360   .debug_str:0000000000000452 .LASF23
     /tmp/cc0kJUrI.s:5416   .debug_str:0000000000000699 .LASF24
     /tmp/cc0kJUrI.s:5328   .debug_str:0000000000000397 .LASF25
     /tmp/cc0kJUrI.s:5260   .debug_str:0000000000000148 .LASF26
     /tmp/cc0kJUrI.s:5340   .debug_str:00000000000003e9 .LASF27
     /tmp/cc0kJUrI.s:5400   .debug_str:0000000000000634 .LASF37
     /tmp/cc0kJUrI.s:5232   .debug_str:0000000000000078 .LASF39
     /tmp/cc0kJUrI.s:5294   .debug_str:0000000000000281 .LASF41
     /tmp/cc0kJUrI.s:5350   .debug_str:0000000000000420 .LASF28
     /tmp/cc0kJUrI.s:5404   .debug_str:000000000000065c .LASF44
     /tmp/cc0kJUrI.s:5276   .debug_str:00000000000001c9 .LASF96
     /tmp/cc0kJUrI.s:5220   .debug_str:0000000000000022 .LASF29
     /tmp/cc0kJUrI.s:5408   .debug_str:000000000000067b .LASF31
     /tmp/cc0kJUrI.s:5326   .debug_str:0000000000000381 .LASF30
     /tmp/cc0kJUrI.s:5252   .debug_str:000000000000011c .LASF32
     /tmp/cc0kJUrI.s:5414   .debug_str:0000000000000691 .LASF33
     /tmp/cc0kJUrI.s:5230   .debug_str:0000000000000066 .LASF34
     /tmp/cc0kJUrI.s:5320   .debug_str:0000000000000357 .LASF35
     /tmp/cc0kJUrI.s:5338   .debug_str:00000000000003dd .LASF36
     /tmp/cc0kJUrI.s:5288   .debug_str:0000000000000238 .LASF38
     /tmp/cc0kJUrI.s:5304   .debug_str:00000000000002d6 .LASF40
     /tmp/cc0kJUrI.s:5396   .debug_str:0000000000000606 .LASF42
     /tmp/cc0kJUrI.s:5348   .debug_str:0000000000000417 .LASF43
     /tmp/cc0kJUrI.s:5394   .debug_str:00000000000005f6 .LASF45
     /tmp/cc0kJUrI.s:5412   .debug_str:0000000000000689 .LASF46
     /tmp/cc0kJUrI.s:5318   .debug_str:0000000000000345 .LASF47
     /tmp/cc0kJUrI.s:5390   .debug_str:00000000000005d1 .LASF48
     /tmp/cc0kJUrI.s:5336   .debug_str:00000000000003d1 .LASF49
     /tmp/cc0kJUrI.s:5314   .debug_str:0000000000000314 .LASF50
     /tmp/cc0kJUrI.s:5388   .debug_str:00000000000005c1 .LASF51
     /tmp/cc0kJUrI.s:5284   .debug_str:0000000000000214 .LASF52
     /tmp/cc0kJUrI.s:5346   .debug_str:000000000000040e .LASF53
     /tmp/cc0kJUrI.s:5368   .debug_str:0000000000000484 .LASF54
     /tmp/cc0kJUrI.s:5410   .debug_str:0000000000000681 .LASF55
GAS LISTING /tmp/cc0kJUrI.s 			page 48


     /tmp/cc0kJUrI.s:5216   .debug_str:0000000000000000 .LASF56
     /tmp/cc0kJUrI.s:5240   .debug_str:00000000000000b7 .LASF57
     /tmp/cc0kJUrI.s:5334   .debug_str:00000000000003c5 .LASF58
     /tmp/cc0kJUrI.s:5398   .debug_str:0000000000000618 .LASF59
     /tmp/cc0kJUrI.s:5250   .debug_str:000000000000010c .LASF60
     /tmp/cc0kJUrI.s:5392   .debug_str:00000000000005e4 .LASF61
     /tmp/cc0kJUrI.s:5344   .debug_str:0000000000000405 .LASF62
     /tmp/cc0kJUrI.s:5234   .debug_str:0000000000000088 .LASF63
     /tmp/cc0kJUrI.s:5266   .debug_str:0000000000000170 .LASF64
     /tmp/cc0kJUrI.s:5222   .debug_str:0000000000000035 .LASF65
     /tmp/cc0kJUrI.s:5384   .debug_str:00000000000005a1 .LASF66
     /tmp/cc0kJUrI.s:122    .text._ZN7WorkerAD0Ev:0000000000000000 .LFB55
     /tmp/cc0kJUrI.s:162    .text._ZN7WorkerAD0Ev:000000000000004c .LFE55
     /tmp/cc0kJUrI.s:4560   .debug_loc:0000000000000000 .LLST2
     /tmp/cc0kJUrI.s:138    .text._ZN7WorkerAD0Ev:0000000000000018 .LBB29
     /tmp/cc0kJUrI.s:146    .text._ZN7WorkerAD0Ev:000000000000002c .LBE29
     /tmp/cc0kJUrI.s:4578   .debug_loc:000000000000004c .LLST3
     /tmp/cc0kJUrI.s:144    .text._ZN7WorkerAD0Ev:000000000000002c .LVL11
     /tmp/cc0kJUrI.s:149    .text._ZN7WorkerAD0Ev:0000000000000038 .LVL12
     /tmp/cc0kJUrI.s:5302   .debug_str:00000000000002c6 .LASF67
     /tmp/cc0kJUrI.s:85     .text._ZN7WorkerAD2Ev:0000000000000000 .LFB53
     /tmp/cc0kJUrI.s:113    .text._ZN7WorkerAD2Ev:0000000000000034 .LFE53
     /tmp/cc0kJUrI.s:4589   .debug_loc:0000000000000082 .LLST1
     /tmp/cc0kJUrI.s:102    .text._ZN7WorkerAD2Ev:0000000000000024 .LVL8
     /tmp/cc0kJUrI.s:5298   .debug_str:00000000000002a6 .LASF68
     /tmp/cc0kJUrI.s:206    .text._ZN7WorkerBD0Ev:0000000000000000 .LFB51
     /tmp/cc0kJUrI.s:246    .text._ZN7WorkerBD0Ev:000000000000004c .LFE51
     /tmp/cc0kJUrI.s:4603   .debug_loc:00000000000000bb .LLST5
     /tmp/cc0kJUrI.s:222    .text._ZN7WorkerBD0Ev:0000000000000018 .LBB32
     /tmp/cc0kJUrI.s:230    .text._ZN7WorkerBD0Ev:000000000000002c .LBE32
     /tmp/cc0kJUrI.s:4621   .debug_loc:0000000000000107 .LLST6
     /tmp/cc0kJUrI.s:228    .text._ZN7WorkerBD0Ev:000000000000002c .LVL18
     /tmp/cc0kJUrI.s:233    .text._ZN7WorkerBD0Ev:0000000000000038 .LVL19
     /tmp/cc0kJUrI.s:5228   .debug_str:0000000000000056 .LASF69
     /tmp/cc0kJUrI.s:169    .text._ZN7WorkerBD2Ev:0000000000000000 .LFB49
     /tmp/cc0kJUrI.s:197    .text._ZN7WorkerBD2Ev:0000000000000034 .LFE49
     /tmp/cc0kJUrI.s:4632   .debug_loc:000000000000013d .LLST4
     /tmp/cc0kJUrI.s:186    .text._ZN7WorkerBD2Ev:0000000000000024 .LVL15
     /tmp/cc0kJUrI.s:5226   .debug_str:0000000000000046 .LASF70
     /tmp/cc0kJUrI.s:290    .text._ZN7WorkerCD0Ev:0000000000000000 .LFB47
     /tmp/cc0kJUrI.s:330    .text._ZN7WorkerCD0Ev:000000000000004c .LFE47
     /tmp/cc0kJUrI.s:4646   .debug_loc:0000000000000176 .LLST8
     /tmp/cc0kJUrI.s:306    .text._ZN7WorkerCD0Ev:0000000000000018 .LBB35
     /tmp/cc0kJUrI.s:314    .text._ZN7WorkerCD0Ev:000000000000002c .LBE35
     /tmp/cc0kJUrI.s:4664   .debug_loc:00000000000001c2 .LLST9
     /tmp/cc0kJUrI.s:312    .text._ZN7WorkerCD0Ev:000000000000002c .LVL25
     /tmp/cc0kJUrI.s:317    .text._ZN7WorkerCD0Ev:0000000000000038 .LVL26
     /tmp/cc0kJUrI.s:5366   .debug_str:0000000000000474 .LASF71
     /tmp/cc0kJUrI.s:253    .text._ZN7WorkerCD2Ev:0000000000000000 .LFB45
     /tmp/cc0kJUrI.s:281    .text._ZN7WorkerCD2Ev:0000000000000034 .LFE45
     /tmp/cc0kJUrI.s:4675   .debug_loc:00000000000001f8 .LLST7
     /tmp/cc0kJUrI.s:270    .text._ZN7WorkerCD2Ev:0000000000000024 .LVL22
     /tmp/cc0kJUrI.s:5362   .debug_str:000000000000045c .LASF72
     /tmp/cc0kJUrI.s:374    .text._ZN7WorkerDD0Ev:0000000000000000 .LFB43
     /tmp/cc0kJUrI.s:414    .text._ZN7WorkerDD0Ev:000000000000004c .LFE43
     /tmp/cc0kJUrI.s:4689   .debug_loc:0000000000000231 .LLST11
     /tmp/cc0kJUrI.s:390    .text._ZN7WorkerDD0Ev:0000000000000018 .LBB38
GAS LISTING /tmp/cc0kJUrI.s 			page 49


     /tmp/cc0kJUrI.s:398    .text._ZN7WorkerDD0Ev:000000000000002c .LBE38
     /tmp/cc0kJUrI.s:4707   .debug_loc:000000000000027d .LLST12
     /tmp/cc0kJUrI.s:396    .text._ZN7WorkerDD0Ev:000000000000002c .LVL32
     /tmp/cc0kJUrI.s:401    .text._ZN7WorkerDD0Ev:0000000000000038 .LVL33
     /tmp/cc0kJUrI.s:5278   .debug_str:00000000000001d0 .LASF73
     /tmp/cc0kJUrI.s:337    .text._ZN7WorkerDD2Ev:0000000000000000 .LFB41
     /tmp/cc0kJUrI.s:365    .text._ZN7WorkerDD2Ev:0000000000000034 .LFE41
     /tmp/cc0kJUrI.s:4718   .debug_loc:00000000000002b3 .LLST10
     /tmp/cc0kJUrI.s:354    .text._ZN7WorkerDD2Ev:0000000000000024 .LVL29
     /tmp/cc0kJUrI.s:5316   .debug_str:0000000000000330 .LASF97
     /tmp/cc0kJUrI.s:5290   .debug_str:0000000000000254 .LASF98
     /tmp/cc0kJUrI.s:1465   .text:00000000000006ec .LFE39
     /tmp/cc0kJUrI.s:5364   .debug_str:000000000000046c .LASF74
     /tmp/cc0kJUrI.s:1338   .text:00000000000005d4 .LBB64
     /tmp/cc0kJUrI.s:1361   .text:0000000000000600 .LBE64
     /tmp/cc0kJUrI.s:4732   .debug_loc:00000000000002ec .LLST40
     /tmp/cc0kJUrI.s:1354   .text:00000000000005f8 .LVL149
     /tmp/cc0kJUrI.s:1390   .text:0000000000000640 .LBB65
     /tmp/cc0kJUrI.s:1413   .text:0000000000000668 .LBE65
     /tmp/cc0kJUrI.s:5256   .debug_str:000000000000013b .LASF75
     /tmp/cc0kJUrI.s:4743   .debug_loc:0000000000000322 .LLST41
     /tmp/cc0kJUrI.s:5372   .debug_str:00000000000004aa .LASF76
     /tmp/cc0kJUrI.s:5382   .debug_str:0000000000000595 .LASF99
     /tmp/cc0kJUrI.s:4750   .debug_loc:0000000000000345 .LLST42
     /tmp/cc0kJUrI.s:5378   .debug_str:0000000000000586 .LASF77
     /tmp/cc0kJUrI.s:1235   .text:0000000000000504 .LBB56
     /tmp/cc0kJUrI.s:1245   .text:0000000000000518 .LBE56
     /tmp/cc0kJUrI.s:4761   .debug_loc:000000000000037b .LLST36
     /tmp/cc0kJUrI.s:1239   .text:000000000000050c .LVL130
     /tmp/cc0kJUrI.s:1263   .text:000000000000053c .LBB58
     /tmp/cc0kJUrI.s:1273   .text:0000000000000550 .LBE58
     /tmp/cc0kJUrI.s:4772   .debug_loc:00000000000003b1 .LLST37
     /tmp/cc0kJUrI.s:1267   .text:0000000000000544 .LVL135
     /tmp/cc0kJUrI.s:1291   .text:0000000000000574 .LBB60
     /tmp/cc0kJUrI.s:1301   .text:0000000000000588 .LBE60
     /tmp/cc0kJUrI.s:4783   .debug_loc:00000000000003e7 .LLST38
     /tmp/cc0kJUrI.s:1295   .text:000000000000057c .LVL140
     /tmp/cc0kJUrI.s:1319   .text:00000000000005ac .LBB62
     /tmp/cc0kJUrI.s:1329   .text:00000000000005c0 .LBE62
     /tmp/cc0kJUrI.s:4794   .debug_loc:000000000000041d .LLST39
     /tmp/cc0kJUrI.s:1323   .text:00000000000005b4 .LVL145
     /tmp/cc0kJUrI.s:1230   .text:0000000000000500 .LVL128
     /tmp/cc0kJUrI.s:1253   .text:000000000000052c .LVL132
     /tmp/cc0kJUrI.s:1258   .text:0000000000000538 .LVL133
     /tmp/cc0kJUrI.s:1281   .text:0000000000000564 .LVL137
     /tmp/cc0kJUrI.s:1286   .text:0000000000000570 .LVL138
     /tmp/cc0kJUrI.s:1309   .text:000000000000059c .LVL142
     /tmp/cc0kJUrI.s:1314   .text:00000000000005a8 .LVL143
     /tmp/cc0kJUrI.s:1337   .text:00000000000005d4 .LVL147
     /tmp/cc0kJUrI.s:1365   .text:0000000000000608 .LVL152
     /tmp/cc0kJUrI.s:1417   .text:0000000000000674 .LVL159
     /tmp/cc0kJUrI.s:1420   .text:0000000000000680 .LVL160
     /tmp/cc0kJUrI.s:1426   .text:0000000000000690 .LVL161
     /tmp/cc0kJUrI.s:1429   .text:000000000000069c .LVL162
     /tmp/cc0kJUrI.s:1435   .text:00000000000006ac .LVL163
     /tmp/cc0kJUrI.s:1438   .text:00000000000006b8 .LVL164
     /tmp/cc0kJUrI.s:1444   .text:00000000000006c8 .LVL165
GAS LISTING /tmp/cc0kJUrI.s 			page 50


     /tmp/cc0kJUrI.s:1447   .text:00000000000006d4 .LVL166
     /tmp/cc0kJUrI.s:1004   .text:0000000000000394 .LFB38
     /tmp/cc0kJUrI.s:1153   .text:00000000000004dc .LFE38
     /tmp/cc0kJUrI.s:4805   .debug_loc:0000000000000453 .LLST31
     /tmp/cc0kJUrI.s:4819   .debug_loc:000000000000048c .LLST32
     /tmp/cc0kJUrI.s:4833   .debug_loc:00000000000004c5 .LLST33
     /tmp/cc0kJUrI.s:5420   .debug_str:00000000000006ae .LASF78
     /tmp/cc0kJUrI.s:4853   .debug_loc:0000000000000522 .LLST34
     /tmp/cc0kJUrI.s:1031   .text:00000000000003c4 .LVL104
     /tmp/cc0kJUrI.s:1038   .text:00000000000003d8 .LVL105
     /tmp/cc0kJUrI.s:1043   .text:00000000000003e8 .LVL106
     /tmp/cc0kJUrI.s:1058   .text:0000000000000408 .LVL109
     /tmp/cc0kJUrI.s:1069   .text:0000000000000414 .LVL110
     /tmp/cc0kJUrI.s:1074   .text:0000000000000420 .LVL111
     /tmp/cc0kJUrI.s:1082   .text:0000000000000434 .LVL114
     /tmp/cc0kJUrI.s:1089   .text:0000000000000448 .LVL115
     /tmp/cc0kJUrI.s:1094   .text:0000000000000458 .LVL116
     /tmp/cc0kJUrI.s:1101   .text:000000000000046c .LVL117
     /tmp/cc0kJUrI.s:1108   .text:0000000000000480 .LVL118
     /tmp/cc0kJUrI.s:1113   .text:0000000000000490 .LVL119
     /tmp/cc0kJUrI.s:1128   .text:00000000000004b0 .LVL122
     /tmp/cc0kJUrI.s:1136   .text:00000000000004c4 .LVL123
     /tmp/cc0kJUrI.s:775    .text:0000000000000214 .LFB37
     /tmp/cc0kJUrI.s:950    .text:0000000000000394 .LFE37
     /tmp/cc0kJUrI.s:4864   .debug_loc:0000000000000558 .LLST25
     /tmp/cc0kJUrI.s:4878   .debug_loc:0000000000000591 .LLST26
     /tmp/cc0kJUrI.s:4892   .debug_loc:00000000000005ca .LLST27
     /tmp/cc0kJUrI.s:4912   .debug_loc:0000000000000627 .LLST28
     /tmp/cc0kJUrI.s:4920   .debug_loc:000000000000064b .LLST29
     /tmp/cc0kJUrI.s:802    .text:0000000000000244 .LVL73
     /tmp/cc0kJUrI.s:809    .text:0000000000000258 .LVL74
     /tmp/cc0kJUrI.s:814    .text:0000000000000268 .LVL75
     /tmp/cc0kJUrI.s:829    .text:0000000000000288 .LVL78
     /tmp/cc0kJUrI.s:840    .text:0000000000000294 .LVL79
     /tmp/cc0kJUrI.s:854    .text:00000000000002a8 .LVL81
     /tmp/cc0kJUrI.s:861    .text:00000000000002bc .LVL82
     /tmp/cc0kJUrI.s:866    .text:00000000000002cc .LVL83
     /tmp/cc0kJUrI.s:871    .text:00000000000002d8 .LVL84
     /tmp/cc0kJUrI.s:879    .text:00000000000002ec .LVL87
     /tmp/cc0kJUrI.s:886    .text:0000000000000300 .LVL88
     /tmp/cc0kJUrI.s:891    .text:0000000000000310 .LVL89
     /tmp/cc0kJUrI.s:898    .text:0000000000000324 .LVL90
     /tmp/cc0kJUrI.s:905    .text:0000000000000338 .LVL91
     /tmp/cc0kJUrI.s:910    .text:0000000000000348 .LVL92
     /tmp/cc0kJUrI.s:925    .text:0000000000000368 .LVL95
     /tmp/cc0kJUrI.s:933    .text:000000000000037c .LVL96
     /tmp/cc0kJUrI.s:598    .text:0000000000000140 .LFB36
     /tmp/cc0kJUrI.s:721    .text:0000000000000214 .LFE36
     /tmp/cc0kJUrI.s:4931   .debug_loc:0000000000000681 .LLST19
     /tmp/cc0kJUrI.s:4945   .debug_loc:00000000000006ba .LLST20
     /tmp/cc0kJUrI.s:616    .text:0000000000000158 .LBB48
     /tmp/cc0kJUrI.s:692    .text:00000000000001d8 .LBE48
     /tmp/cc0kJUrI.s:4959   .debug_loc:00000000000006f3 .LLST21
     /tmp/cc0kJUrI.s:4971   .debug_loc:000000000000072a .LLST22
     /tmp/cc0kJUrI.s:639    .text:0000000000000178 .LBB52
     /tmp/cc0kJUrI.s:654    .text:0000000000000190 .LBE52
     /tmp/cc0kJUrI.s:4983   .debug_loc:0000000000000761 .LLST23
GAS LISTING /tmp/cc0kJUrI.s 			page 51


     /tmp/cc0kJUrI.s:628    .text:0000000000000168 .LVL55
     /tmp/cc0kJUrI.s:670    .text:00000000000001ac .LVL61
     /tmp/cc0kJUrI.s:677    .text:00000000000001c0 .LVL62
     /tmp/cc0kJUrI.s:682    .text:00000000000001d0 .LVL63
     /tmp/cc0kJUrI.s:697    .text:00000000000001e8 .LVL65
     /tmp/cc0kJUrI.s:705    .text:00000000000001fc .LVL66
     /tmp/cc0kJUrI.s:431    .text:0000000000000074 .LFB35
     /tmp/cc0kJUrI.s:550    .text:0000000000000140 .LFE35
     /tmp/cc0kJUrI.s:4994   .debug_loc:0000000000000797 .LLST13
     /tmp/cc0kJUrI.s:5008   .debug_loc:00000000000007d0 .LLST14
     /tmp/cc0kJUrI.s:449    .text:000000000000008c .LBB40
     /tmp/cc0kJUrI.s:525    .text:000000000000010c .LBE40
     /tmp/cc0kJUrI.s:5022   .debug_loc:0000000000000809 .LLST15
     /tmp/cc0kJUrI.s:5034   .debug_loc:0000000000000840 .LLST16
     /tmp/cc0kJUrI.s:472    .text:00000000000000ac .LBB44
     /tmp/cc0kJUrI.s:487    .text:00000000000000c4 .LBE44
     /tmp/cc0kJUrI.s:5046   .debug_loc:0000000000000877 .LLST17
     /tmp/cc0kJUrI.s:461    .text:000000000000009c .LVL38
     /tmp/cc0kJUrI.s:503    .text:00000000000000e0 .LVL44
     /tmp/cc0kJUrI.s:510    .text:00000000000000f4 .LVL45
     /tmp/cc0kJUrI.s:515    .text:0000000000000104 .LVL46
     /tmp/cc0kJUrI.s:530    .text:000000000000011c .LVL48
     /tmp/cc0kJUrI.s:1160   .text._ZN7WorkerD3runEv:0000000000000000 .LFB34
     /tmp/cc0kJUrI.s:1187   .text._ZN7WorkerD3runEv:000000000000002c .LFE34
     /tmp/cc0kJUrI.s:5057   .debug_loc:00000000000008ad .LLST35
     /tmp/cc0kJUrI.s:1176   .text._ZN7WorkerD3runEv:000000000000001c .LVL127
     /tmp/cc0kJUrI.s:5300   .debug_str:00000000000002b6 .LASF79
     /tmp/cc0kJUrI.s:957    .text._ZN7WorkerC3runEv:0000000000000000 .LFB30
     /tmp/cc0kJUrI.s:984    .text._ZN7WorkerC3runEv:000000000000002c .LFE30
     /tmp/cc0kJUrI.s:5071   .debug_loc:00000000000008e6 .LLST30
     /tmp/cc0kJUrI.s:973    .text._ZN7WorkerC3runEv:000000000000001c .LVL100
     /tmp/cc0kJUrI.s:5386   .debug_str:00000000000005b1 .LASF80
     /tmp/cc0kJUrI.s:728    .text._ZN7WorkerB3runEv:0000000000000000 .LFB26
     /tmp/cc0kJUrI.s:755    .text._ZN7WorkerB3runEv:000000000000002c .LFE26
     /tmp/cc0kJUrI.s:5085   .debug_loc:000000000000091f .LLST24
     /tmp/cc0kJUrI.s:744    .text._ZN7WorkerB3runEv:000000000000001c .LVL69
     /tmp/cc0kJUrI.s:5248   .debug_str:00000000000000fc .LASF81
     /tmp/cc0kJUrI.s:557    .text._ZN7WorkerA3runEv:0000000000000000 .LFB22
     /tmp/cc0kJUrI.s:584    .text._ZN7WorkerA3runEv:000000000000002c .LFE22
     /tmp/cc0kJUrI.s:5099   .debug_loc:0000000000000958 .LLST18
     /tmp/cc0kJUrI.s:573    .text._ZN7WorkerA3runEv:000000000000001c .LVL51
     /tmp/cc0kJUrI.s:5322   .debug_str:000000000000036a .LASF82
     /tmp/cc0kJUrI.s:5308   .debug_str:00000000000002eb .LASF100
     /tmp/cc0kJUrI.s:12     .text:0000000000000000 .LFB18
     /tmp/cc0kJUrI.s:78     .text:0000000000000074 .LFE18
     /tmp/cc0kJUrI.s:5113   .debug_loc:0000000000000991 .LLST0
     /tmp/cc0kJUrI.s:45     .text:000000000000003c .LVL2
     /tmp/cc0kJUrI.s:50     .text:000000000000004c .LVL3
     /tmp/cc0kJUrI.s:75     .text:0000000000000070 .LVL6
     /tmp/cc0kJUrI.s:5324   .debug_str:000000000000037a .LASF83
     /tmp/cc0kJUrI.s:5218   .debug_str:0000000000000012 .LASF84
     /tmp/cc0kJUrI.s:5262   .debug_str:000000000000015b .LASF85
     /tmp/cc0kJUrI.s:5418   .debug_str:00000000000006a1 .LASF86
     /tmp/cc0kJUrI.s:5242   .debug_str:00000000000000ca .LASF87
     /tmp/cc0kJUrI.s:5402   .debug_str:0000000000000650 .LASF88
     /tmp/cc0kJUrI.s:5406   .debug_str:000000000000066c .LASF101
     /tmp/cc0kJUrI.s:5270   .debug_str:0000000000000185 .LASF102
GAS LISTING /tmp/cc0kJUrI.s 			page 52


     /tmp/cc0kJUrI.s:5244   .debug_str:00000000000000dd .LASF89
     /tmp/cc0kJUrI.s:5332   .debug_str:00000000000003bc .LASF90
     /tmp/cc0kJUrI.s:5310   .debug_str:00000000000002f5 .LASF91
     /tmp/cc0kJUrI.s:5342   .debug_str:00000000000003f5 .LASF92
     /tmp/cc0kJUrI.s:125    .text._ZN7WorkerAD0Ev:0000000000000000 .LVL9
     /tmp/cc0kJUrI.s:157    .text._ZN7WorkerAD0Ev:0000000000000044 .LVL13
     /tmp/cc0kJUrI.s:137    .text._ZN7WorkerAD0Ev:0000000000000018 .LVL10
     /tmp/cc0kJUrI.s:88     .text._ZN7WorkerAD2Ev:0000000000000000 .LVL7
     /tmp/cc0kJUrI.s:209    .text._ZN7WorkerBD0Ev:0000000000000000 .LVL16
     /tmp/cc0kJUrI.s:241    .text._ZN7WorkerBD0Ev:0000000000000044 .LVL20
     /tmp/cc0kJUrI.s:221    .text._ZN7WorkerBD0Ev:0000000000000018 .LVL17
     /tmp/cc0kJUrI.s:172    .text._ZN7WorkerBD2Ev:0000000000000000 .LVL14
     /tmp/cc0kJUrI.s:293    .text._ZN7WorkerCD0Ev:0000000000000000 .LVL23
     /tmp/cc0kJUrI.s:325    .text._ZN7WorkerCD0Ev:0000000000000044 .LVL27
     /tmp/cc0kJUrI.s:305    .text._ZN7WorkerCD0Ev:0000000000000018 .LVL24
     /tmp/cc0kJUrI.s:256    .text._ZN7WorkerCD2Ev:0000000000000000 .LVL21
     /tmp/cc0kJUrI.s:377    .text._ZN7WorkerDD0Ev:0000000000000000 .LVL30
     /tmp/cc0kJUrI.s:409    .text._ZN7WorkerDD0Ev:0000000000000044 .LVL34
     /tmp/cc0kJUrI.s:389    .text._ZN7WorkerDD0Ev:0000000000000018 .LVL31
     /tmp/cc0kJUrI.s:340    .text._ZN7WorkerDD2Ev:0000000000000000 .LVL28
     /tmp/cc0kJUrI.s:1342   .text:00000000000005d8 .LVL148
     /tmp/cc0kJUrI.s:1357   .text:00000000000005fc .LVL150
     /tmp/cc0kJUrI.s:1359   .text:0000000000000600 .LVL151
     /tmp/cc0kJUrI.s:1386   .text:000000000000063c .LVL153
     /tmp/cc0kJUrI.s:1400   .text:0000000000000650 .LVL156
     /tmp/cc0kJUrI.s:1408   .text:0000000000000660 .LVL157
     /tmp/cc0kJUrI.s:1388   .text:0000000000000640 .LVL154
     /tmp/cc0kJUrI.s:1410   .text:0000000000000664 .LVL158
     /tmp/cc0kJUrI.s:1458   .text:00000000000006e0 .LVL167
     /tmp/cc0kJUrI.s:1233   .text:0000000000000504 .LVL129
     /tmp/cc0kJUrI.s:1243   .text:0000000000000518 .LVL131
     /tmp/cc0kJUrI.s:1261   .text:000000000000053c .LVL134
     /tmp/cc0kJUrI.s:1271   .text:0000000000000550 .LVL136
     /tmp/cc0kJUrI.s:1289   .text:0000000000000574 .LVL139
     /tmp/cc0kJUrI.s:1299   .text:0000000000000588 .LVL141
     /tmp/cc0kJUrI.s:1317   .text:00000000000005ac .LVL144
     /tmp/cc0kJUrI.s:1327   .text:00000000000005c0 .LVL146
     /tmp/cc0kJUrI.s:1007   .text:0000000000000394 .LVL101
     /tmp/cc0kJUrI.s:1025   .text:00000000000003b4 .LVL103
     /tmp/cc0kJUrI.s:1021   .text:00000000000003ac .LVL102
     /tmp/cc0kJUrI.s:1046   .text:00000000000003ec .LVL107
     /tmp/cc0kJUrI.s:1048   .text:00000000000003f0 .LVL108
     /tmp/cc0kJUrI.s:1116   .text:0000000000000494 .LVL120
     /tmp/cc0kJUrI.s:1118   .text:0000000000000498 .LVL121
     /tmp/cc0kJUrI.s:1145   .text:00000000000004d0 .LVL124
     /tmp/cc0kJUrI.s:1076   .text:0000000000000424 .LVL112
     /tmp/cc0kJUrI.s:1080   .text:000000000000042c .LVL113
     /tmp/cc0kJUrI.s:1148   .text:00000000000004d4 .LVL125
     /tmp/cc0kJUrI.s:778    .text:0000000000000214 .LVL70
     /tmp/cc0kJUrI.s:796    .text:0000000000000234 .LVL72
     /tmp/cc0kJUrI.s:792    .text:000000000000022c .LVL71
     /tmp/cc0kJUrI.s:817    .text:000000000000026c .LVL76
     /tmp/cc0kJUrI.s:819    .text:0000000000000270 .LVL77
     /tmp/cc0kJUrI.s:913    .text:000000000000034c .LVL93
     /tmp/cc0kJUrI.s:915    .text:0000000000000350 .LVL94
     /tmp/cc0kJUrI.s:942    .text:0000000000000388 .LVL97
     /tmp/cc0kJUrI.s:848    .text:0000000000000298 .LVL80
GAS LISTING /tmp/cc0kJUrI.s 			page 53


     /tmp/cc0kJUrI.s:873    .text:00000000000002dc .LVL85
     /tmp/cc0kJUrI.s:877    .text:00000000000002e4 .LVL86
     /tmp/cc0kJUrI.s:945    .text:000000000000038c .LVL98
     /tmp/cc0kJUrI.s:601    .text:0000000000000140 .LVL52
     /tmp/cc0kJUrI.s:620    .text:0000000000000160 .LVL54
     /tmp/cc0kJUrI.s:615    .text:0000000000000158 .LVL53
     /tmp/cc0kJUrI.s:716    .text:000000000000020c .LVL67
     /tmp/cc0kJUrI.s:660    .text:0000000000000194 .LVL60
     /tmp/cc0kJUrI.s:688    .text:00000000000001d8 .LVL64
     /tmp/cc0kJUrI.s:643    .text:000000000000017c .LVL57
     /tmp/cc0kJUrI.s:652    .text:0000000000000190 .LVL59
     /tmp/cc0kJUrI.s:434    .text:0000000000000074 .LVL35
     /tmp/cc0kJUrI.s:453    .text:0000000000000094 .LVL37
     /tmp/cc0kJUrI.s:448    .text:000000000000008c .LVL36
     /tmp/cc0kJUrI.s:545    .text:0000000000000138 .LVL49
     /tmp/cc0kJUrI.s:493    .text:00000000000000c8 .LVL43
     /tmp/cc0kJUrI.s:521    .text:000000000000010c .LVL47
     /tmp/cc0kJUrI.s:476    .text:00000000000000b0 .LVL40
     /tmp/cc0kJUrI.s:485    .text:00000000000000c4 .LVL42
     /tmp/cc0kJUrI.s:1163   .text._ZN7WorkerD3runEv:0000000000000000 .LVL126
     /tmp/cc0kJUrI.s:960    .text._ZN7WorkerC3runEv:0000000000000000 .LVL99
     /tmp/cc0kJUrI.s:731    .text._ZN7WorkerB3runEv:0000000000000000 .LVL68
     /tmp/cc0kJUrI.s:560    .text._ZN7WorkerA3runEv:0000000000000000 .LVL50
     /tmp/cc0kJUrI.s:16     .text:0000000000000000 .LVL0
     /tmp/cc0kJUrI.s:39     .text:0000000000000030 .LVL1
     /tmp/cc0kJUrI.s:63     .text:000000000000005c .LVL4
     /tmp/cc0kJUrI.s:69     .text:0000000000000068 .LVL5
     /tmp/cc0kJUrI.s:1579   .debug_info:0000000000000000 .Ldebug_info0
     /tmp/cc0kJUrI.s:8      .text:0000000000000000 .Ltext0
     /tmp/cc0kJUrI.s:1573   .text:00000000000006ec .Letext0
     /tmp/cc0kJUrI.s:456    .text:0000000000000094 .LBB42
     /tmp/cc0kJUrI.s:489    .text:00000000000000c4 .LBE42
     /tmp/cc0kJUrI.s:517    .text:0000000000000104 .LBB46
     /tmp/cc0kJUrI.s:523    .text:000000000000010c .LBE46
     /tmp/cc0kJUrI.s:623    .text:0000000000000160 .LBB50
     /tmp/cc0kJUrI.s:656    .text:0000000000000190 .LBE50
     /tmp/cc0kJUrI.s:684    .text:00000000000001d0 .LBB54
     /tmp/cc0kJUrI.s:690    .text:00000000000001d8 .LBE54
     /tmp/cc0kJUrI.s:1468   .gcc_except_table:0000000000000000 .LLSDA39
                           .group:0000000000000000 _ZN7WorkerAD5Ev
                           .group:0000000000000000 _ZN7WorkerBD5Ev
                           .group:0000000000000000 _ZN7WorkerCD5Ev
                           .group:0000000000000000 _ZN7WorkerDD5Ev

UNDEFINED SYMBOLS
_Z15thread_dispatchv
_ZN6ThreadD2Ev
_ZdlPv
_Z11printStringPKc
_Z8printIntiii
_Znwm
_ZN6ThreadC2Ev
_ZN6Thread5startEv
_ZN6Thread8dispatchEv
_Unwind_Resume
__gxx_personality_v0
